((dp1
S'rna_moment'
p2
cnumpy.core.multiarray
_reconstruct
p3
(cnumpy
ndarray
p4
(I0
tS'b'
tRp5
(I1
(I3
tcnumpy
dtype
p6
(S'f8'
I0
I1
tRp7
(I3
S'<'
NNNI-1
I-1
I0
tbI00
S'\xec*\xda\xf3O\xe7{A\xf8\xedw\x9a\x0e\xff\rA\xf1\x80S\xcaVvG\xc1'
tbsS'offset_permanent_ballast_height'
p8
F0.10000000000000001
sS'rna_force'
p9
g3
(g4
(I0
tS'b'
tRp10
(I1
(I3
tg7
I00
S'\xcd\xcc\xccLc\x1e@A\x00\x00\x00\x00\x00\x00\x00\x00\xc3\xf5(\xec!\xffY\xc1'
tbsS'gamma_fatigue'
p11
F1.7549999999999999
sS'loading'
p12
S'hydrostatic'
p13
sS'lower_ring_pontoons_int'
p14
I1
sS'main_stiffener_web_height'
p15
g3
(g4
(I0
tS'b'
tRp16
(I1
(I4
tg6
(S'f8'
I0
I1
tRp17
(I3
S'<'
NNNI-1
I-1
I0
tbI00
S'I\x06\xcbXa\xef\xef?I\x06\xcbXa\xef\xef?I\x06\xcbXa\xef\xef?I\x06\xcbXa\xef\xef?'
tbsS'zref'
p18
F119
sS'outfitting_cost_rate'
p19
F1.6500000000000001
sS'offset_buoyancy_tank_location'
p20
F0
sS'main_stiffener_flange_width'
p21
g3
(g4
(I0
tS'b'
tRp22
(I1
(I4
tg17
I00
S'\x9ex\x05\x80W\xf7\x13@\x9ex\x05\x80W\xf7\x13@\x9ex\x05\x80W\xf7\x13@\x9ex\x05\x80W\xf7\x13@'
tbsS'max_taper_ratio'
p23
F0.40000000000000002
sS'main_stiffener_spacing'
p24
g3
(g4
(I0
tS'b'
tRp25
(I1
(I4
tg17
I00
S'qA\x95\xb1\x98D\x17@qA\x95\xb1\x98D\x17@qA\x95\xb1\x98D\x17@qA\x95\xb1\x98D\x17@'
tbsS'max_draft'
p26
F35
sS'T'
F9.8000000000000007
sS'bulkhead_mass_factor'
p27
F1
sS'wave_period_range_high'
p28
F20
sS'cross_attachment_pontoons_int'
p29
I1
sS'outfitting_mass_fraction'
p30
F0.059999999999999998
sS'offset_buoyancy_tank_diameter'
p31
F24
sS'main_outer_diameter'
p32
g3
(g4
(I0
tS'b'
tRp33
(I1
(I5
tg6
(S'f8'
I0
I1
tRp34
(I3
S'<'
NNNI-1
I-1
I0
tbI00
S'.\x8e\xd4I\x7f8\x1e@I/2s$\x1d#@\xde\xb0R\xfe\xe7\xd41@\x9d|y\xa6\xdfo)@O\x96\xe5\xa48\xdd\x1c@'
tbsS'rna_I'
p35
g3
(g4
(I0
tS'b'
tRp36
(I1
(I6
tg7
I00
S'\x00\x00\x00.b\xf5\xa3A\x00\x00\x00\x08)"\x99A\x00\x00\x00\xf0\x10Q\x94A\x00\x00\x00\x00\x00\x00\x00\x00\xa4p=\n\x98x7A\x00\x00\x00\x00\x00\x00\x00\x00'
tbsS'main.windLoads.mu'
p37
F1.8099999999999999e-05
sS'fairlead_support_outer_diameter'
p38
cnumpy.core.multiarray
scalar
p39
(g6
(S'f8'
I0
I1
tRp40
(I3
S'<'
NNNI-1
I-1
I0
tbS'\xcfv0\xdf\xd1!#@'
tRp41
sS'offset_bulkhead_thickness'
p42
g3
(g4
(I0
tS'b'
tRp43
(I1
(I5
tg6
(S'f8'
I0
I1
tRp44
(I3
S'<'
NNNI-1
I-1
I0
tbI00
S'\x9a\x99\x99\x99\x99\x99\xa9?\x9a\x99\x99\x99\x99\x99\xa9?\x00\x00\x00\x00\x00\x00\x00\x00\x00\x00\x00\x00\x00\x00\x00\x00\x9a\x99\x99\x99\x99\x99\xa9?'
tbsS'shell_mass_factor'
p45
F1
sS'main_pontoon_attach_upper'
p46
F1
sS'rna_mass'
p47
F627696.90530069917
sS'tower_buckling_length'
p48
F30
sS'Hs'
p49
F10.800000000000001
sS'main_freeboard'
p50
g39
(g40
S'\xf5\xf6nj-\xfe=@'
tRp51
sS'Rhub'
p52
F2.2999999999999998
sS'material_density'
p53
F7850
sS'tower_outfitting_factor'
p54
F1.0700000000000001
sS'tower_outer_diameter'
p55
g3
(g4
(I0
tS'b'
tRp56
(I1
(I4
tg17
I00
S'\x00\x00\x00\x00\x00\x00"@\x00\x00\x00\x00\x00\x00\x1d@\x00\x00\x00\x00\x00\x00\x1d@\x00\x00\x00\x00\x00\x00\x16@'
tbsS'anchor_type'
p57
S'suctionpile'
p58
sS'G'
F79300000000
sS'fairlead_location'
p59
g39
(g40
S'U\x1a\xb7|\xf7\x9e\xb6?'
tRp60
sS'max_offset'
p61
F100
sS'max_survival_heel'
p62
F15
sS'main.waveLoads.mu'
p63
F0.00088999999999999995
sS'permanent_ballast_density'
p64
F4492
sS'z0'
p65
F0
sS'Uc'
p66
F0
sS'material_cost_rate'
p67
F1.1000000000000001
sS'pontoon_wall_thickness'
p68
F0.017500000000000002
sS'number_of_offset_columns'
p69
I0
sS'radius_to_offset_column'
p70
F28.867513459481287
sS'tower_section_height'
p71
g3
(g4
(I0
tS'b'
tRp72
(I1
(I3
tg17
I00
S'UUUUU\xd5C@UUUUU\xd5C@UUUUU\xd5C@'
tbsS'main_buoyancy_tank_location'
p73
g39
(g40
S'\xd1&PY\xa0#\xd1?'
tRp74
sS'cm'
p75
F2
sS'main_stiffener_flange_thickness'
p76
g3
(g4
(I0
tS'b'
tRp77
(I1
(I4
tg17
I00
S'\x82\xa4\x83\xcd\x1a\x88\xda?\x82\xa4\x83\xcd\x1a\x88\xda?\x82\xa4\x83\xcd\x1a\x88\xda?\x82\xa4\x83\xcd\x1a\x88\xda?'
tbsS'hub_cm'
p78
g3
(g4
(I0
tS'b'
tRp79
(I1
(I3
tg44
I00
S'ffffff\x1c\xc0\x00\x00\x00\x00\x00\x00\x00\x00\x00\x00\x00\x00\x00\x00\x06@'
tbsS'mooring_diameter'
p80
g39
(g40
S't\xa5\xdc\x80\x19\xc2\xd0?'
tRp81
sS'gamma_m'
p82
F1.1000000000000001
sS'gamma_n'
p83
F1
sS'offset_section_height'
p84
g3
(g4
(I0
tS'b'
tRp85
(I1
(I4
tg7
I00
S'\x9a\x99\x99\x99\x99\x99\x19@\x9a\x99\x99\x99\x99\x99\x19@\x9a\x99\x99\x99\x99\x99)@\x9a\x99\x99\x99\x99\x99\x19@'
tbsS'main_bulkhead_thickness'
p86
g3
(g4
(I0
tS'b'
tRp87
(I1
(I5
tg44
I00
S'\x9a\x99\x99\x99\x99\x99\xa9?\x9a\x99\x99\x99\x99\x99\xa9?\x00\x00\x00\x00\x00\x00\x00\x00\x00\x00\x00\x00\x00\x00\x00\x00\x9a\x99\x99\x99\x99\x99\xa9?'
tbsS'yaw'
p88
F0
sS'gamma_f'
p89
F1.3500000000000001
sS'offset_freeboard'
p90
F12
sS'gamma_b'
p91
F1.1000000000000001
sS'tip_position'
p92
g3
(g4
(I0
tS'b'
tRp93
(I1
(I3
tg44
I00
S'\x9c\xc4 \xb0rh\x0c\xc0\x00\x00\x00\x00\x00\x00\x00\x00\x1b/\xdd$\x06\x815@'
tbsS'z_offset'
p94
F0
sS'ballast_cost_rate'
p95
F0.10000000000000001
sS'number_of_mooring_connections'
p96
g39
(g40
S'\x00\x00\x00\x00\x00\x00\x08@'
tRp97
sS'offset_stiffener_web_thickness'
p98
g3
(g4
(I0
tS'b'
tRp99
(I1
(I4
tg17
I00
S'{\x14\xaeG\xe1z\xa4?{\x14\xaeG\xe1z\xa4?{\x14\xaeG\xe1z\xa4?{\x14\xaeG\xe1z\xa4?'
tbsS'mooring_line_length'
p100
g39
(g40
S'\x82fI\xaf\xd7\xdah@'
tRp101
sS'downwind'
p102
I00
sS'outer_cross_pontoons_int'
p103
I1
sS'water_depth'
p104
F320
sS'main_buoyancy_tank_diameter'
p105
g39
(g40
S'\xfe1\xe2A\x9c\xf6\xff?'
tRp106
sS'column_mass_factor'
p107
F1.05
sS'operational_heel'
p108
F6
sS'offset_outer_diameter'
p109
g3
(g4
(I0
tS'b'
tRp110
(I1
(I5
tg7
I00
S'\x00\x00\x00\x00\x00\x00(@\x00\x00\x00\x00\x00\x00(@\x00\x00\x00\x00\x00\x00(@\x00\x00\x00\x00\x00\x00(@\x00\x00\x00\x00\x00\x00(@'
tbsS'yield_stress'
p111
F345000000
sS'main_wall_thickness'
p112
g3
(g4
(I0
tS'b'
tRp113
(I1
(I4
tg17
I00
S'Hv\x1f\x8e\xf5M\xac?Hv\x1f\x8e\xf5M\xac?Hv\x1f\x8e\xf5M\xac?Hv\x1f\x8e\xf5M\xac?'
tbsS'connection_ratio_max'
p114
F0.25
sS'ring_mass_factor'
p115
F1
sS'upper_ring_pontoons_int'
p116
I1
sS'main_stiffener_web_thickness'
p117
g3
(g4
(I0
tS'b'
tRp118
(I1
(I4
tg17
I00
S'\x17W\xb7\x86\xf9\xff\xdf?\x17W\xb7\x86\xf9\xff\xdf?\x17W\xb7\x86\xf9\xff\xdf?\x17W\xb7\x86\xf9\xff\xdf?'
tbsS'lower_attachment_pontoons_int'
p119
I1
sS'water_density'
p120
F1025
sS'main_buoyancy_tank_height'
p121
g39
(g40
S'\xed7\xf1\xcf\xd7F%@'
tRp122
sS'cd_usr'
p123
Finf
sS'min_diameter_thickness_ratio'
p124
F120
sS'offset_wall_thickness'
p125
g3
(g4
(I0
tS'b'
tRp126
(I1
(I4
tg17
I00
S'\xb8\x1e\x85\xebQ\xb8\xae?\xb8\x1e\x85\xebQ\xb8\xae?\xb8\x1e\x85\xebQ\xb8\xae?\xb8\x1e\x85\xebQ\xb8\xae?'
tbsS'offset_buoyancy_tank_height'
p127
F5
sS'main_section_height'
p128
g3
(g4
(I0
tS'b'
tRp129
(I1
(I4
tg34
I00
S'f\xe2QZ\x0e\x8f\x1b@\xef\xdbh#\x91\x06\x11@\xf0\x88\x9b~\xa0\xe5?@\xf1\xb3\xeb\x9f\xca\x04\x01@'
tbsS'Uref'
p130
F11
sS'anchor_radius'
p131
g39
(g40
S'\xcf^\xe2\xf2)TE@'
tRp132
sS'rna_cg'
p133
g3
(g4
(I0
tS'b'
tRp134
(I1
(I3
tg7
I00
S'\x1e\x01\x16\xd8\xe7Z\xe3\xbf\x00\x00\x00\x00\x00\x00\x00\x00\x0e\xb4L\xd0p$\x04@'
tbsS'pontoon_outer_diameter'
p135
F3.2000000000000002
sS'fairlead_support_wall_thickness'
p136
g39
(g40
S'\xb6\x8cL\xe0o/R?'
tRp137
sS'fairlead_offset_from_shell'
p138
g39
(g40
S'F\xbd\xa7\xe3\x13\x1c:@'
tRp139
sS'tower_wall_thickness'
p140
g3
(g4
(I0
tS'b'
tRp141
(I1
(I3
tg17
I00
S'\x90\xebQ\xb8\x1e\x85\xd3?\x90\xebQ\xb8\x1e\x85\xd3?\x90\xebQ\xb8\x1e\x85\xd3?'
tbsS'mooring_cost_rate'
p142
F1.1000000000000001
sS'painting_cost_rate'
p143
F14.4
sS'nu'
p144
F0.26000000000000001
sS'E'
F200000000000
sS'wave_period_range_low'
p145
F2
sS'main_pontoon_attach_lower'
p146
F0.10000000000000001
sS'offset_stiffener_flange_thickness'
p147
g3
(g4
(I0
tS'b'
tRp148
(I1
(I4
tg17
I00
S'{\x14\xaeG\xe1z\x94?{\x14\xaeG\xe1z\x94?{\x14\xaeG\xe1z\x94?{\x14\xaeG\xe1z\x94?'
tbsS'main.windLoads.rho'
p149
F1.198
sS'beta'
p150
F0
sS'shearExp'
p151
F0.11
sS'mooring_lines_per_connection'
p152
g39
(g40
S'\x00\x00\x00\x00\x00\x00\x00@'
tRp153
sS'main_permanent_ballast_height'
p154
g39
(g40
S'v\x93?5P\xa6\xba?'
tRp155
sS'offset_stiffener_flange_width'
p156
g3
(g4
(I0
tS'b'
tRp157
(I1
(I4
tg17
I00
S'\x9a\x99\x99\x99\x99\x99\xb9?\x9a\x99\x99\x99\x99\x99\xb9?\x9a\x99\x99\x99\x99\x99\xb9?\x9a\x99\x99\x99\x99\x99\xb9?'
tbsS'offset_stiffener_spacing'
p158
g3
(g4
(I0
tS'b'
tRp159
(I1
(I4
tg17
I00
S'\x9a\x99\x99\x99\x99\x99\xd9?\x9a\x99\x99\x99\x99\x99\xd9?\x9a\x99\x99\x99\x99\x99\xd9?\x9a\x99\x99\x99\x99\x99\xd9?'
tbsS'mooring_type'
p160
S'nylon'
p161
sS'hub_height'
p162
F149
sS'upper_attachment_pontoons_int'
p163
I1
sS'labor_cost_rate'
p164
F1
sS'offset_stiffener_web_height'
p165
g3
(g4
(I0
tS'b'
tRp166
(I1
(I4
tg17
I00
S'\x9a\x99\x99\x99\x99\x99\xb9?\x9a\x99\x99\x99\x99\x99\xb9?\x9a\x99\x99\x99\x99\x99\xb9?\x9a\x99\x99\x99\x99\x99\xb9?'
tbs(lp167
(lp168
S'fairlead_location'
p169
aF0
aF1
aa(lp170
S'fairlead_offset_from_shell'
p171
aF5
aF30
aa(lp172
S'fairlead_support_wall_thickness'
p173
aF0.001
aF1
aa(lp174
S'fairlead_support_outer_diameter'
p175
aF0.10000000000000001
aF10
aa(lp176
S'main_freeboard'
p177
aF0
aF50
aa(lp178
S'main_section_height'
p179
aF0.10000000000000001
aF50
aa(lp180
S'main_outer_diameter'
p181
aF2.1000000000000001
aF20
aa(lp182
S'main_wall_thickness'
p183
aF0.001
aF0.5
aa(lp184
S'main_buoyancy_tank_diameter'
p185
aF0
aF50
aa(lp186
S'main_buoyancy_tank_height'
p187
aF0
aF20
aa(lp188
S'main_buoyancy_tank_location'
p189
aF0
aF1
aa(lp190
S'mooring_line_length'
p191
aF10
aF300
aa(lp192
S'anchor_radius'
p193
aF20
aF100
aa(lp194
S'mooring_diameter'
p195
aF0.050000000000000003
aF5
aa(lp196
S'main_permanent_ballast_height'
p197
aF0.10000000000000001
aF50
aa(lp198
S'main_stiffener_web_height'
p199
aF0.01
aF1
aa(lp200
S'main_stiffener_web_thickness'
p201
aF0.001
aF0.5
aa(lp202
S'main_stiffener_flange_width'
p203
aF0.01
aF5
aa(lp204
S'main_stiffener_flange_thickness'
p205
aF0.001
aF0.5
aa(lp206
S'main_stiffener_spacing'
p207
aF0.10000000000000001
aF100
aa(lp208
(lp209
S'tow.height_constraint'
p210
aF-0.01
aF0.01
aNaa(lp211
S'main.draft'
p212
aF0
aF35
aNaa(lp213
S'main.draft_margin'
p214
aF0
aF1
aNaa(lp215
S'main.wave_height_freeboard_ratio'
p216
aNaF1
aNaa(lp217
S'main.manufacturability'
p218
aF0
aNaNaa(lp219
S'main.weldability'
p220
aNaF0
aNaa(lp221
S'tower_transition_buffer'
p222
aF-1
aF1
aNaa(lp223
S'nacelle_transition_buffer'
p224
aF0
aNaNaa(lp225
S'axial_unity'
p226
aF0
aF1
aNaa(lp227
S'mooring_length_max'
p228
aNaF1
aNaa(lp229
S'main.flange_spacing_ratio'
p230
aNaF1
aNaa(lp231
S'main.stiffener_radius_ratio'
p232
aNaF0.5
aNaa(lp233
S'main.flange_compactness'
p234
aF1
aNaNaa(lp235
S'main.web_compactness'
p236
aF1
aNaNaa(lp237
S'main.axial_local_api'
p238
aNaF1
aNaa(lp239
S'main.axial_general_api'
p240
aNaF1
aNaa(lp241
S'main.external_local_api'
p242
aNaF1
aNaa(lp243
S'main.external_general_api'
p244
aNaF1
aNaa(lp245
S'tower_stress'
p246
aNaF1
aNaa(lp247
S'tower_shell_buckling'
p248
aNaF1
aNaa(lp249
S'tower_global_buckling'
p250
aNaF1
aNaa(lp251
S'main_stress'
p252
aNaF1
aNaa(lp253
S'main_shell_buckling'
p254
aNaF1
aNaa(lp255
S'main_global_buckling'
p256
aNaF1
aNaa(lp257
S'variable_ballast_height_ratio'
p258
aF0
aF1
aNaa(lp259
S'variable_ballast_mass'
p260
aF0
aNaNaa(lp261
S'offset_force_ratio'
p262
aNaF1
aNaa(lp263
S'heel_moment_ratio'
p264
aNaF1
aNaa(lp265
S'period_margin_low'
p266
aNaF1
aNaa(lp267
S'period_margin_high'
p268
aF1
aNaNaa(S'structural_mass'
p269
F9.9999999999999995e-07
tp270
S'NM'
p271
t.