((dp1
S'groutSpreadDR'
p2
F3000
sS'generator_mass'
p3
F16699.849999999999
sS'turbine_profitMultiplier'
p4
F0
sS'prepGripperJack'
p5
F8
sS'tpCover'
p6
F1.5
sS'main_stiffener_flange_width'
p7
cnumpy.core.multiarray
_reconstruct
p8
(cnumpy
ndarray
p9
(I0
tS'b'
tRp10
(I1
(I4
tcnumpy
dtype
p11
(S'f8'
I0
I1
tRp12
(I3
S'<'
NNNI-1
I-1
I0
tbI00
S'\x19k\xf0~\xc6\xf7\x13@\x19k\xf0~\xc6\xf7\x13@\x19k\xf0~\xc6\xf7\x13@\x19k\xf0~\xc6\xf7\x13@'
tbsS'cross_attachment_pontoons_int'
p13
I1
sS'faaPlan'
p14
F10000
sS'main_section_height'
p15
g8
(g9
(I0
tS'b'
tRp16
(I1
(I4
tg11
(S'f8'
I0
I1
tRp17
(I3
S'<'
NNNI-1
I-1
I0
tbI00
S'\xee\xbd\x12\xac\x14\xad\x1b@\x8b\r\x97\xa8P\xd1\x10@1\xa0 \xfe\xa7\xe5?@w}\tR\x89\x03\x01@'
tbsS'transformer_mass'
p18
F1000
sS'otherAncillary'
p19
F3000000
sS'precurve_tip'
p20
F0
sS'jtransCR'
p21
F4500
sS'offset_buoyancy_tank_diameter'
p22
F24
sS'medVoltSG'
p23
F500000
sS'generator_mass_cost_coeff'
p24
F17.43
sS'jpileL'
p25
F47.5
sS'plantComm'
p26
F0.01
sS'subsLoad'
p27
F60
sS'jpileD'
p28
F1.6000000000000001
sS'capital_cost_year_4'
p29
F0
sS'main_bearing_mass'
p30
F4865.7049999999999
sS'main_freeboard'
p31
cnumpy.core.multiarray
scalar
p32
(g11
(S'f8'
I0
I1
tRp33
(I3
S'<'
NNNI-1
I-1
I0
tbS'\xb5\xc88\x1c \xfe=@'
tRp34
sS'capital_cost_year_5'
p35
F0
sS'material_density'
p36
F7850
sS'dynCabFac'
p37
F2
sS'cab1CurrRating'
p38
F300
sS'crane600DR'
p39
F5000
sS'ring_mass_factor'
p40
F1
sS'arrVoltage'
p41
F33
sS'elec_connec_cost_esc'
p42
F1.5
sS'gearbox_mass'
p43
F30237.599999999999
sS'construction_insurance'
p44
F0.01
sS'cab2SubsInterCR'
p45
F19815
sS'tax_rate'
p46
F0.40000000000000002
sS'presweep_in'
p47
g8
(g9
(I0
tS'b'
tRp48
(I1
(I5
tg11
(S'f8'
I0
I1
tRp49
(I3
S'<'
NNNI-1
I-1
I0
tbI00
S'\x00\x00\x00\x00\x00\x00\x00\x00\x00\x00\x00\x00\x00\x00\x00\x00\x00\x00\x00\x00\x00\x00\x00\x00\x00\x00\x00\x00\x00\x00\x00\x00\x00\x00\x00\x00\x00\x00\x00\x00'
tbsS'permanent_ballast_density'
p50
F4492
sS'expCabLoad'
p51
F24
sS'groutSpreadMob'
p52
F1000000
sS'machine_rating'
p53
F10000000
sS'socEconStudyMet'
p54
F500000
sS'cleanWatAct402'
p55
F100000
sS'mpvRentalDR'
p56
F72000
sS'distAtoS'
p57
F90
sS'cover_mass'
p58
F1000
sS'lower_attachment_pontoons_int'
p59
I1
sS'usecd'
p60
I01
sS'radius_to_offset_column'
p61
F28.867513459481287
sS'surfLayRate'
p62
F375
sS'physResStudyProj'
p63
F500000
sS'seaSpreadDR'
p64
F165000
sS'z_offset'
p65
F0
sS'prepAA'
p66
F168
sS'number_of_mooring_connections'
p67
g32
(g33
S'\x00\x00\x00\x00\x00\x00\x08@'
tRp68
sS'material_cost_rate'
p69
F1.1000000000000001
sS'dynamic_amplication_tip_deflection'
p70
F1.3500000000000001
sS'arrCab1Mass'
p71
F20.384
sS'turbine_assemblyCostMultiplier'
p72
F0
sS'turbInstallMethod'
p73
I0
sS'tower_assemblyCostMultiplier'
p74
F0
sS'column_mass_factor'
p75
F1.05
sS'offset_outer_diameter'
p76
g8
(g9
(I0
tS'b'
tRp77
(I1
(I5
tg11
(S'f8'
I0
I1
tRp78
(I3
S'<'
NNNI-1
I-1
I0
tbI00
S'\x00\x00\x00\x00\x00\x00(@\x00\x00\x00\x00\x00\x00(@\x00\x00\x00\x00\x00\x00(@\x00\x00\x00\x00\x00\x00(@\x00\x00\x00\x00\x00\x00(@'
tbsS'yield_stress'
p79
F345000000
sS'rstar_damage'
p80
g8
(g9
(I0
tS'b'
tRp81
(I1
(I51
tg49
I00
S'\x00\x00\x00\x00\x00\x00\x00\x00{\x14\xaeG\xe1z\x94?{\x14\xaeG\xe1z\xa4?\xb8\x1e\x85\xebQ\xb8\xae?{\x14\xaeG\xe1z\xb4?\x9a\x99\x99\x99\x99\x99\xb9?\xb8\x1e\x85\xebQ\xb8\xbe?\xecQ\xb8\x1e\x85\xeb\xc1?{\x14\xaeG\xe1z\xc4?\n\xd7\xa3p=\n\xc7?\x9a\x99\x99\x99\x99\x99\xc9?)\\\x8f\xc2\xf5(\xcc?\xb8\x1e\x85\xebQ\xb8\xce?\xa4p=\n\xd7\xa3\xd0?\xecQ\xb8\x1e\x85\xeb\xd1?333333\xd3?{\x14\xaeG\xe1z\xd4?\xc3\xf5(\\\x8f\xc2\xd5?\n\xd7\xa3p=\n\xd7?R\xb8\x1e\x85\xebQ\xd8?\x9a\x99\x99\x99\x99\x99\xd9?\xe1z\x14\xaeG\xe1\xda?)\\\x8f\xc2\xf5(\xdc?q=\n\xd7\xa3p\xdd?\xb8\x1e\x85\xebQ\xb8\xde?\x00\x00\x00\x00\x00\x00\xe0?\xa4p=\n\xd7\xa3\xe0?H\xe1z\x14\xaeG\xe1?\xecQ\xb8\x1e\x85\xeb\xe1?\x8f\xc2\xf5(\\\x8f\xe2?333333\xe3?\xd7\xa3p=\n\xd7\xe3?{\x14\xaeG\xe1z\xe4?\x1f\x85\xebQ\xb8\x1e\xe5?\xc3\xf5(\\\x8f\xc2\xe5?gfffff\xe6?\n\xd7\xa3p=\n\xe7?\xaeG\xe1z\x14\xae\xe7?R\xb8\x1e\x85\xebQ\xe8?\xf6(\\\x8f\xc2\xf5\xe8?\x9a\x99\x99\x99\x99\x99\xe9?>\n\xd7\xa3p=\xea?\xe1z\x14\xaeG\xe1\xea?\x85\xebQ\xb8\x1e\x85\xeb?)\\\x8f\xc2\xf5(\xec?\xcd\xcc\xcc\xcc\xcc\xcc\xec?q=\n\xd7\xa3p\xed?\x15\xaeG\xe1z\x14\xee?\xb8\x1e\x85\xebQ\xb8\xee?\\\x8f\xc2\xf5(\\\xef?\x00\x00\x00\x00\x00\x00\xf0?'
tbsS'precone'
p82
F4
sS'nacelle_transportMultiplier'
p83
F0
sS'Mxb_damage'
p84
g8
(g9
(I0
tS'b'
tRp85
(I1
(I51
tg49
I00
S'\x11\xea-\x81\x99\x97q=\x11\xea-\x81\x99\x97q=\x11\xea-\x81\x99\x97q=\x11\xea-\x81\x99\x97q=\x11\xea-\x81\x99\x97q=\x11\xea-\x81\x99\x97q=\x11\xea-\x81\x99\x97q=\x11\xea-\x81\x99\x97q=\x11\xea-\x81\x99\x97q=\x11\xea-\x81\x99\x97q=\x11\xea-\x81\x99\x97q=\x11\xea-\x81\x99\x97q=\x11\xea-\x81\x99\x97q=\x11\xea-\x81\x99\x97q=\x11\xea-\x81\x99\x97q=\x11\xea-\x81\x99\x97q=\x11\xea-\x81\x99\x97q=\x11\xea-\x81\x99\x97q=\x11\xea-\x81\x99\x97q=\x11\xea-\x81\x99\x97q=\x11\xea-\x81\x99\x97q=\x11\xea-\x81\x99\x97q=\x11\xea-\x81\x99\x97q=\x11\xea-\x81\x99\x97q=\x11\xea-\x81\x99\x97q=\x11\xea-\x81\x99\x97q=\x11\xea-\x81\x99\x97q=\x11\xea-\x81\x99\x97q=\x11\xea-\x81\x99\x97q=\x11\xea-\x81\x99\x97q=\x11\xea-\x81\x99\x97q=\x11\xea-\x81\x99\x97q=\x11\xea-\x81\x99\x97q=\x11\xea-\x81\x99\x97q=\x11\xea-\x81\x99\x97q=\x11\xea-\x81\x99\x97q=\x11\xea-\x81\x99\x97q=\x11\xea-\x81\x99\x97q=\x11\xea-\x81\x99\x97q=\x11\xea-\x81\x99\x97q=\x11\xea-\x81\x99\x97q=\x11\xea-\x81\x99\x97q=\x11\xea-\x81\x99\x97q=\x11\xea-\x81\x99\x97q=\x11\xea-\x81\x99\x97q=\x11\xea-\x81\x99\x97q=\x11\xea-\x81\x99\x97q=\x11\xea-\x81\x99\x97q=\x11\xea-\x81\x99\x97q=\x11\xea-\x81\x99\x97q=\x11\xea-\x81\x99\x97q='
tbsS'mooring_diameter'
p86
g32
(g33
S'l\xfaH\x1e\xf6\xc0\xd0?'
tRp87
sS'hub_mass'
p88
F105520
sS'cab1CR'
p89
F185.88900000000001
sS'cd_usr'
p90
Finf
sS'main_buoyancy_tank_height'
p91
g32
(g33
S'\xf3\x91(\xe0a+%@'
tRp92
sS'buryDepth'
p93
F2
sS'nac_I'
p94
g8
(g9
(I0
tS'b'
tRp95
(I1
(I6
tg49
I00
S'\x00\x00\x00`\xb4[\\A\x00\x00\x00\x8e\x82\ngA\x00\x00\x00\x8e\x82\ngA\x00\x00\x00\x00\x00\x00\x00\x00\x00\x00\x00\x00\x00\x00\x00\x00\x00\x00\x00\x00\x00\x00\x00\x00'
tbsS'monoFasten'
p96
F12
sS'tilt'
p97
F6
sS'nSector'
p98
I4
sS'offset_buoyancy_tank_location'
p99
F0
sS'tower_wall_thickness'
p100
g8
(g9
(I0
tS'b'
tRp101
(I1
(I3
tg12
I00
S'\x90\xebQ\xb8\x1e\x85\xd3?\x90\xebQ\xb8\x1e\x85\xd3?\x90\xebQ\xb8\x1e\x85\xd3?'
tbsS'offshore'
p102
I01
sS'substructure'
p103
I2
sS'interest_during_construction'
p104
F0.080000000000000002
sS'offset_stiffener_flange_thickness'
p105
g8
(g9
(I0
tS'b'
tRp106
(I1
(I4
tg12
I00
S'{\x14\xaeG\xe1z\x94?{\x14\xaeG\xe1z\x94?{\x14\xaeG\xe1z\x94?{\x14\xaeG\xe1z\x94?'
tbsS'placeMP'
p107
F3
sS'hubFraction'
p108
F0.023784901758014475
sS'feedStudy'
p109
F10000000
sS'preFEEDStudy'
p110
F5000000
sS'cableOptimizer'
p111
I00
sS'platforms_mass_cost_coeff'
p112
F8.6999999999999993
sS'hvac_mass_cost_coeff'
p113
F163.94999999999999
sS'upper_attachment_pontoons_int'
p114
I1
sS'nepaEisMet'
p115
F2000000
sS'yaw_mass_cost_coeff'
p116
F11.01
sS'subsTopFab'
p117
F14500
sS'dummy_mass'
p118
F9.9999999999999998e-13
sS'elec_connec_machine_rating_cost_coeff'
p119
F40
sS'fixed_charge_rate'
p120
F0.12
sS'water_viscosity'
p121
F0.00088999999999999995
sS'spMoorCon'
p122
F20
sS'wind_reference_height'
p123
F119
sS'outfitting_cost_rate'
p124
F1.6500000000000001
sS'air_viscosity'
p125
F1.8099999999999999e-05
sS'shape_parameter'
p126
F0
sS'prepSemi'
p127
F12
sS'prepTow'
p128
F12
sS'control_Vout'
p129
F25
sS'max_taper_ratio'
p130
F0.40000000000000002
sS'hub_profitMultiplier'
p131
F0
sS'tower_overheadCostMultiplier'
p132
F0
sS'platforms_mass'
p133
F1000
sS'socEconStudyProj'
p134
F200000
sS'gust_stddev'
p135
I3
sS'boltRotor'
p136
F7
sS'wave_period_range_high'
p137
F20
sS'vs_electronics_mass'
p138
F1000
sS'inspectClear'
p139
F2
sS'teT_in'
p140
g8
(g9
(I0
tS'b'
tRp141
(I1
(I5
tg49
I00
S'\xf4(\xfb\x97\x18\x81\xa5?\xad\xb1B\x13!\x8a\xb0?\xaf\xbf\xedj\xe1\xd6\xab?Y\xc3\xb4`\x17}\x90?\xe24"\xc9\xe3Gl?'
tbsS'morison_mass_coefficient'
p142
F2
sS'seaSpreadMob'
p143
F4500000
sS'wind_bottom_height'
p144
F0
sS'wave_period_range_low'
p145
F2
sS'stateLease'
p146
F250000
sS'offset_permanent_ballast_height'
p147
F0.10000000000000001
sS'ssMoorCheck'
p148
F12
sS'main_stiffener_spacing'
p149
g8
(g9
(I0
tS'b'
tRp150
(I1
(I4
tg12
I00
S'\xdb\xb6Ds\xb4c\x17@\xdb\xb6Ds\xb4c\x17@\xdb\xb6Ds\xb4c\x17@\xdb\xb6Ds\xb4c\x17@'
tbsS'tower_outer_diameter'
p151
g8
(g9
(I0
tS'b'
tRp152
(I1
(I4
tg12
I00
S'\x00\x00\x00\x00\x00\x00"@\x00\x00\x00\x00\x00\x00\x1d@\x00\x00\x00\x00\x00\x00\x1d@\x00\x00\x00\x00\x00\x00\x16@'
tbsS'conOpPlan'
p153
F1000000
sS'outfitting_mass_fraction'
p154
F0.059999999999999998
sS'capital_cost_year_2'
p155
F0.10000000000000001
sS'capital_cost_year_3'
p156
F0.10000000000000001
sS'capital_cost_year_0'
p157
F0.20000000000000001
sS'capital_cost_year_1'
p158
F0.59999999999999998
sS'G'
F79300000000
sS'fairlead_location'
p159
g32
(g33
S'-\xb8\x0c\x84\x05\xe9\xb4?'
tRp160
sS'max_offset'
p161
F100
sS'control_minOmega'
p162
F6
sS'prepGripperMono'
p163
F1.5
sS'cabTerm'
p164
F5.5
sS'workSpace'
p165
F2000000
sS'main_bulkhead_thickness'
p166
g8
(g9
(I0
tS'b'
tRp167
(I1
(I5
tg11
(S'f8'
I0
I1
tRp168
(I3
S'<'
NNNI-1
I-1
I0
tbI00
S'\x9a\x99\x99\x99\x99\x99\xa9?\x9a\x99\x99\x99\x99\x99\xa9?\x00\x00\x00\x00\x00\x00\x00\x00\x00\x00\x00\x00\x00\x00\x00\x00\x9a\x99\x99\x99\x99\x99\xa9?'
tbsS'vesselPosMono'
p169
F3
sS'boltBlade1'
p170
F3.5
sS'groutTP'
p171
F8
sS'boltBlade2'
p172
F3.5
sS'wind_beta'
p173
F0
sS'landConstruct'
p174
F7
sS'subsJackCR'
p175
F6250
sS'tiploss'
p176
I01
sS'hub_overheadCostMultiplier'
p177
F0
sS'control_pitch'
p178
F0
sS'azimuth_extreme'
p179
F0
sS'prepSpar'
p180
F18
sS'number_install_seasons'
p181
F1
sS'transformer_mass_cost_coeff'
p182
F26.5
sS'turbine_class'
p183
I0
sS'distInterCon'
p184
F3
sS'rivsnHarbsAct'
p185
F100000
sS'navStudyMet'
p186
F500000
sS'jackFasten'
p187
F20
sS'coastZoneManAct'
p188
F100000
sS'distPtoA'
p189
F90
sS'saPlan'
p190
F500000
sS'nCrane1000'
p191
F0
sS'bioResStudyMet'
p192
F1500000
sS'procurement_contingency'
p193
F0.050000000000000003
sS'jpileCR'
p194
F2250
sS'metTowCR'
p195
F11518
sS'jlatticeCR'
p196
F4680
sS'outer_cross_pontoons_int'
p197
I1
sS'water_depth'
p198
F320
sS'control_tsr'
p199
F10.58
sS'VfactorPC'
p200
F0.69999999999999996
sS'levJack'
p201
F24
sS'pwrFac'
p202
F0.94999999999999996
sS'placeJack'
p203
F12
sS'upper_ring_pontoons_int'
p204
I1
sS'main_stiffener_web_thickness'
p205
g8
(g9
(I0
tS'b'
tRp206
(I1
(I4
tg12
I00
S'A\xe0\x940\xf9\xff\xdf?A\xe0\x940\xf9\xff\xdf?A\xe0\x940\xf9\xff\xdf?A\xe0\x940\xf9\xff\xdf?'
tbsS'endSpecAct'
p207
F500000
sS'AEP_loss_factor'
p208
F1
sS'prepHamJack'
p209
F2
sS'water_density'
p210
F1025
sS'arrayX'
p211
F9
sS'expSubsInterCR'
p212
F57500
sS'min_diameter_thickness_ratio'
p213
F120
sS'offset_wall_thickness'
p214
g8
(g9
(I0
tS'b'
tRp215
(I1
(I4
tg12
I00
S'\xb8\x1e\x85\xebQ\xb8\xae?\xb8\x1e\x85\xebQ\xb8\xae?\xb8\x1e\x85\xebQ\xb8\xae?\xb8\x1e\x85\xebQ\xb8\xae?'
tbsS'blade_mass_cost_coeff'
p216
F13.08
sS'turbFasten'
p217
F8
sS'hub_transportMultiplier'
p218
F0
sS'pitch_system_mass_cost_coeff'
p219
F22.91
sS'upendSpar'
p220
F36
sS'hub_I'
p221
g8
(g9
(I0
tS'b'
tRp222
(I1
(I6
tg49
I00
S'\x9eV\xe4\xeaZ\xe2\x13AGl\x9d\xa5\xf1\xda\x08AGl\x9d\xa5\xf1\xda\x08A\x00\x00\x00\x00\x00\x00\x00\x00\x00\x00\x00\x00\x00\x00\x00\x00\x00\x00\x00\x00\x00\x00\x00\x00'
tbsS'expCurrRating'
p223
F530
sS'turbulence_class'
p224
I1
sS'cover_mass_cost_coeff'
p225
F7.6100000000000003
sS'main_pontoon_attach_lower'
p226
F0.10000000000000001
sS'entranceExitRate'
p227
F0.52500000000000002
sS'lss_mass_cost_coeff'
p228
F12.6
sS'exCabFac'
p229
F0.10000000000000001
sS'moorSurvey'
p230
F4
sS'hub_height'
p231
F149
sS'offset_stiffener_web_height'
p232
g8
(g9
(I0
tS'b'
tRp233
(I1
(I4
tg12
I00
S'\x9a\x99\x99\x99\x99\x99\xb9?\x9a\x99\x99\x99\x99\x99\xb9?\x9a\x99\x99\x99\x99\x99\xb9?\x9a\x99\x99\x99\x99\x99\xb9?'
tbsS'cabPullIn'
p234
F5.5
sS'craneMobDemob'
p235
F150000
sS'bladeLength'
p236
F96.700000000000003
sS'placeTop'
p237
F24
sS'discount_rate'
p238
F0.070000000000000007
sS'presweep_tip'
p239
F0
sS'gamma_fatigue'
p240
F1.7550000000000001
sS'tower_transportMultiplier'
p241
F0
sS'mptCR'
p242
F12500
sS'winchDR'
p243
F1000
sS'instScour'
p244
F6
sS'r_max_chord'
p245
g32
(g33
S'\x9b\xe6\x1d\xa7\xe8H\xce?'
tRp246
sS'ssMoorCon'
p247
F22
sS'bioResStudyProj'
p248
F500000
sS'placeTemplate'
p249
F4
sS'elecWork'
p250
F25000
sS'compRacks'
p251
F1000000
sS'distShore'
p252
F90
sS'bulkhead_mass_factor'
p253
F1
sS'elecCont'
p254
F0.29999999999999999
sS'cabSurveyCR'
p255
F240
sS'ssHeaveCR'
p256
F6250
sS'highVoltSG'
p257
F950000
sS'pitch_system_mass'
p258
F17004
sS'main_outer_diameter'
p259
g8
(g9
(I0
tS'b'
tRp260
(I1
(I5
tg17
I00
S'\xf4\x8a\xcb9\x08!\x1e@\x01V\xb2\x1b\x80\x05#@\xb8\xf4Qi\x8f\xd61@\x16\xbb\x11\x03{P)@p\t@\xdcM\x08\x1d@'
tbsS'nacelleL'
p261
F-inf
sS'cab2TurbInterCR'
p262
F8615
sS'hamRate'
p263
F20
sS'nacelle_overheadCostMultiplier'
p264
F0
sS'crane1000DR'
p265
F8000
sS'nacelle_profitMultiplier'
p266
F0
sS'nacelleW'
p267
F-inf
sS'main_pontoon_attach_upper'
p268
F1
sS'tower_buckling_length'
p269
F30
sS'substructCont'
p270
F0.29999999999999999
sS'control_Vin'
p271
F4
sS'turbCont'
p272
F0.29999999999999999
sS'wave_period'
p273
F9.8000000000000007
sS'prepHamMono'
p274
F2
sS'wakerotation'
p275
I01
sS'tower_profitMultiplier'
p276
F0
sS'main_stiffener_flange_thickness'
p277
g8
(g9
(I0
tS'b'
tRp278
(I1
(I4
tg12
I00
S'\x8e\xf6<\xb6M\x8f\xda?\x8e\xf6<\xb6M\x8f\xda?\x8e\xf6<\xb6M\x8f\xda?\x8e\xf6<\xb6M\x8f\xda?'
tbsS'nepaEisProj'
p279
F5000000
sS'pontoon_wall_thickness'
p280
F0.017500000000000002
sS'cabDrillCR'
p281
F3200
sS'physResStudyMet'
p282
F1500000
sS'main_buoyancy_tank_location'
p283
g32
(g33
S"+\\'KVK\xd1?"
tRp284
sS'strain_ult_spar'
p285
F0.01
sS'expCabCR'
p286
F495.411
sS'base_hardware_cost_coeff'
p287
F0.69999999999999996
sS'annual_opex'
p288
F700000
sS'hub_cm'
p289
g8
(g9
(I0
tS'b'
tRp290
(I1
(I3
tg49
I00
S'ffffff\x1c\xc0\x00\x00\x00\x00\x00\x00\x00\x00\x00\x00\x00\x00\x00\x00\x06@'
tbsS'marMamProtAct'
p291
F500000
sS'sparT_in'
p292
g8
(g9
(I0
tS'b'
tRp293
(I1
(I5
tg49
I00
S'Xh\x82\xe1[b\xa0?\xfc\x8d\xa5=\x19\xa0\xa9?\xdcC!\x10\xd0\xcc\xb5?k\xcbD\xc9\xbc\xe8\xb3?~&\x13\xd1\x020\x88?'
tbsS'backUpGen'
p294
F1000000
sS'gamma_m'
p295
F1.3
sS'gamma_n'
p296
F1
sS'number_of_offset_columns'
p297
I0
sS'yaw'
p298
F0
sS'gamma_f'
p299
F1.3500000000000001
sS'offset_freeboard'
p300
F12
sS'gamma_b'
p301
F1.1000000000000001
sS'bearings_mass_cost_coeff'
p302
F6.3499999999999996
sS'pileSpreadMob'
p303
F750000
sS'ballast_cost_rate'
p304
F0.10000000000000001
sS'yaw_mass'
p305
F11878.24
sS'number_of_turbines'
p306
I20
sS'downwind'
p307
I00
sS'spinner_mass'
p308
F1810.5
sS'main_buoyancy_tank_diameter'
p309
g32
(g33
S'fN\x95\xa1@#\x00@'
tRp310
sS'crane_cost'
p311
F0
sS'turbine_transportMultiplier'
p312
F0
sS'ssBall'
p313
F6
sS'vesselPosTurb'
p314
F2
sS'deaFixLeng'
p315
F0
sS'wave_height'
p316
F10.800000000000001
sS'cleanWatAct404'
p317
F100000
sS'anchor'
p318
I1
sS'estEnMFac'
p319
F0.040000000000000001
sS'gearbox_mass_cost_coeff'
p320
F17.399999999999999
sS'chord_in'
p321
g8
(g9
(I0
tS'b'
tRp322
(I1
(I5
tg49
I00
S'gfffff\x12@\rnk\x0b\xcf\xab\x12@r\xe0\xd5rg\xf6\x17@t\xc8\xb4\xe7\x15\x10\x08@ \r\xe0-\x90\xa0\xb8?'
tbsS'precurve_in'
p323
g8
(g9
(I0
tS'b'
tRp324
(I1
(I5
tg49
I00
S'\x00\x00\x00\x00\x00\x00\x00\x80\x97\xcc\xb1\xbc\xab\x1e\xa0\xbf\x11\x02\xf2%Tp\xc6\xbf\xc5\xd5\x86\xdf>1\xeb\xbfU\x84\x9b\x8c*\xd3\x18\xc0'
tbsS'catLengFac'
p325
F0.040000000000000001
sS'Myb_damage'
p326
g8
(g9
(I0
tS'b'
tRp327
(I1
(I51
tg49
I00
S'\x11\xea-\x81\x99\x97q=\x11\xea-\x81\x99\x97q=\x11\xea-\x81\x99\x97q=\x11\xea-\x81\x99\x97q=\x11\xea-\x81\x99\x97q=\x11\xea-\x81\x99\x97q=\x11\xea-\x81\x99\x97q=\x11\xea-\x81\x99\x97q=\x11\xea-\x81\x99\x97q=\x11\xea-\x81\x99\x97q=\x11\xea-\x81\x99\x97q=\x11\xea-\x81\x99\x97q=\x11\xea-\x81\x99\x97q=\x11\xea-\x81\x99\x97q=\x11\xea-\x81\x99\x97q=\x11\xea-\x81\x99\x97q=\x11\xea-\x81\x99\x97q=\x11\xea-\x81\x99\x97q=\x11\xea-\x81\x99\x97q=\x11\xea-\x81\x99\x97q=\x11\xea-\x81\x99\x97q=\x11\xea-\x81\x99\x97q=\x11\xea-\x81\x99\x97q=\x11\xea-\x81\x99\x97q=\x11\xea-\x81\x99\x97q=\x11\xea-\x81\x99\x97q=\x11\xea-\x81\x99\x97q=\x11\xea-\x81\x99\x97q=\x11\xea-\x81\x99\x97q=\x11\xea-\x81\x99\x97q=\x11\xea-\x81\x99\x97q=\x11\xea-\x81\x99\x97q=\x11\xea-\x81\x99\x97q=\x11\xea-\x81\x99\x97q=\x11\xea-\x81\x99\x97q=\x11\xea-\x81\x99\x97q=\x11\xea-\x81\x99\x97q=\x11\xea-\x81\x99\x97q=\x11\xea-\x81\x99\x97q=\x11\xea-\x81\x99\x97q=\x11\xea-\x81\x99\x97q=\x11\xea-\x81\x99\x97q=\x11\xea-\x81\x99\x97q=\x11\xea-\x81\x99\x97q=\x11\xea-\x81\x99\x97q=\x11\xea-\x81\x99\x97q=\x11\xea-\x81\x99\x97q=\x11\xea-\x81\x99\x97q=\x11\xea-\x81\x99\x97q=\x11\xea-\x81\x99\x97q=\x11\xea-\x81\x99\x97q='
tbsS'offset_buoyancy_tank_height'
p328
F5
sS'offset_stiffener_spacing'
p329
g8
(g9
(I0
tS'b'
tRp330
(I1
(I4
tg12
I00
S'\x9a\x99\x99\x99\x99\x99\xd9?\x9a\x99\x99\x99\x99\x99\xd9?\x9a\x99\x99\x99\x99\x99\xd9?\x9a\x99\x99\x99\x99\x99\xd9?'
tbsS'gamma_freq'
p331
F1.1000000000000001
sS'hss_mass'
p332
F1492.45
sS'painting_cost_rate'
p333
F14.4
sS'placeTP'
p334
F3
sS'nac_mass'
p335
F297506.17875000002
sS'buryRate'
p336
F125
sS'max_survival_heel'
p337
F15
sS'shearExp'
p338
F0.11
sS'outConShelfLease'
p339
F1000000
sS'addLocPerm'
p340
F200000
sS'project_lifetime'
p341
F20
sS'hvac_mass'
p342
F1000
sS'offset_stiffener_flange_width'
p343
g8
(g9
(I0
tS'b'
tRp344
(I1
(I4
tg12
I00
S'\x9a\x99\x99\x99\x99\x99\xb9?\x9a\x99\x99\x99\x99\x99\xb9?\x9a\x99\x99\x99\x99\x99\xb9?\x9a\x99\x99\x99\x99\x99\xb9?'
tbsS'nCrane600'
p345
F0
sS'installStrategy'
p346
I0
sS'distPort'
p347
F90
sS'fairlead_support_wall_thickness'
p348
g32
(g33
S'\xdb\x89\x90\x06\x1b\x02R?'
tRp349
sS'removeHamJack'
p350
F4
sS'labor_cost_rate'
p351
F1
sS'mtransCR'
p352
F3230
sS'boltNacelle1'
p353
F7
sS'mpileCR'
p354
F2250
sS'boltNacelle3'
p355
F7
sS'boltNacelle2'
p356
F7
sS'hubloss'
p357
I01
sS'cab1TurbInterCR'
p358
F8410
sS'bearing_number'
p359
I2
sS'offset_stiffener_web_thickness'
p360
g8
(g9
(I0
tS'b'
tRp361
(I1
(I4
tg12
I00
S'{\x14\xaeG\xe1z\xa4?{\x14\xaeG\xe1z\xa4?{\x14\xaeG\xe1z\xa4?{\x14\xaeG\xe1z\xa4?'
tbsS'loading'
p362
S'hydrostatic'
p363
sS'lower_ring_pontoons_int'
p364
I1
sS'main_stiffener_web_height'
p365
g8
(g9
(I0
tS'b'
tRp366
(I1
(I4
tg12
I00
S'\xb7\x83\xba\x0fP\xf2\xef?\xb7\x83\xba\x0fP\xf2\xef?\xb7\x83\xba\x0fP\xf2\xef?\xb7\x83\xba\x0fP\xf2\xef?'
tbsS'expVoltage'
p367
F220
sS'controls_cost_base'
p368
g8
(g9
(I0
tS'b'
tRp369
(I1
(I2
tg11
(S'f8'
I0
I1
tRp370
(I3
S'<'
NNNI-1
I-1
I0
tbI00
S'\x00\x00\x00\x00\x00\x17\xe1@\x00\x00\x00\x00\x80K\xeb@'
tbsS'fairlead_offset_from_shell'
p371
g32
(g33
S'X1!\xfeS :@'
tRp372
sS'rna_weightM'
p373
I01
sS'shuntCR'
p374
F35000
sS'dockRate'
p375
F3000
sS'subsVessPos'
p376
F6
sS'civilWork'
p377
F40000
sS'towerInstallMethod'
p378
I0
sS'migBirdAct'
p379
F500000
sS'max_draft'
p380
F35
sS'theta_in'
p381
g8
(g9
(I0
tS'b'
tRp382
(I1
(I5
tg49
I00
S'\x00\x00\x00\x00\x00\x00-@9\xb4\xc8v\xbe\x9f*@L7\x89A`\xe5\x1a@<r\x8e\x14\xc5X\xa1\xbf\x84l\xe7\xfb\xa9\xf1\xa2\xbf'
tbsS'cabDrillDist'
p383
F500
sS'topAssemblyFac'
p384
F0.074999999999999997
sS'fairlead_support_outer_diameter'
p385
g32
(g33
S'h?Z\xae\xdf"#@'
tRp386
sS'interConVolt'
p387
F345
sS'offset_bulkhead_thickness'
p388
g8
(g9
(I0
tS'b'
tRp389
(I1
(I5
tg168
I00
S'\x9a\x99\x99\x99\x99\x99\xa9?\x9a\x99\x99\x99\x99\x99\xa9?\x00\x00\x00\x00\x00\x00\x00\x00\x00\x00\x00\x00\x00\x00\x00\x00\x9a\x99\x99\x99\x99\x99\xa9?'
tbsS'controls_esc'
p390
F1.5
sS'm_damage'
p391
F10
sS'shell_mass_factor'
p392
F1
sS'tower_mass_cost_coeff'
p393
F3.2000000000000002
sS'nBlades'
p394
I3
sS'expCabMass'
p395
F71.900000000000006
sS'subsPileCR'
p396
F2250
sS'wharfRate'
p397
F2.75
sS'Rhub'
p398
F1.125
sS'vs_electronics_mass_cost_coeff'
p399
F26.5
sS'tower_outfitting_factor'
p400
F1.0700000000000001
sS'scourMat'
p401
F250000
sS'laydownCR'
p402
F0.25
sS'hub_assemblyCostMultiplier'
p403
F0
sS'anchor_type'
p404
S'suctionpile'
p405
sS'jlatticeA'
p406
F26
sS'drivetrainType'
p407
I0
sS'pitch_extreme'
p408
F0
sS'main_wall_thickness'
p409
g8
(g9
(I0
tS'b'
tRp410
(I1
(I4
tg12
I00
S'\xfe Uc\xc4_\xac?\xfe Uc\xc4_\xac?\xfe Uc\xc4_\xac?\xfe Uc\xc4_\xac?'
tbsS'mean_current_speed'
p411
F0
sS'nac_cm'
p412
g8
(g9
(I0
tS'b'
tRp413
(I1
(I3
tg49
I00
S'\x85\xebQ\xb8\x1e\x85\x05@\x00\x00\x00\x00\x00\x00\x00\x00333333\x03@'
tbsS'subsTopDes'
p414
F4500000
sS'moorLoadout'
p415
F5
sS'tower_section_height'
p416
g8
(g9
(I0
tS'b'
tRp417
(I1
(I3
tg12
I00
S'UUUUU\xd5C@UUUUU\xd5C@UUUUU\xd5C@'
tbsS'navStudyProj'
p418
F250000
sS'buryFac'
p419
F0.10000000000000001
sS'cab2CR'
p420
F202.78800000000001
sS'air_density'
p421
F1.198
sS'offset_section_height'
p422
g8
(g9
(I0
tS'b'
tRp423
(I1
(I4
tg78
I00
S'\x9a\x99\x99\x99\x99\x99\x19@\x9a\x99\x99\x99\x99\x99\x19@\x9a\x99\x99\x99\x99\x99)@\x9a\x99\x99\x99\x99\x99\x19@'
tbsS'strain_ult_te'
p424
F0.0050000000000000001
sS'turbine_overheadCostMultiplier'
p425
F0
sS'placePiles'
p426
F12
sS'main_permanent_ballast_height'
p427
g32
(g33
S'\xbc-SJ\xec\xa9\xba?'
tRp428
sS'diveTeamDR'
p429
F3200
sS'arrayY'
p430
F9
sS'bedplate_mass'
p431
F93090.600000000006
sS'mooring_line_length'
p432
g32
(g33
S'\x9d\xf2t$7\xdch@'
tRp433
sS'wind_reference_speed'
p434
F11
sS'control_maxOmega'
p435
F8.887659696962098
sS'crane'
p436
I00
sS'hub_mass_cost_coeff'
p437
F3.7999999999999998
sS'operational_heel'
p438
F6
sS'removeHamMono'
p439
F2
sS'connection_ratio_max'
p440
F0.25
sS'hss_mass_cost_coeff'
p441
F8.25
sS'spMoorCheck'
p442
F16
sS'spinner_mass_cost_coeff'
p443
F23
sS'pileSpreadDR'
p444
F2500
sS'lss_mass'
p445
F31257.299999999999
sS'mooring_lines_per_connection'
p446
g32
(g33
S'\x00\x00\x00\x00\x00\x00\x00@'
tRp447
sS'anchor_radius'
p448
g32
(g33
S'\xe2u\x88\xf6\\aE@'
tRp449
sS'pontoon_outer_diameter'
p450
F3.2000000000000002
sS'moorTimeFac'
p451
F0.0050000000000000001
sS'shorePullIn'
p452
F96
sS'natHisPresAct'
p453
F250000
sS'scrapVal'
p454
F0
sS'mooring_cost_rate'
p455
F1.1000000000000001
sS'bedplate_mass_cost_coeff'
p456
F4.5
sS'nu'
p457
F0.26000000000000001
sS'arrCab2Mass'
p458
F21.853999999999999
sS'E'
F200000000000
sS'cab2CurrRating'
p459
F340
sS'boltTower'
p460
F7
sS'cabLoadout'
p461
F14
sS'subsPullIn'
p462
F48
sS'vesselPosJack'
p463
F8
sS'nacelle_assemblyCostMultiplier'
p464
F0
sS'install_contingency'
p465
F0.29999999999999999
sS'mooring_type'
p466
S'nylon'
p467
sS'decomDiscRate'
p468
F0.029999999999999999
s(lp469
(lp470
S'fairlead_location'
p471
aF0
aF1
aa(lp472
S'fairlead_offset_from_shell'
p473
aF5
aF30
aa(lp474
S'fairlead_support_wall_thickness'
p475
aF0.001
aF1
aa(lp476
S'fairlead_support_outer_diameter'
p477
aF0.10000000000000001
aF10
aa(lp478
S'main_freeboard'
p479
aF0
aF50
aa(lp480
S'main_section_height'
p481
aF0.10000000000000001
aF50
aa(lp482
S'main_outer_diameter'
p483
aF2.1000000000000001
aF20
aa(lp484
S'main_wall_thickness'
p485
aF0.001
aF0.5
aa(lp486
S'main_buoyancy_tank_diameter'
p487
aF0
aF50
aa(lp488
S'main_buoyancy_tank_height'
p489
aF0
aF20
aa(lp490
S'main_buoyancy_tank_location'
p491
aF0
aF1
aa(lp492
S'mooring_line_length'
p493
aF10
aF300
aa(lp494
S'anchor_radius'
p495
aF20
aF100
aa(lp496
S'mooring_diameter'
p497
aF0.050000000000000003
aF5
aa(lp498
S'main_permanent_ballast_height'
p499
aF0.10000000000000001
aF50
aa(lp500
S'main_stiffener_web_height'
p501
aF0.01
aF1
aa(lp502
S'main_stiffener_web_thickness'
p503
aF0.001
aF0.5
aa(lp504
S'main_stiffener_flange_width'
p505
aF0.01
aF5
aa(lp506
S'main_stiffener_flange_thickness'
p507
aF0.001
aF0.5
aa(lp508
S'main_stiffener_spacing'
p509
aF0.10000000000000001
aF100
aa(lp510
(lp511
S'tow.height_constraint'
p512
aF-0.01
aF0.01
aNaa(lp513
S'main.draft'
p514
aF0
aF35
aNaa(lp515
S'main.draft_margin'
p516
aF0
aF1
aNaa(lp517
S'main.wave_height_freeboard_ratio'
p518
aNaF1
aNaa(lp519
S'main.manufacturability'
p520
aF0
aNaNaa(lp521
S'main.weldability'
p522
aNaF0
aNaa(lp523
S'tower_transition_buffer'
p524
aF-1
aF1
aNaa(lp525
S'nacelle_transition_buffer'
p526
aF0
aNaNaa(lp527
S'axial_unity'
p528
aF0
aF1
aNaa(lp529
S'mooring_length_max'
p530
aNaF1
aNaa(lp531
S'main.flange_spacing_ratio'
p532
aNaF1
aNaa(lp533
S'main.stiffener_radius_ratio'
p534
aNaF0.5
aNaa(lp535
S'main.flange_compactness'
p536
aF1
aNaNaa(lp537
S'main.web_compactness'
p538
aF1
aNaNaa(lp539
S'main.axial_local_api'
p540
aNaF1
aNaa(lp541
S'main.axial_general_api'
p542
aNaF1
aNaa(lp543
S'main.external_local_api'
p544
aNaF1
aNaa(lp545
S'main.external_general_api'
p546
aNaF1
aNaa(lp547
S'tower_stress'
p548
aNaF1
aNaa(lp549
S'tower_shell_buckling'
p550
aNaF1
aNaa(lp551
S'tower_global_buckling'
p552
aNaF1
aNaa(lp553
S'main_stress'
p554
aNaF1
aNaa(lp555
S'main_shell_buckling'
p556
aNaF1
aNaa(lp557
S'main_global_buckling'
p558
aNaF1
aNaa(lp559
S'variable_ballast_height_ratio'
p560
aF0
aF1
aNaa(lp561
S'variable_ballast_mass'
p562
aF0
aNaNaa(lp563
S'offset_force_ratio'
p564
aNaF1
aNaa(lp565
S'heel_moment_ratio'
p566
aNaF1
aNaa(lp567
S'period_margin_low'
p568
aNaF1
aNaa(lp569
S'period_margin_high'
p570
aF1
aNaNaa(lp571
S'Pn_margin'
p572
aNaF1
aNaa(lp573
S'P1_margin'
p574
aNaF1
aNaa(lp575
S'Pn_margin_cfem'
p576
aNaF1
aNaa(lp577
S'P1_margin_cfem'
p578
aNaF1
aNaa(lp579
S'rotor_strain_sparU'
p580
aF-1
aNaNaa(lp581
S'rotor_strain_sparL'
p582
aNaF1
aNaa(lp583
S'rotor_strain_teU'
p584
aF-1
aNaNaa(lp585
S'rotor_strain_teL'
p586
aNaF1
aNaa(lp587
S'rotor_buckling_sparU'
p588
aNaF1
aNaa(lp589
S'rotor_buckling_sparL'
p590
aNaF1
aNaa(lp591
S'rotor_buckling_teU'
p592
aNaF1
aNaa(lp593
S'rotor_buckling_teL'
p594
aNaF1
aNaa(lp595
S'rotor_damage_sparU'
p596
aNaF0
aNaa(lp597
S'rotor_damage_sparL'
p598
aNaF0
aNaa(lp599
S'rotor_damage_teU'
p600
aNaF0
aNaa(lp601
S'rotor_damage_teL'
p602
aNaF0
aNaa(lp603
S'ground_clearance'
p604
aF20
aNaNaa(S'structural_mass'
p605
F9.9999999999999995e-07
tp606
S'NM'
p607
t.