((dp1
S'rna_moment'
p2
cnumpy.core.multiarray
_reconstruct
p3
(cnumpy
ndarray
p4
(I0
tS'b'
tRp5
(I1
(I3
tcnumpy
dtype
p6
(S'f8'
I0
I1
tRp7
(I3
S'<'
NNNI-1
I-1
I0
tbI00
S'\xec*\xda\xf3O\xe7{A\xf8\xedw\x9a\x0e\xff\rA\xf1\x80S\xcaVvG\xc1'
tbsS'offset_permanent_ballast_height'
p8
F0.10000000000000001
sS'rna_force'
p9
g3
(g4
(I0
tS'b'
tRp10
(I1
(I3
tg7
I00
S'\xcd\xcc\xccLc\x1e@A\x00\x00\x00\x00\x00\x00\x00\x00\xc3\xf5(\xec!\xffY\xc1'
tbsS'gamma_fatigue'
p11
F1.7549999999999999
sS'loading'
p12
S'hydrostatic'
p13
sS'lower_ring_pontoons_int'
p14
I0
sS'main_stiffener_web_height'
p15
g3
(g4
(I0
tS'b'
tRp16
(I1
(I4
tg6
(S'f8'
I0
I1
tRp17
(I3
S'<'
NNNI-1
I-1
I0
tbI00
S'Uu\xca\x82.n\xcb?\xec5=&\xba\xc8\xbc?\xda\xda*\\\xed\xd5\x84?\x1a\xe0\xfc\xd0V\x15\xc8?'
tbsS'zref'
p18
F119
sS'outfitting_cost_rate'
p19
F1.6500000000000001
sS'offset_buoyancy_tank_location'
p20
F0
sS'main_stiffener_flange_width'
p21
g3
(g4
(I0
tS'b'
tRp22
(I1
(I4
tg17
I00
S'{\x14\xaeG\xe1z\x84?\xb8nw\x98\xa2T\xed?H5\xab\x168\xb3\x10@7\x8a\xb1X\x80\xd3\xcd?'
tbsS'max_taper_ratio'
p23
F0.40000000000000002
sS'main_stiffener_spacing'
p24
g3
(g4
(I0
tS'b'
tRp25
(I1
(I4
tg17
I00
S'\xa8P\\\xbe\xde\xa0\x12@\xfeD\x1cK\xdb\xd40@\xdaV\x1e\xde\x19\xf55@\xebe\xb6\xba\x1c\xfb$@'
tbsS'max_draft'
p26
F200
sS'T'
F9.8000000000000007
sS'bulkhead_mass_factor'
p27
F1
sS'wave_period_range_high'
p28
F20
sS'cross_attachment_pontoons_int'
p29
I0
sS'outfitting_mass_fraction'
p30
F0.059999999999999998
sS'offset_buoyancy_tank_diameter'
p31
F24
sS'main_outer_diameter'
p32
g3
(g4
(I0
tS'b'
tRp33
(I1
(I5
tg17
I00
S'\xde\xce]T\xb0!/@9\x7f\x93~\xa5\x1d!@r\x83\xb9\x9d\x1a\xd1,@\xb6q\xc5r\xf0\xad$@\xe0\xd6\xac\xb3\xf5\xe3&@'
tbsS'rna_I'
p34
g3
(g4
(I0
tS'b'
tRp35
(I1
(I6
tg7
I00
S'\x00\x00\x00.b\xf5\xa3A\x00\x00\x00\x08)"\x99A\x00\x00\x00\xf0\x10Q\x94A\x00\x00\x00\x00\x00\x00\x00\x00\xa4p=\n\x98x7A\x00\x00\x00\x00\x00\x00\x00\x00'
tbsS'main.windLoads.mu'
p36
F1.8099999999999999e-05
sS'fairlead_support_outer_diameter'
p37
cnumpy.core.multiarray
scalar
p38
(g17
S'\x9a\x99\x99\x99\x99\x99\xb9?'
tRp39
sS'offset_bulkhead_thickness'
p40
g3
(g4
(I0
tS'b'
tRp41
(I1
(I5
tg7
I00
S'\x9a\x99\x99\x99\x99\x99\xa9?\x9a\x99\x99\x99\x99\x99\xa9?\x00\x00\x00\x00\x00\x00\x00\x00\x00\x00\x00\x00\x00\x00\x00\x00\x9a\x99\x99\x99\x99\x99\xa9?'
tbsS'shell_mass_factor'
p42
F1
sS'main_pontoon_attach_upper'
p43
F1
sS'rna_mass'
p44
F449282.40530069917
sS'tower_buckling_length'
p45
F30
sS'Hs'
p46
F10.800000000000001
sS'main_freeboard'
p47
g38
(g17
S'\xe0\xa1\xf8\x8am\xf1+@'
tRp48
sS'Rhub'
p49
F2.2999999999999998
sS'material_density'
p50
F7850
sS'tower_outfitting_factor'
p51
F1.0700000000000001
sS'tower_outer_diameter'
p52
g3
(g4
(I0
tS'b'
tRp53
(I1
(I4
tg17
I00
S'|?B\x10\x14o"@\xf6\x11M\x98\xcfy @z\x04f\x15s\x11\x1f@\xb6\x95\xd2\xfa\xf8\xd6\x10@'
tbsS'anchor_type'
p54
S'suctionpile'
p55
sS'G'
F79300000000
sS'fairlead_location'
p56
g38
(g17
S'\xbc\x16T\x12`\x15\xd6?'
tRp57
sS'max_offset'
p58
F100
sS'max_survival_heel'
p59
F15
sS'main.waveLoads.mu'
p60
F0.00088999999999999995
sS'permanent_ballast_density'
p61
F4492
sS'z0'
p62
F0
sS'Uc'
p63
F0
sS'material_cost_rate'
p64
F1.1000000000000001
sS'pontoon_wall_thickness'
p65
F0.017500000000000002
sS'number_of_offset_columns'
p66
I0
sS'radius_to_offset_column'
p67
F28.867513459481287
sS'tower_section_height'
p68
g3
(g4
(I0
tS'b'
tRp69
(I1
(I3
tg17
I00
S'\x0c\xfc^\xbd\xf5]\xd7?\xfb\xa6\xd6\x99e\x80A@\xcc\xc9\xb0\xf0\xc4\xe9X@'
tbsS'main_buoyancy_tank_location'
p70
g38
(g17
S'7/\x92\x99\xd3\xc8\xe1?'
tRp71
sS'cm'
p72
F2
sS'main_stiffener_flange_thickness'
p73
g3
(g4
(I0
tS'b'
tRp74
(I1
(I4
tg17
I00
S'\xa27\xf3K\x8e\xff\xdf?\xe4t\xa3\xbc*\xbd\xb2?(1\xf5\xff\xff\xff\xdf?\x9a\xe3BeNR\x96?'
tbsS'hub_cm'
p75
g3
(g4
(I0
tS'b'
tRp76
(I1
(I3
tg7
I00
S'ffffff\x1c\xc0\x00\x00\x00\x00\x00\x00\x00\x00\x00\x00\x00\x00\x00\x00\x06@'
tbsS'mooring_diameter'
p77
g38
(g17
S'{\x14\xaeG\xe1z\x94?'
tRp78
sS'gamma_m'
p79
F1.1000000000000001
sS'gamma_n'
p80
F1
sS'offset_section_height'
p81
g3
(g4
(I0
tS'b'
tRp82
(I1
(I4
tg7
I00
S'\x00\x00\x00\x00\x00\x00 @\x00\x00\x00\x00\x00\x00 @\x00\x00\x00\x00\x00\x00 @\x00\x00\x00\x00\x00\x00 @'
tbsS'main_bulkhead_thickness'
p83
g3
(g4
(I0
tS'b'
tRp84
(I1
(I5
tg7
I00
S'\x9a\x99\x99\x99\x99\x99\xa9?\x9a\x99\x99\x99\x99\x99\xa9?\x00\x00\x00\x00\x00\x00\x00\x00\x00\x00\x00\x00\x00\x00\x00\x00\x9a\x99\x99\x99\x99\x99\xa9?'
tbsS'yaw'
p85
F0
sS'gamma_f'
p86
F1.3500000000000001
sS'offset_freeboard'
p87
F12
sS'gamma_b'
p88
F1.1000000000000001
sS'tip_position'
p89
g3
(g4
(I0
tS'b'
tRp90
(I1
(I3
tg7
I00
S'\x9c\xc4 \xb0rh\x0c\xc0\x00\x00\x00\x00\x00\x00\x00\x00\x1b/\xdd$\x06\x815@'
tbsS'z_offset'
p91
F0
sS'ballast_cost_rate'
p92
F0.10000000000000001
sS'number_of_mooring_connections'
p93
I3
sS'offset_stiffener_web_thickness'
p94
g3
(g4
(I0
tS'b'
tRp95
(I1
(I4
tg7
I00
S'{\x14\xaeG\xe1z\xa4?{\x14\xaeG\xe1z\xa4?{\x14\xaeG\xe1z\xa4?{\x14\xaeG\xe1z\xa4?'
tbsS'mooring_line_length'
p96
g38
(g17
S'\xc2-+\x15\x8c\xfc\x9b@'
tRp97
sS'downwind'
p98
I00
sS'outer_cross_pontoons_int'
p99
I0
sS'water_depth'
p100
F320
sS'main_buoyancy_tank_diameter'
p101
g38
(g17
S'>\xd0g\xc9\xe2\x0f)@'
tRp102
sS'column_mass_factor'
p103
F1.05
sS'operational_heel'
p104
F6
sS'offset_outer_diameter'
p105
g3
(g4
(I0
tS'b'
tRp106
(I1
(I5
tg7
I00
S'\x00\x00\x00\x00\x00\x00(@\x00\x00\x00\x00\x00\x00(@\x00\x00\x00\x00\x00\x00(@\x00\x00\x00\x00\x00\x00(@\x00\x00\x00\x00\x00\x00(@'
tbsS'yield_stress'
p107
F345000000
sS'main_wall_thickness'
p108
g3
(g4
(I0
tS'b'
tRp109
(I1
(I4
tg17
I00
S'\x98\x1a\x8a\xb0 \x1c\xad?,g+K\xe37\xb3?wr\xb62\xb8\xc4\xad?\xa6\xb9\x9d\xd6\xfbc\xa3?'
tbsS'connection_ratio_max'
p110
F0.25
sS'ring_mass_factor'
p111
F1
sS'upper_ring_pontoons_int'
p112
I0
sS'main_stiffener_web_thickness'
p113
g3
(g4
(I0
tS'b'
tRp114
(I1
(I4
tg17
I00
S'\xae/\xba\x126\x11\x87?\xcf\x9e\x1dU\xbd s?\x98\xab\xc8\xaa.u\xcd?Vd!\xc9\xbc\xee\xb3?'
tbsS'lower_attachment_pontoons_int'
p115
I0
sS'water_density'
p116
F1025
sS'main_buoyancy_tank_height'
p117
g38
(g17
S'\x9c\xa0\x85\xfb\xe2\x17&@'
tRp118
sS'cd_usr'
p119
Finf
sS'min_diameter_thickness_ratio'
p120
F120
sS'offset_wall_thickness'
p121
g3
(g4
(I0
tS'b'
tRp122
(I1
(I4
tg7
I00
S'\xb8\x1e\x85\xebQ\xb8\xae?\xb8\x1e\x85\xebQ\xb8\xae?\xb8\x1e\x85\xebQ\xb8\xae?\xb8\x1e\x85\xebQ\xb8\xae?'
tbsS'offset_buoyancy_tank_height'
p123
F5
sS'main_section_height'
p124
g3
(g4
(I0
tS'b'
tRp125
(I1
(I4
tg17
I00
S"\xb6c\xd0\xa2Q\xc8;@y\x06\x00\xdd\xc4'B@\xcb*I[\xca7&@\xd0*\x96\xd3\xe1\xf94@"
tbsS'Uref'
p126
F11
sS'anchor_radius'
p127
g38
(g17
S'lo[\x83\x8eE\x9a@'
tRp128
sS'rna_cg'
p129
g3
(g4
(I0
tS'b'
tRp130
(I1
(I3
tg7
I00
S'\x1e\x01\x16\xd8\xe7Z\xe3\xbf\x00\x00\x00\x00\x00\x00\x00\x00\x0e\xb4L\xd0p$\x04@'
tbsS'pontoon_outer_diameter'
p131
F3.2000000000000002
sS'fairlead_support_wall_thickness'
p132
g38
(g17
S'\xfc\xa9\xf1\xd2MbP?'
tRp133
sS'fairlead_offset_from_shell'
p134
F0.5
sS'tower_wall_thickness'
p135
g3
(g4
(I0
tS'b'
tRp136
(I1
(I3
tg17
I00
S'\xee\xd5\xf9\xe5k\xc8\xa3?\x00U~\x13O\xdd\xa1?\xdej\xc9\xa3\xbf\xaf\x9b?'
tbsS'mooring_cost_rate'
p137
F1.1000000000000001
sS'painting_cost_rate'
p138
F14.4
sS'nu'
p139
F0.26000000000000001
sS'E'
F200000000000
sS'wave_period_range_low'
p140
F2
sS'main_pontoon_attach_lower'
p141
F0.10000000000000001
sS'offset_stiffener_flange_thickness'
p142
g3
(g4
(I0
tS'b'
tRp143
(I1
(I4
tg7
I00
S'{\x14\xaeG\xe1z\x94?{\x14\xaeG\xe1z\x94?{\x14\xaeG\xe1z\x94?{\x14\xaeG\xe1z\x94?'
tbsS'main.windLoads.rho'
p144
F1.198
sS'beta'
p145
F0
sS'shearExp'
p146
F0.11
sS'mooring_lines_per_connection'
p147
g38
(g17
S'\x00\x00\x00\x00\x00\x00\x00@'
tRp148
sS'main_permanent_ballast_height'
p149
g38
(g17
S'\xe08P\xc1\x81\x98\xda?'
tRp150
sS'offset_stiffener_flange_width'
p151
g3
(g4
(I0
tS'b'
tRp152
(I1
(I4
tg7
I00
S'\x9a\x99\x99\x99\x99\x99\xb9?\x9a\x99\x99\x99\x99\x99\xb9?\x9a\x99\x99\x99\x99\x99\xb9?\x9a\x99\x99\x99\x99\x99\xb9?'
tbsS'offset_stiffener_spacing'
p153
g3
(g4
(I0
tS'b'
tRp154
(I1
(I4
tg7
I00
S'\x9a\x99\x99\x99\x99\x99\xd9?\x9a\x99\x99\x99\x99\x99\xd9?\x9a\x99\x99\x99\x99\x99\xd9?\x9a\x99\x99\x99\x99\x99\xd9?'
tbsS'mooring_type'
p155
S'chain'
p156
sS'hub_height'
p157
F149
sS'upper_attachment_pontoons_int'
p158
I0
sS'labor_cost_rate'
p159
F1
sS'offset_stiffener_web_height'
p160
g3
(g4
(I0
tS'b'
tRp161
(I1
(I4
tg7
I00
S'\x9a\x99\x99\x99\x99\x99\xb9?\x9a\x99\x99\x99\x99\x99\xb9?\x9a\x99\x99\x99\x99\x99\xb9?\x9a\x99\x99\x99\x99\x99\xb9?'
tbs(lp162
(lp163
g56
aF0
aF1
aa(lp164
g132
aF0.001
aF1
aa(lp165
g37
aF0.10000000000000001
aF10
aa(lp166
g47
aF0
aF50
aa(lp167
g124
aF0.10000000000000001
aF50
aa(lp168
g32
aF2.1000000000000001
aF20
aa(lp169
g108
aF0.001
aF0.5
aa(lp170
g101
aF0
aF50
aa(lp171
g117
aF0
aF20
aa(lp172
g70
aF0
aF1
aa(lp173
g68
aF0.10000000000000001
aF100
aa(lp174
g52
aF1.1000000000000001
aF20
aa(lp175
g135
aF0.001
aF0.5
aa(lp176
g96
aF200
aF3000
aa(lp177
g127
aF100
aF5000
aa(lp178
g77
aF0.02
aF0.16
aa(lp179
g149
aF0.10000000000000001
aF50
aa(lp180
g15
aF0.01
aF1
aa(lp181
g113
aF0.001
aF0.5
aa(lp182
g21
aF0.01
aF5
aa(lp183
g73
aF0.001
aF0.5
aa(lp184
g24
aF0.10000000000000001
aF100
aa(lp185
(lp186
S'tow.height_constraint'
p187
aF-0.01
aF0.01
aNaa(lp188
S'tow.tip_deflection_margin'
p189
aF1
aNaNaa(lp190
S'main.draft_margin'
p191
aNaF1
aNaa(lp192
S'main.wave_height_freeboard_ratio'
p193
aNaF1
aNaa(lp194
S'wave_height_fairlead_ratio'
p195
aNaF1
aNaa(lp196
S'main.manufacturability'
p197
aF0
aNaNaa(lp198
S'main.weldability'
p199
aNaF0
aNaa(lp200
S'tow.manufacturability'
p201
aF0
aNaNaa(lp202
S'tow.weldability'
p203
aNaF0
aNaa(lp204
S'tower_transition_buffer'
p205
aF0
aNaNaa(lp206
S'nacelle_transition_buffer'
p207
aF0
aNaNaa(lp208
S'axial_unity'
p209
aF0
aF1
aNaa(lp210
S'mooring_length_max'
p211
aNaF1
aNaa(lp212
S'main.flange_spacing_ratio'
p213
aNaF1
aNaa(lp214
S'main.stiffener_radius_ratio'
p215
aNaF0.5
aNaa(lp216
S'main.flange_compactness'
p217
aF1
aNaNaa(lp218
S'main.web_compactness'
p219
aF1
aNaNaa(lp220
S'main.axial_local_api'
p221
aNaF1
aNaa(lp222
S'main.axial_general_api'
p223
aNaF1
aNaa(lp224
S'main.external_local_api'
p225
aNaF1
aNaa(lp226
S'main.external_general_api'
p227
aNaF1
aNaa(lp228
S'tower_stress'
p229
aNaF1
aNaa(lp230
S'tower_shell_buckling'
p231
aNaF1
aNaa(lp232
S'tower_global_buckling'
p233
aNaF1
aNaa(lp234
S'main_stress'
p235
aNaF1
aNaa(lp236
S'main_shell_buckling'
p237
aNaF1
aNaa(lp238
S'main_global_buckling'
p239
aNaF1
aNaa(lp240
S'variable_ballast_height_ratio'
p241
aF0
aF1
aNaa(lp242
S'variable_ballast_mass'
p243
aF0
aNaNaa(lp244
S'metacentric_height'
p245
aF1
aNaNaa(lp246
S'heel_moment_ratio'
p247
aNaF1
aNaa(lp248
S'period_margin_low'
p249
aNaF1
aNaa(lp250
S'period_margin_high'
p251
aF1
aNaNaa(S'total_mass'
p252
F9.9999999999999995e-07
tp253
S'SUBPLEX'
p254
t.