((dp1
S'rna_moment'
p2
cnumpy.core.multiarray
_reconstruct
p3
(cnumpy
ndarray
p4
(I0
tS'b'
tRp5
(I1
(I3
tcnumpy
dtype
p6
(S'f8'
I0
I1
tRp7
(I3
S'<'
NNNI-1
I-1
I0
tbI00
S'\xec*\xda\xf3O\xe7{A\xf8\xedw\x9a\x0e\xff\rA\xf1\x80S\xcaVvG\xc1'
tbsS'offset_permanent_ballast_height'
p8
F0.10000000000000001
sS'rna_force'
p9
g3
(g4
(I0
tS'b'
tRp10
(I1
(I3
tg7
I00
S'\xcd\xcc\xccLc\x1e@A\x00\x00\x00\x00\x00\x00\x00\x00\xc3\xf5(\xec!\xffY\xc1'
tbsS'gamma_fatigue'
p11
F1.7549999999999999
sS'loading'
p12
S'hydrostatic'
p13
sS'lower_ring_pontoons_int'
p14
I0
sS'main_stiffener_web_height'
p15
g3
(g4
(I0
tS'b'
tRp16
(I1
(I4
tg6
(S'f8'
I0
I1
tRp17
(I3
S'<'
NNNI-1
I-1
I0
tbI00
S'a\x9a\xea\xa9\xdc\xae\xeb?a\x9a\xea\xa9\xdc\xae\xeb?a\x9a\xea\xa9\xdc\xae\xeb?a\x9a\xea\xa9\xdc\xae\xeb?'
tbsS'zref'
p18
F119
sS'outfitting_cost_rate'
p19
F1.6500000000000001
sS'offset_buoyancy_tank_location'
p20
F0
sS'main_stiffener_flange_width'
p21
g3
(g4
(I0
tS'b'
tRp22
(I1
(I4
tg17
I00
S'3\xab\xe4\xb6\xf3\xab\x01@3\xab\xe4\xb6\xf3\xab\x01@3\xab\xe4\xb6\xf3\xab\x01@3\xab\xe4\xb6\xf3\xab\x01@'
tbsS'max_taper_ratio'
p23
F0.40000000000000002
sS'main_stiffener_spacing'
p24
g3
(g4
(I0
tS'b'
tRp25
(I1
(I4
tg17
I00
S'\x97\xc2O\xeb\xe8{\x1a@\x97\xc2O\xeb\xe8{\x1a@\x97\xc2O\xeb\xe8{\x1a@\x97\xc2O\xeb\xe8{\x1a@'
tbsS'max_draft'
p26
F200
sS'T'
F9.8000000000000007
sS'bulkhead_mass_factor'
p27
F1
sS'wave_period_range_high'
p28
F20
sS'cross_attachment_pontoons_int'
p29
I0
sS'outfitting_mass_fraction'
p30
F0.059999999999999998
sS'offset_buoyancy_tank_diameter'
p31
F24
sS'main_outer_diameter'
p32
g3
(g4
(I0
tS'b'
tRp33
(I1
(I5
tg6
(S'f8'
I0
I1
tRp34
(I3
S'<'
NNNI-1
I-1
I0
tbI00
S'=v\x10I\xb9\x1f&@|T\x06\x88\x9aW$@\x12x\xcb\x8d\xc2\xd6/@\xf2\x90\x1b`e)+@\xcb\x03{\\p\x7f!@'
tbsS'rna_I'
p35
g3
(g4
(I0
tS'b'
tRp36
(I1
(I6
tg7
I00
S'\x00\x00\x00.b\xf5\xa3A\x00\x00\x00\x08)"\x99A\x00\x00\x00\xf0\x10Q\x94A\x00\x00\x00\x00\x00\x00\x00\x00\xa4p=\n\x98x7A\x00\x00\x00\x00\x00\x00\x00\x00'
tbsS'main.windLoads.mu'
p37
F1.8099999999999999e-05
sS'fairlead_support_outer_diameter'
p38
cnumpy.core.multiarray
scalar
p39
(g6
(S'f8'
I0
I1
tRp40
(I3
S'<'
NNNI-1
I-1
I0
tbS'\xcb\xc7\x9d\xca#v"@'
tRp41
sS'offset_bulkhead_thickness'
p42
g3
(g4
(I0
tS'b'
tRp43
(I1
(I5
tg17
I00
S'\x9a\x99\x99\x99\x99\x99\xa9?\x9a\x99\x99\x99\x99\x99\xa9?\x00\x00\x00\x00\x00\x00\x00\x00\x00\x00\x00\x00\x00\x00\x00\x00\x9a\x99\x99\x99\x99\x99\xa9?'
tbsS'shell_mass_factor'
p44
F1
sS'main_pontoon_attach_upper'
p45
F1
sS'rna_mass'
p46
F449282.40530069917
sS'tower_buckling_length'
p47
F30
sS'Hs'
p48
F10.800000000000001
sS'main_freeboard'
p49
g39
(g40
S'-\x1e\xb4\x8cT\xfe=@'
tRp50
sS'Rhub'
p51
F2.2999999999999998
sS'material_density'
p52
F7850
sS'tower_outfitting_factor'
p53
F1.0700000000000001
sS'tower_outer_diameter'
p54
g3
(g4
(I0
tS'b'
tRp55
(I1
(I4
tg17
I00
S'\x00\x00\x00\x00\x00\x00"@\x00\x00\x00\x00\x00\x00\x1d@\x00\x00\x00\x00\x00\x00\x1d@\x00\x00\x00\x00\x00\x00\x16@'
tbsS'anchor_type'
p56
S'suctionpile'
p57
sS'G'
F79300000000
sS'fairlead_location'
p58
g39
(g40
S"-J1'\x1e\x07\xd6?"
tRp59
sS'max_offset'
p60
F100
sS'max_survival_heel'
p61
F15
sS'main.waveLoads.mu'
p62
F0.00088999999999999995
sS'permanent_ballast_density'
p63
F4492
sS'z0'
p64
F0
sS'Uc'
p65
F0
sS'material_cost_rate'
p66
F1.1000000000000001
sS'pontoon_wall_thickness'
p67
F0.017500000000000002
sS'number_of_offset_columns'
p68
I0
sS'radius_to_offset_column'
p69
F28.867513459481287
sS'tower_section_height'
p70
g3
(g4
(I0
tS'b'
tRp71
(I1
(I3
tg17
I00
S'UUUUU\xd5C@UUUUU\xd5C@UUUUU\xd5C@'
tbsS'main_buoyancy_tank_location'
p72
g39
(g40
S'*\xfe4\xc5\x1cB\xde?'
tRp73
sS'cm'
p74
F2
sS'main_stiffener_flange_thickness'
p75
g3
(g4
(I0
tS'b'
tRp76
(I1
(I4
tg17
I00
S'g\xbc\xb3\xc7.k\xd5?g\xbc\xb3\xc7.k\xd5?g\xbc\xb3\xc7.k\xd5?g\xbc\xb3\xc7.k\xd5?'
tbsS'hub_cm'
p77
g3
(g4
(I0
tS'b'
tRp78
(I1
(I3
tg17
I00
S'ffffff\x1c\xc0\x00\x00\x00\x00\x00\x00\x00\x00\x00\x00\x00\x00\x00\x00\x06@'
tbsS'mooring_diameter'
p79
g39
(g40
S'3\xcb\x8e\xa6\x84\xe1\xd1?'
tRp80
sS'gamma_m'
p81
F1.1000000000000001
sS'gamma_n'
p82
F1
sS'offset_section_height'
p83
g3
(g4
(I0
tS'b'
tRp84
(I1
(I4
tg7
I00
S'\x9a\x99\x99\x99\x99\x99\x19@\x9a\x99\x99\x99\x99\x99\x19@\x9a\x99\x99\x99\x99\x99)@\x9a\x99\x99\x99\x99\x99\x19@'
tbsS'main_bulkhead_thickness'
p85
g3
(g4
(I0
tS'b'
tRp86
(I1
(I5
tg17
I00
S'\x9a\x99\x99\x99\x99\x99\xa9?\x9a\x99\x99\x99\x99\x99\xa9?\x00\x00\x00\x00\x00\x00\x00\x00\x00\x00\x00\x00\x00\x00\x00\x00\x9a\x99\x99\x99\x99\x99\xa9?'
tbsS'yaw'
p87
F0
sS'gamma_f'
p88
F1.3500000000000001
sS'offset_freeboard'
p89
F12
sS'gamma_b'
p90
F1.1000000000000001
sS'tip_position'
p91
g3
(g4
(I0
tS'b'
tRp92
(I1
(I3
tg17
I00
S'\x9c\xc4 \xb0rh\x0c\xc0\x00\x00\x00\x00\x00\x00\x00\x00\x1b/\xdd$\x06\x815@'
tbsS'z_offset'
p93
F0
sS'ballast_cost_rate'
p94
F0.10000000000000001
sS'number_of_mooring_connections'
p95
I3
sS'offset_stiffener_web_thickness'
p96
g3
(g4
(I0
tS'b'
tRp97
(I1
(I4
tg17
I00
S'{\x14\xaeG\xe1z\xa4?{\x14\xaeG\xe1z\xa4?{\x14\xaeG\xe1z\xa4?{\x14\xaeG\xe1z\xa4?'
tbsS'mooring_line_length'
p98
g39
(g40
S'?,\xab+(\xd2\x91@'
tRp99
sS'downwind'
p100
I00
sS'outer_cross_pontoons_int'
p101
I0
sS'water_depth'
p102
F320
sS'main_buoyancy_tank_diameter'
p103
g39
(g40
S'\x9f\xe7\x03\x9e\x8a\xe7*@'
tRp104
sS'column_mass_factor'
p105
F1.05
sS'operational_heel'
p106
F6
sS'offset_outer_diameter'
p107
g3
(g4
(I0
tS'b'
tRp108
(I1
(I5
tg7
I00
S'\x00\x00\x00\x00\x00\x00(@\x00\x00\x00\x00\x00\x00(@\x00\x00\x00\x00\x00\x00(@\x00\x00\x00\x00\x00\x00(@\x00\x00\x00\x00\x00\x00(@'
tbsS'yield_stress'
p109
F345000000
sS'main_wall_thickness'
p110
g3
(g4
(I0
tS'b'
tRp111
(I1
(I4
tg17
I00
S'\xacg\xb4x\x98\x03\xb5?\xacg\xb4x\x98\x03\xb5?\xacg\xb4x\x98\x03\xb5?\xacg\xb4x\x98\x03\xb5?'
tbsS'connection_ratio_max'
p112
F0.25
sS'ring_mass_factor'
p113
F1
sS'upper_ring_pontoons_int'
p114
I0
sS'main_stiffener_web_thickness'
p115
g3
(g4
(I0
tS'b'
tRp116
(I1
(I4
tg17
I00
S'n\x06\x83\xa6\xc2\x8f\xd0?n\x06\x83\xa6\xc2\x8f\xd0?n\x06\x83\xa6\xc2\x8f\xd0?n\x06\x83\xa6\xc2\x8f\xd0?'
tbsS'lower_attachment_pontoons_int'
p117
I0
sS'water_density'
p118
F1025
sS'main_buoyancy_tank_height'
p119
g39
(g40
S'\xd6\xf2uDA\x05\x0e@'
tRp120
sS'cd_usr'
p121
Finf
sS'min_diameter_thickness_ratio'
p122
F120
sS'offset_wall_thickness'
p123
g3
(g4
(I0
tS'b'
tRp124
(I1
(I4
tg17
I00
S'\xb8\x1e\x85\xebQ\xb8\xae?\xb8\x1e\x85\xebQ\xb8\xae?\xb8\x1e\x85\xebQ\xb8\xae?\xb8\x1e\x85\xebQ\xb8\xae?'
tbsS'offset_buoyancy_tank_height'
p125
F5
sS'main_section_height'
p126
g3
(g4
(I0
tS'b'
tRp127
(I1
(I4
tg34
I00
S'?\xacy\xcd\\\xfeH@M\xa3%\x13\xf9\x1b@@\x1c=a\xf5\x7fmQ@\xb4\x10\x82\xf8L\xa2"@'
tbsS'Uref'
p128
F11
sS'anchor_radius'
p129
g39
(g40
S'wIx\xef\xbe1\x8f@'
tRp130
sS'rna_cg'
p131
g3
(g4
(I0
tS'b'
tRp132
(I1
(I3
tg7
I00
S'\x1e\x01\x16\xd8\xe7Z\xe3\xbf\x00\x00\x00\x00\x00\x00\x00\x00\x0e\xb4L\xd0p$\x04@'
tbsS'pontoon_outer_diameter'
p133
F3.2000000000000002
sS'fairlead_support_wall_thickness'
p134
g39
(g40
S'\x9d)\xd6\x8e\xbf\xa3\x7f?'
tRp135
sS'fairlead_offset_from_shell'
p136
F0.5
sS'tower_wall_thickness'
p137
g3
(g4
(I0
tS'b'
tRp138
(I1
(I3
tg17
I00
S'\x90\xebQ\xb8\x1e\x85\xd3?\x90\xebQ\xb8\x1e\x85\xd3?\x90\xebQ\xb8\x1e\x85\xd3?'
tbsS'mooring_cost_rate'
p139
F1.1000000000000001
sS'painting_cost_rate'
p140
F14.4
sS'nu'
p141
F0.26000000000000001
sS'E'
F200000000000
sS'wave_period_range_low'
p142
F2
sS'main_pontoon_attach_lower'
p143
F0.10000000000000001
sS'offset_stiffener_flange_thickness'
p144
g3
(g4
(I0
tS'b'
tRp145
(I1
(I4
tg17
I00
S'{\x14\xaeG\xe1z\x94?{\x14\xaeG\xe1z\x94?{\x14\xaeG\xe1z\x94?{\x14\xaeG\xe1z\x94?'
tbsS'main.windLoads.rho'
p146
F1.198
sS'beta'
p147
F0
sS'shearExp'
p148
F0.11
sS'mooring_lines_per_connection'
p149
g39
(g40
S'\x00\x00\x00\x00\x00\x00\x00@'
tRp150
sS'main_permanent_ballast_height'
p151
g39
(g40
S'E&\xadL\xd0\x0c\x15@'
tRp152
sS'offset_stiffener_flange_width'
p153
g3
(g4
(I0
tS'b'
tRp154
(I1
(I4
tg17
I00
S'\x9a\x99\x99\x99\x99\x99\xb9?\x9a\x99\x99\x99\x99\x99\xb9?\x9a\x99\x99\x99\x99\x99\xb9?\x9a\x99\x99\x99\x99\x99\xb9?'
tbsS'offset_stiffener_spacing'
p155
g3
(g4
(I0
tS'b'
tRp156
(I1
(I4
tg17
I00
S'\x9a\x99\x99\x99\x99\x99\xd9?\x9a\x99\x99\x99\x99\x99\xd9?\x9a\x99\x99\x99\x99\x99\xd9?\x9a\x99\x99\x99\x99\x99\xd9?'
tbsS'mooring_type'
p157
S'chain'
p158
sS'hub_height'
p159
F149
sS'upper_attachment_pontoons_int'
p160
I0
sS'labor_cost_rate'
p161
F1
sS'offset_stiffener_web_height'
p162
g3
(g4
(I0
tS'b'
tRp163
(I1
(I4
tg17
I00
S'\x9a\x99\x99\x99\x99\x99\xb9?\x9a\x99\x99\x99\x99\x99\xb9?\x9a\x99\x99\x99\x99\x99\xb9?\x9a\x99\x99\x99\x99\x99\xb9?'
tbs(lp164
(lp165
S'fairlead_location'
p166
aF0
aF1
aa(lp167
S'fairlead_support_wall_thickness'
p168
aF0.001
aF1
aa(lp169
S'fairlead_support_outer_diameter'
p170
aF0.10000000000000001
aF10
aa(lp171
S'main_freeboard'
p172
aF0
aF50
aa(lp173
S'main_section_height'
p174
aF0.10000000000000001
aF50
aa(lp175
S'main_outer_diameter'
p176
aF2.1000000000000001
aF20
aa(lp177
S'main_wall_thickness'
p178
aF0.001
aF0.5
aa(lp179
S'main_buoyancy_tank_diameter'
p180
aF0
aF50
aa(lp181
S'main_buoyancy_tank_height'
p182
aF0
aF20
aa(lp183
S'main_buoyancy_tank_location'
p184
aF0
aF1
aa(lp185
S'mooring_line_length'
p186
aF200
aF3000
aa(lp187
S'anchor_radius'
p188
aF100
aF5000
aa(lp189
S'mooring_diameter'
p190
aF0.050000000000000003
aF2
aa(lp191
S'main_permanent_ballast_height'
p192
aF0.10000000000000001
aF50
aa(lp193
S'main_stiffener_web_height'
p194
aF0.01
aF1
aa(lp195
S'main_stiffener_web_thickness'
p196
aF0.001
aF0.5
aa(lp197
S'main_stiffener_flange_width'
p198
aF0.01
aF5
aa(lp199
S'main_stiffener_flange_thickness'
p200
aF0.001
aF0.5
aa(lp201
S'main_stiffener_spacing'
p202
aF0.10000000000000001
aF100
aa(lp203
(lp204
S'tow.height_constraint'
p205
aF-0.01
aF0.01
aNaa(lp206
S'main.draft'
p207
aF0
aF200
aNaa(lp208
S'main.draft_margin'
p209
aF0
aF1
aNaa(lp210
S'main.wave_height_freeboard_ratio'
p211
aNaF1
aNaa(lp212
S'main.manufacturability'
p213
aF0
aNaNaa(lp214
S'main.weldability'
p215
aNaF0
aNaa(lp216
S'tower_transition_buffer'
p217
aF-1
aF1
aNaa(lp218
S'nacelle_transition_buffer'
p219
aF0
aNaNaa(lp220
S'axial_unity'
p221
aF0
aF1
aNaa(lp222
S'mooring_length_max'
p223
aNaF1
aNaa(lp224
S'main.flange_spacing_ratio'
p225
aNaF1
aNaa(lp226
S'main.stiffener_radius_ratio'
p227
aNaF0.5
aNaa(lp228
S'main.flange_compactness'
p229
aF1
aNaNaa(lp230
S'main.web_compactness'
p231
aF1
aNaNaa(lp232
S'main.axial_local_api'
p233
aNaF1
aNaa(lp234
S'main.axial_general_api'
p235
aNaF1
aNaa(lp236
S'main.external_local_api'
p237
aNaF1
aNaa(lp238
S'main.external_general_api'
p239
aNaF1
aNaa(lp240
S'tower_stress'
p241
aNaF1
aNaa(lp242
S'tower_shell_buckling'
p243
aNaF1
aNaa(lp244
S'tower_global_buckling'
p245
aNaF1
aNaa(lp246
S'main_stress'
p247
aNaF1
aNaa(lp248
S'main_shell_buckling'
p249
aNaF1
aNaa(lp250
S'main_global_buckling'
p251
aNaF1
aNaa(lp252
S'variable_ballast_height_ratio'
p253
aF0
aF1
aNaa(lp254
S'variable_ballast_mass'
p255
aF0
aNaNaa(lp256
S'metacentric_height'
p257
aF0.10000000000000001
aNaNaa(lp258
S'offset_force_ratio'
p259
aNaF1
aNaa(lp260
S'heel_moment_ratio'
p261
aNaF1
aNaa(lp262
S'period_margin_low'
p263
aNaF1
aNaa(lp264
S'period_margin_high'
p265
aF1
aNaNaa(S'structural_mass'
p266
F9.9999999999999995e-07
tp267
S'NM'
p268
t.