((dp1
S'groutSpreadDR'
p2
F3000
sS'generator_mass'
p3
F16699.849999999999
sS'turbine_profitMultiplier'
p4
F0
sS'prepGripperJack'
p5
F8
sS'tpCover'
p6
F1.5
sS'main_stiffener_flange_width'
p7
cnumpy.core.multiarray
_reconstruct
p8
(cnumpy
ndarray
p9
(I0
tS'b'
tRp10
(I1
(I4
tcnumpy
dtype
p11
(S'f8'
I0
I1
tRp12
(I3
S'<'
NNNI-1
I-1
I0
tbI00
S'\x14]\xc1i\xa7\xa2\x01@\x14]\xc1i\xa7\xa2\x01@\x14]\xc1i\xa7\xa2\x01@\x14]\xc1i\xa7\xa2\x01@'
tbsS'cross_attachment_pontoons_int'
p13
I0
sS'faaPlan'
p14
F10000
sS'main_section_height'
p15
g8
(g9
(I0
tS'b'
tRp16
(I1
(I4
tg11
(S'f8'
I0
I1
tRp17
(I3
S'<'
NNNI-1
I-1
I0
tbI00
S'+l\x82\xb2\xd4\xfdH@V\x06\xcd\x02\xf93@@\x9ek\xf8\x01>nQ@bc<\x16#\x9c"@'
tbsS'transformer_mass'
p18
F1000
sS'otherAncillary'
p19
F3000000
sS'precurve_tip'
p20
F0
sS'jtransCR'
p21
F4500
sS'offset_buoyancy_tank_diameter'
p22
F24
sS'medVoltSG'
p23
F500000
sS'generator_mass_cost_coeff'
p24
F17.43
sS'jpileL'
p25
F47.5
sS'plantComm'
p26
F0.01
sS'subsLoad'
p27
F60
sS'jpileD'
p28
F1.6000000000000001
sS'capital_cost_year_4'
p29
F0
sS'main_bearing_mass'
p30
F4865.7049999999999
sS'main_freeboard'
p31
cnumpy.core.multiarray
scalar
p32
(g11
(S'f8'
I0
I1
tRp33
(I3
S'<'
NNNI-1
I-1
I0
tbS'rKsB7\xfe=@'
tRp34
sS'capital_cost_year_5'
p35
F0
sS'material_density'
p36
F7850
sS'dynCabFac'
p37
F2
sS'cab1CurrRating'
p38
F300
sS'crane600DR'
p39
F5000
sS'ring_mass_factor'
p40
F1
sS'arrVoltage'
p41
F33
sS'elec_connec_cost_esc'
p42
F1.5
sS'gearbox_mass'
p43
F30237.599999999999
sS'construction_insurance'
p44
F0.01
sS'cab2SubsInterCR'
p45
F19815
sS'tax_rate'
p46
F0.40000000000000002
sS'presweep_in'
p47
g8
(g9
(I0
tS'b'
tRp48
(I1
(I5
tg11
(S'f8'
I0
I1
tRp49
(I3
S'<'
NNNI-1
I-1
I0
tbI00
S'\x00\x00\x00\x00\x00\x00\x00\x00\x00\x00\x00\x00\x00\x00\x00\x00\x00\x00\x00\x00\x00\x00\x00\x00\x00\x00\x00\x00\x00\x00\x00\x00\x00\x00\x00\x00\x00\x00\x00\x00'
tbsS'permanent_ballast_density'
p50
F4492
sS'expCabLoad'
p51
F24
sS'groutSpreadMob'
p52
F1000000
sS'machine_rating'
p53
F10000000
sS'socEconStudyMet'
p54
F500000
sS'cleanWatAct402'
p55
F100000
sS'mpvRentalDR'
p56
F72000
sS'distAtoS'
p57
F90
sS'cover_mass'
p58
F1000
sS'lower_attachment_pontoons_int'
p59
I0
sS'usecd'
p60
I01
sS'radius_to_offset_column'
p61
F28.867513459481287
sS'surfLayRate'
p62
F375
sS'physResStudyProj'
p63
F500000
sS'seaSpreadDR'
p64
F165000
sS'z_offset'
p65
F0
sS'prepAA'
p66
F168
sS'number_of_mooring_connections'
p67
I3
sS'material_cost_rate'
p68
F1.1000000000000001
sS'dynamic_amplication_tip_deflection'
p69
F1.3500000000000001
sS'arrCab1Mass'
p70
F20.384
sS'turbine_assemblyCostMultiplier'
p71
F0
sS'turbInstallMethod'
p72
I0
sS'tower_assemblyCostMultiplier'
p73
F0
sS'column_mass_factor'
p74
F1.05
sS'offset_outer_diameter'
p75
g8
(g9
(I0
tS'b'
tRp76
(I1
(I5
tg11
(S'f8'
I0
I1
tRp77
(I3
S'<'
NNNI-1
I-1
I0
tbI00
S'\x00\x00\x00\x00\x00\x00(@\x00\x00\x00\x00\x00\x00(@\x00\x00\x00\x00\x00\x00(@\x00\x00\x00\x00\x00\x00(@\x00\x00\x00\x00\x00\x00(@'
tbsS'yield_stress'
p78
F345000000
sS'rstar_damage'
p79
g8
(g9
(I0
tS'b'
tRp80
(I1
(I51
tg49
I00
S'\x00\x00\x00\x00\x00\x00\x00\x00{\x14\xaeG\xe1z\x94?{\x14\xaeG\xe1z\xa4?\xb8\x1e\x85\xebQ\xb8\xae?{\x14\xaeG\xe1z\xb4?\x9a\x99\x99\x99\x99\x99\xb9?\xb8\x1e\x85\xebQ\xb8\xbe?\xecQ\xb8\x1e\x85\xeb\xc1?{\x14\xaeG\xe1z\xc4?\n\xd7\xa3p=\n\xc7?\x9a\x99\x99\x99\x99\x99\xc9?)\\\x8f\xc2\xf5(\xcc?\xb8\x1e\x85\xebQ\xb8\xce?\xa4p=\n\xd7\xa3\xd0?\xecQ\xb8\x1e\x85\xeb\xd1?333333\xd3?{\x14\xaeG\xe1z\xd4?\xc3\xf5(\\\x8f\xc2\xd5?\n\xd7\xa3p=\n\xd7?R\xb8\x1e\x85\xebQ\xd8?\x9a\x99\x99\x99\x99\x99\xd9?\xe1z\x14\xaeG\xe1\xda?)\\\x8f\xc2\xf5(\xdc?q=\n\xd7\xa3p\xdd?\xb8\x1e\x85\xebQ\xb8\xde?\x00\x00\x00\x00\x00\x00\xe0?\xa4p=\n\xd7\xa3\xe0?H\xe1z\x14\xaeG\xe1?\xecQ\xb8\x1e\x85\xeb\xe1?\x8f\xc2\xf5(\\\x8f\xe2?333333\xe3?\xd7\xa3p=\n\xd7\xe3?{\x14\xaeG\xe1z\xe4?\x1f\x85\xebQ\xb8\x1e\xe5?\xc3\xf5(\\\x8f\xc2\xe5?gfffff\xe6?\n\xd7\xa3p=\n\xe7?\xaeG\xe1z\x14\xae\xe7?R\xb8\x1e\x85\xebQ\xe8?\xf6(\\\x8f\xc2\xf5\xe8?\x9a\x99\x99\x99\x99\x99\xe9?>\n\xd7\xa3p=\xea?\xe1z\x14\xaeG\xe1\xea?\x85\xebQ\xb8\x1e\x85\xeb?)\\\x8f\xc2\xf5(\xec?\xcd\xcc\xcc\xcc\xcc\xcc\xec?q=\n\xd7\xa3p\xed?\x15\xaeG\xe1z\x14\xee?\xb8\x1e\x85\xebQ\xb8\xee?\\\x8f\xc2\xf5(\\\xef?\x00\x00\x00\x00\x00\x00\xf0?'
tbsS'precone'
p81
F4
sS'nacelle_transportMultiplier'
p82
F0
sS'Mxb_damage'
p83
g8
(g9
(I0
tS'b'
tRp84
(I1
(I51
tg49
I00
S'\x11\xea-\x81\x99\x97q=\x11\xea-\x81\x99\x97q=\x11\xea-\x81\x99\x97q=\x11\xea-\x81\x99\x97q=\x11\xea-\x81\x99\x97q=\x11\xea-\x81\x99\x97q=\x11\xea-\x81\x99\x97q=\x11\xea-\x81\x99\x97q=\x11\xea-\x81\x99\x97q=\x11\xea-\x81\x99\x97q=\x11\xea-\x81\x99\x97q=\x11\xea-\x81\x99\x97q=\x11\xea-\x81\x99\x97q=\x11\xea-\x81\x99\x97q=\x11\xea-\x81\x99\x97q=\x11\xea-\x81\x99\x97q=\x11\xea-\x81\x99\x97q=\x11\xea-\x81\x99\x97q=\x11\xea-\x81\x99\x97q=\x11\xea-\x81\x99\x97q=\x11\xea-\x81\x99\x97q=\x11\xea-\x81\x99\x97q=\x11\xea-\x81\x99\x97q=\x11\xea-\x81\x99\x97q=\x11\xea-\x81\x99\x97q=\x11\xea-\x81\x99\x97q=\x11\xea-\x81\x99\x97q=\x11\xea-\x81\x99\x97q=\x11\xea-\x81\x99\x97q=\x11\xea-\x81\x99\x97q=\x11\xea-\x81\x99\x97q=\x11\xea-\x81\x99\x97q=\x11\xea-\x81\x99\x97q=\x11\xea-\x81\x99\x97q=\x11\xea-\x81\x99\x97q=\x11\xea-\x81\x99\x97q=\x11\xea-\x81\x99\x97q=\x11\xea-\x81\x99\x97q=\x11\xea-\x81\x99\x97q=\x11\xea-\x81\x99\x97q=\x11\xea-\x81\x99\x97q=\x11\xea-\x81\x99\x97q=\x11\xea-\x81\x99\x97q=\x11\xea-\x81\x99\x97q=\x11\xea-\x81\x99\x97q=\x11\xea-\x81\x99\x97q=\x11\xea-\x81\x99\x97q=\x11\xea-\x81\x99\x97q=\x11\xea-\x81\x99\x97q=\x11\xea-\x81\x99\x97q=\x11\xea-\x81\x99\x97q='
tbsS'mooring_diameter'
p85
g32
(g33
S'\x84L-\x98\xb4\xd7\xd1?'
tRp86
sS'hub_mass'
p87
F105520
sS'cab1CR'
p88
F185.88900000000001
sS'cd_usr'
p89
Finf
sS'main_buoyancy_tank_height'
p90
g32
(g33
S'\x1af\xec\x01\x08\xde\r@'
tRp91
sS'buryDepth'
p92
F2
sS'nac_I'
p93
g8
(g9
(I0
tS'b'
tRp94
(I1
(I6
tg49
I00
S'\x00\x00\x00`\xb4[\\A\x00\x00\x00\x8e\x82\ngA\x00\x00\x00\x8e\x82\ngA\x00\x00\x00\x00\x00\x00\x00\x00\x00\x00\x00\x00\x00\x00\x00\x00\x00\x00\x00\x00\x00\x00\x00\x00'
tbsS'monoFasten'
p95
F12
sS'tilt'
p96
F6
sS'nSector'
p97
I4
sS'offset_buoyancy_tank_location'
p98
F0
sS'tower_wall_thickness'
p99
g8
(g9
(I0
tS'b'
tRp100
(I1
(I3
tg12
I00
S'\x90\xebQ\xb8\x1e\x85\xd3?\x90\xebQ\xb8\x1e\x85\xd3?\x90\xebQ\xb8\x1e\x85\xd3?'
tbsS'offshore'
p101
I01
sS'substructure'
p102
I2
sS'interest_during_construction'
p103
F0.080000000000000002
sS'offset_stiffener_flange_thickness'
p104
g8
(g9
(I0
tS'b'
tRp105
(I1
(I4
tg12
I00
S'{\x14\xaeG\xe1z\x94?{\x14\xaeG\xe1z\x94?{\x14\xaeG\xe1z\x94?{\x14\xaeG\xe1z\x94?'
tbsS'placeMP'
p106
F3
sS'hubFraction'
p107
F0.023784901758014475
sS'feedStudy'
p108
F10000000
sS'preFEEDStudy'
p109
F5000000
sS'cableOptimizer'
p110
I00
sS'platforms_mass_cost_coeff'
p111
F8.6999999999999993
sS'hvac_mass_cost_coeff'
p112
F163.94999999999999
sS'upper_attachment_pontoons_int'
p113
I0
sS'nepaEisMet'
p114
F2000000
sS'yaw_mass_cost_coeff'
p115
F11.01
sS'subsTopFab'
p116
F14500
sS'dummy_mass'
p117
F9.9999999999999998e-13
sS'elec_connec_machine_rating_cost_coeff'
p118
F40
sS'fixed_charge_rate'
p119
F0.12
sS'water_viscosity'
p120
F0.00088999999999999995
sS'spMoorCon'
p121
F20
sS'wind_reference_height'
p122
F119
sS'outfitting_cost_rate'
p123
F1.6500000000000001
sS'air_viscosity'
p124
F1.8099999999999999e-05
sS'shape_parameter'
p125
F0
sS'prepSemi'
p126
F12
sS'prepTow'
p127
F12
sS'control_Vout'
p128
F25
sS'max_taper_ratio'
p129
F0.40000000000000002
sS'hub_profitMultiplier'
p130
F0
sS'tower_overheadCostMultiplier'
p131
F0
sS'platforms_mass'
p132
F1000
sS'socEconStudyProj'
p133
F200000
sS'gust_stddev'
p134
I3
sS'boltRotor'
p135
F7
sS'wave_period_range_high'
p136
F20
sS'vs_electronics_mass'
p137
F1000
sS'inspectClear'
p138
F2
sS'teT_in'
p139
g8
(g9
(I0
tS'b'
tRp140
(I1
(I5
tg49
I00
S'\xf4(\xfb\x97\x18\x81\xa5?\xad\xb1B\x13!\x8a\xb0?\xaf\xbf\xedj\xe1\xd6\xab?Y\xc3\xb4`\x17}\x90?\xe24"\xc9\xe3Gl?'
tbsS'morison_mass_coefficient'
p141
F2
sS'seaSpreadMob'
p142
F4500000
sS'wind_bottom_height'
p143
F0
sS'wave_period_range_low'
p144
F2
sS'stateLease'
p145
F250000
sS'offset_permanent_ballast_height'
p146
F0.10000000000000001
sS'ssMoorCheck'
p147
F12
sS'main_stiffener_spacing'
p148
g8
(g9
(I0
tS'b'
tRp149
(I1
(I4
tg12
I00
S'\x19\xa3#\xc6\xed\x7f\x1a@\x19\xa3#\xc6\xed\x7f\x1a@\x19\xa3#\xc6\xed\x7f\x1a@\x19\xa3#\xc6\xed\x7f\x1a@'
tbsS'tower_outer_diameter'
p150
g8
(g9
(I0
tS'b'
tRp151
(I1
(I4
tg12
I00
S'\x00\x00\x00\x00\x00\x00"@\x00\x00\x00\x00\x00\x00\x1d@\x00\x00\x00\x00\x00\x00\x1d@\x00\x00\x00\x00\x00\x00\x16@'
tbsS'conOpPlan'
p152
F1000000
sS'outfitting_mass_fraction'
p153
F0.059999999999999998
sS'capital_cost_year_2'
p154
F0.10000000000000001
sS'capital_cost_year_3'
p155
F0.10000000000000001
sS'capital_cost_year_0'
p156
F0.20000000000000001
sS'capital_cost_year_1'
p157
F0.59999999999999998
sS'G'
F79300000000
sS'fairlead_location'
p158
g32
(g33
S'x4\x99=7\x1f\xd6?'
tRp159
sS'max_offset'
p160
F100
sS'control_minOmega'
p161
F6
sS'prepGripperMono'
p162
F1.5
sS'cabTerm'
p163
F5.5
sS'workSpace'
p164
F2000000
sS'main_bulkhead_thickness'
p165
g8
(g9
(I0
tS'b'
tRp166
(I1
(I5
tg11
(S'f8'
I0
I1
tRp167
(I3
S'<'
NNNI-1
I-1
I0
tbI00
S'\x9a\x99\x99\x99\x99\x99\xa9?\x9a\x99\x99\x99\x99\x99\xa9?\x00\x00\x00\x00\x00\x00\x00\x00\x00\x00\x00\x00\x00\x00\x00\x00\x9a\x99\x99\x99\x99\x99\xa9?'
tbsS'vesselPosMono'
p168
F3
sS'boltBlade1'
p169
F3.5
sS'groutTP'
p170
F8
sS'boltBlade2'
p171
F3.5
sS'wind_beta'
p172
F0
sS'landConstruct'
p173
F7
sS'subsJackCR'
p174
F6250
sS'tiploss'
p175
I01
sS'hub_overheadCostMultiplier'
p176
F0
sS'control_pitch'
p177
F0
sS'azimuth_extreme'
p178
F0
sS'prepSpar'
p179
F18
sS'number_install_seasons'
p180
F1
sS'transformer_mass_cost_coeff'
p181
F26.5
sS'turbine_class'
p182
I0
sS'distInterCon'
p183
F3
sS'rivsnHarbsAct'
p184
F100000
sS'navStudyMet'
p185
F500000
sS'jackFasten'
p186
F20
sS'coastZoneManAct'
p187
F100000
sS'distPtoA'
p188
F90
sS'saPlan'
p189
F500000
sS'nCrane1000'
p190
F0
sS'bioResStudyMet'
p191
F1500000
sS'procurement_contingency'
p192
F0.050000000000000003
sS'jpileCR'
p193
F2250
sS'metTowCR'
p194
F11518
sS'jlatticeCR'
p195
F4680
sS'outer_cross_pontoons_int'
p196
I0
sS'water_depth'
p197
F320
sS'control_tsr'
p198
F10.58
sS'VfactorPC'
p199
F0.69999999999999996
sS'levJack'
p200
F24
sS'pwrFac'
p201
F0.94999999999999996
sS'placeJack'
p202
F12
sS'upper_ring_pontoons_int'
p203
I0
sS'main_stiffener_web_thickness'
p204
g8
(g9
(I0
tS'b'
tRp205
(I1
(I4
tg12
I00
S'\xed\xde\xfe\\\x99\x98\xd0?\xed\xde\xfe\\\x99\x98\xd0?\xed\xde\xfe\\\x99\x98\xd0?\xed\xde\xfe\\\x99\x98\xd0?'
tbsS'endSpecAct'
p206
F500000
sS'AEP_loss_factor'
p207
F1
sS'prepHamJack'
p208
F2
sS'water_density'
p209
F1025
sS'arrayX'
p210
F9
sS'expSubsInterCR'
p211
F57500
sS'min_diameter_thickness_ratio'
p212
F120
sS'offset_wall_thickness'
p213
g8
(g9
(I0
tS'b'
tRp214
(I1
(I4
tg12
I00
S'\xb8\x1e\x85\xebQ\xb8\xae?\xb8\x1e\x85\xebQ\xb8\xae?\xb8\x1e\x85\xebQ\xb8\xae?\xb8\x1e\x85\xebQ\xb8\xae?'
tbsS'blade_mass_cost_coeff'
p215
F13.08
sS'turbFasten'
p216
F8
sS'hub_transportMultiplier'
p217
F0
sS'pitch_system_mass_cost_coeff'
p218
F22.91
sS'upendSpar'
p219
F36
sS'hub_I'
p220
g8
(g9
(I0
tS'b'
tRp221
(I1
(I6
tg49
I00
S'\x9eV\xe4\xeaZ\xe2\x13AGl\x9d\xa5\xf1\xda\x08AGl\x9d\xa5\xf1\xda\x08A\x00\x00\x00\x00\x00\x00\x00\x00\x00\x00\x00\x00\x00\x00\x00\x00\x00\x00\x00\x00\x00\x00\x00\x00'
tbsS'expCurrRating'
p222
F530
sS'turbulence_class'
p223
I1
sS'cover_mass_cost_coeff'
p224
F7.6100000000000003
sS'main_pontoon_attach_lower'
p225
F0.10000000000000001
sS'entranceExitRate'
p226
F0.52500000000000002
sS'lss_mass_cost_coeff'
p227
F12.6
sS'exCabFac'
p228
F0.10000000000000001
sS'moorSurvey'
p229
F4
sS'hub_height'
p230
F149
sS'offset_stiffener_web_height'
p231
g8
(g9
(I0
tS'b'
tRp232
(I1
(I4
tg12
I00
S'\x9a\x99\x99\x99\x99\x99\xb9?\x9a\x99\x99\x99\x99\x99\xb9?\x9a\x99\x99\x99\x99\x99\xb9?\x9a\x99\x99\x99\x99\x99\xb9?'
tbsS'cabPullIn'
p233
F5.5
sS'craneMobDemob'
p234
F150000
sS'bladeLength'
p235
F96.700000000000003
sS'placeTop'
p236
F24
sS'discount_rate'
p237
F0.070000000000000007
sS'presweep_tip'
p238
F0
sS'gamma_fatigue'
p239
F1.7550000000000001
sS'tower_transportMultiplier'
p240
F0
sS'mptCR'
p241
F12500
sS'winchDR'
p242
F1000
sS'instScour'
p243
F6
sS'r_max_chord'
p244
g32
(g33
S'\x9b\xe6\x1d\xa7\xe8H\xce?'
tRp245
sS'ssMoorCon'
p246
F22
sS'bioResStudyProj'
p247
F500000
sS'placeTemplate'
p248
F4
sS'elecWork'
p249
F25000
sS'compRacks'
p250
F1000000
sS'distShore'
p251
F90
sS'bulkhead_mass_factor'
p252
F1
sS'elecCont'
p253
F0.29999999999999999
sS'cabSurveyCR'
p254
F240
sS'ssHeaveCR'
p255
F6250
sS'highVoltSG'
p256
F950000
sS'pitch_system_mass'
p257
F17004
sS'main_outer_diameter'
p258
g8
(g9
(I0
tS'b'
tRp259
(I1
(I5
tg17
I00
S'\x87j\x9ch\xc9v&@~\x82\rL\x01L$@\x80j\xa4\x95\x83\xe6/@^L\x8eM=L+@M\xc2\xf5j\xfac!@'
tbsS'nacelleL'
p260
F-inf
sS'cab2TurbInterCR'
p261
F8615
sS'hamRate'
p262
F20
sS'nacelle_overheadCostMultiplier'
p263
F0
sS'crane1000DR'
p264
F8000
sS'nacelle_profitMultiplier'
p265
F0
sS'nacelleW'
p266
F-inf
sS'main_pontoon_attach_upper'
p267
F1
sS'tower_buckling_length'
p268
F30
sS'substructCont'
p269
F0.29999999999999999
sS'control_Vin'
p270
F4
sS'turbCont'
p271
F0.29999999999999999
sS'wave_period'
p272
F9.8000000000000007
sS'prepHamMono'
p273
F2
sS'wakerotation'
p274
I01
sS'tower_profitMultiplier'
p275
F0
sS'main_stiffener_flange_thickness'
p276
g8
(g9
(I0
tS'b'
tRp277
(I1
(I4
tg12
I00
S'\xc9\xb3/\x823\\\xd5?\xc9\xb3/\x823\\\xd5?\xc9\xb3/\x823\\\xd5?\xc9\xb3/\x823\\\xd5?'
tbsS'nepaEisProj'
p278
F5000000
sS'pontoon_wall_thickness'
p279
F0.017500000000000002
sS'cabDrillCR'
p280
F3200
sS'physResStudyMet'
p281
F1500000
sS'main_buoyancy_tank_location'
p282
g32
(g33
S'P\x85\xd3\xd4\x87?\xde?'
tRp283
sS'strain_ult_spar'
p284
F0.01
sS'expCabCR'
p285
F495.411
sS'base_hardware_cost_coeff'
p286
F0.69999999999999996
sS'annual_opex'
p287
F700000
sS'hub_cm'
p288
g8
(g9
(I0
tS'b'
tRp289
(I1
(I3
tg49
I00
S'ffffff\x1c\xc0\x00\x00\x00\x00\x00\x00\x00\x00\x00\x00\x00\x00\x00\x00\x06@'
tbsS'marMamProtAct'
p290
F500000
sS'sparT_in'
p291
g8
(g9
(I0
tS'b'
tRp292
(I1
(I5
tg49
I00
S'Xh\x82\xe1[b\xa0?\xfc\x8d\xa5=\x19\xa0\xa9?\xdcC!\x10\xd0\xcc\xb5?k\xcbD\xc9\xbc\xe8\xb3?~&\x13\xd1\x020\x88?'
tbsS'backUpGen'
p293
F1000000
sS'gamma_m'
p294
F1.3
sS'gamma_n'
p295
F1
sS'number_of_offset_columns'
p296
I0
sS'yaw'
p297
F0
sS'gamma_f'
p298
F1.3500000000000001
sS'offset_freeboard'
p299
F12
sS'gamma_b'
p300
F1.1000000000000001
sS'bearings_mass_cost_coeff'
p301
F6.3499999999999996
sS'pileSpreadMob'
p302
F750000
sS'ballast_cost_rate'
p303
F0.10000000000000001
sS'yaw_mass'
p304
F11878.24
sS'number_of_turbines'
p305
I20
sS'downwind'
p306
I00
sS'spinner_mass'
p307
F1810.5
sS'main_buoyancy_tank_diameter'
p308
g32
(g33
S'\xfa4\x03Y\xeb\xa7*@'
tRp309
sS'crane_cost'
p310
F0
sS'turbine_transportMultiplier'
p311
F0
sS'ssBall'
p312
F6
sS'vesselPosTurb'
p313
F2
sS'deaFixLeng'
p314
F0
sS'wave_height'
p315
F10.800000000000001
sS'cleanWatAct404'
p316
F100000
sS'anchor'
p317
I0
sS'estEnMFac'
p318
F0.040000000000000001
sS'gearbox_mass_cost_coeff'
p319
F17.399999999999999
sS'chord_in'
p320
g8
(g9
(I0
tS'b'
tRp321
(I1
(I5
tg49
I00
S'gfffff\x12@\rnk\x0b\xcf\xab\x12@r\xe0\xd5rg\xf6\x17@t\xc8\xb4\xe7\x15\x10\x08@ \r\xe0-\x90\xa0\xb8?'
tbsS'precurve_in'
p322
g8
(g9
(I0
tS'b'
tRp323
(I1
(I5
tg49
I00
S'\x00\x00\x00\x00\x00\x00\x00\x80\x97\xcc\xb1\xbc\xab\x1e\xa0\xbf\x11\x02\xf2%Tp\xc6\xbf\xc5\xd5\x86\xdf>1\xeb\xbfU\x84\x9b\x8c*\xd3\x18\xc0'
tbsS'catLengFac'
p324
F0.040000000000000001
sS'Myb_damage'
p325
g8
(g9
(I0
tS'b'
tRp326
(I1
(I51
tg49
I00
S'\x11\xea-\x81\x99\x97q=\x11\xea-\x81\x99\x97q=\x11\xea-\x81\x99\x97q=\x11\xea-\x81\x99\x97q=\x11\xea-\x81\x99\x97q=\x11\xea-\x81\x99\x97q=\x11\xea-\x81\x99\x97q=\x11\xea-\x81\x99\x97q=\x11\xea-\x81\x99\x97q=\x11\xea-\x81\x99\x97q=\x11\xea-\x81\x99\x97q=\x11\xea-\x81\x99\x97q=\x11\xea-\x81\x99\x97q=\x11\xea-\x81\x99\x97q=\x11\xea-\x81\x99\x97q=\x11\xea-\x81\x99\x97q=\x11\xea-\x81\x99\x97q=\x11\xea-\x81\x99\x97q=\x11\xea-\x81\x99\x97q=\x11\xea-\x81\x99\x97q=\x11\xea-\x81\x99\x97q=\x11\xea-\x81\x99\x97q=\x11\xea-\x81\x99\x97q=\x11\xea-\x81\x99\x97q=\x11\xea-\x81\x99\x97q=\x11\xea-\x81\x99\x97q=\x11\xea-\x81\x99\x97q=\x11\xea-\x81\x99\x97q=\x11\xea-\x81\x99\x97q=\x11\xea-\x81\x99\x97q=\x11\xea-\x81\x99\x97q=\x11\xea-\x81\x99\x97q=\x11\xea-\x81\x99\x97q=\x11\xea-\x81\x99\x97q=\x11\xea-\x81\x99\x97q=\x11\xea-\x81\x99\x97q=\x11\xea-\x81\x99\x97q=\x11\xea-\x81\x99\x97q=\x11\xea-\x81\x99\x97q=\x11\xea-\x81\x99\x97q=\x11\xea-\x81\x99\x97q=\x11\xea-\x81\x99\x97q=\x11\xea-\x81\x99\x97q=\x11\xea-\x81\x99\x97q=\x11\xea-\x81\x99\x97q=\x11\xea-\x81\x99\x97q=\x11\xea-\x81\x99\x97q=\x11\xea-\x81\x99\x97q=\x11\xea-\x81\x99\x97q=\x11\xea-\x81\x99\x97q=\x11\xea-\x81\x99\x97q='
tbsS'offset_buoyancy_tank_height'
p327
F5
sS'offset_stiffener_spacing'
p328
g8
(g9
(I0
tS'b'
tRp329
(I1
(I4
tg12
I00
S'\x9a\x99\x99\x99\x99\x99\xd9?\x9a\x99\x99\x99\x99\x99\xd9?\x9a\x99\x99\x99\x99\x99\xd9?\x9a\x99\x99\x99\x99\x99\xd9?'
tbsS'gamma_freq'
p330
F1.1000000000000001
sS'hss_mass'
p331
F1492.45
sS'painting_cost_rate'
p332
F14.4
sS'placeTP'
p333
F3
sS'nac_mass'
p334
F446036.25
sS'buryRate'
p335
F125
sS'max_survival_heel'
p336
F15
sS'shearExp'
p337
F0.11
sS'outConShelfLease'
p338
F1000000
sS'addLocPerm'
p339
F200000
sS'project_lifetime'
p340
F20
sS'hvac_mass'
p341
F1000
sS'offset_stiffener_flange_width'
p342
g8
(g9
(I0
tS'b'
tRp343
(I1
(I4
tg12
I00
S'\x9a\x99\x99\x99\x99\x99\xb9?\x9a\x99\x99\x99\x99\x99\xb9?\x9a\x99\x99\x99\x99\x99\xb9?\x9a\x99\x99\x99\x99\x99\xb9?'
tbsS'nCrane600'
p344
F0
sS'installStrategy'
p345
I0
sS'distPort'
p346
F90
sS'fairlead_support_wall_thickness'
p347
g32
(g33
S'\xb1D\x0e\x07\xf2f\x7f?'
tRp348
sS'removeHamJack'
p349
F4
sS'labor_cost_rate'
p350
F1
sS'mtransCR'
p351
F3230
sS'boltNacelle1'
p352
F7
sS'mpileCR'
p353
F2250
sS'boltNacelle3'
p354
F7
sS'boltNacelle2'
p355
F7
sS'hubloss'
p356
I01
sS'cab1TurbInterCR'
p357
F8410
sS'bearing_number'
p358
I2
sS'offset_stiffener_web_thickness'
p359
g8
(g9
(I0
tS'b'
tRp360
(I1
(I4
tg12
I00
S'{\x14\xaeG\xe1z\xa4?{\x14\xaeG\xe1z\xa4?{\x14\xaeG\xe1z\xa4?{\x14\xaeG\xe1z\xa4?'
tbsS'loading'
p361
S'hydrostatic'
p362
sS'lower_ring_pontoons_int'
p363
I0
sS'main_stiffener_web_height'
p364
g8
(g9
(I0
tS'b'
tRp365
(I1
(I4
tg12
I00
S'\xd1\x1c\xa4\xe6\xa7m\xeb?\xd1\x1c\xa4\xe6\xa7m\xeb?\xd1\x1c\xa4\xe6\xa7m\xeb?\xd1\x1c\xa4\xe6\xa7m\xeb?'
tbsS'expVoltage'
p366
F220
sS'controls_cost_base'
p367
g8
(g9
(I0
tS'b'
tRp368
(I1
(I2
tg11
(S'f8'
I0
I1
tRp369
(I3
S'<'
NNNI-1
I-1
I0
tbI00
S'\x00\x00\x00\x00\x00\x17\xe1@\x00\x00\x00\x00\x80K\xeb@'
tbsS'fairlead_offset_from_shell'
p370
F0.5
sS'rna_weightM'
p371
I01
sS'shuntCR'
p372
F35000
sS'dockRate'
p373
F3000
sS'subsVessPos'
p374
F6
sS'civilWork'
p375
F40000
sS'towerInstallMethod'
p376
I0
sS'migBirdAct'
p377
F500000
sS'max_draft'
p378
F200
sS'theta_in'
p379
g8
(g9
(I0
tS'b'
tRp380
(I1
(I5
tg49
I00
S'\x00\x00\x00\x00\x00\x00-@9\xb4\xc8v\xbe\x9f*@L7\x89A`\xe5\x1a@<r\x8e\x14\xc5X\xa1\xbf\x84l\xe7\xfb\xa9\xf1\xa2\xbf'
tbsS'cabDrillDist'
p381
F500
sS'topAssemblyFac'
p382
F0.074999999999999997
sS'fairlead_support_outer_diameter'
p383
g32
(g33
S'o\x9c\x9f\x04\xea\x95"@'
tRp384
sS'interConVolt'
p385
F345
sS'offset_bulkhead_thickness'
p386
g8
(g9
(I0
tS'b'
tRp387
(I1
(I5
tg167
I00
S'\x9a\x99\x99\x99\x99\x99\xa9?\x9a\x99\x99\x99\x99\x99\xa9?\x00\x00\x00\x00\x00\x00\x00\x00\x00\x00\x00\x00\x00\x00\x00\x00\x9a\x99\x99\x99\x99\x99\xa9?'
tbsS'controls_esc'
p388
F1.5
sS'm_damage'
p389
F10
sS'shell_mass_factor'
p390
F1
sS'tower_mass_cost_coeff'
p391
F3.2000000000000002
sS'nBlades'
p392
I3
sS'expCabMass'
p393
F71.900000000000006
sS'subsPileCR'
p394
F2250
sS'wharfRate'
p395
F2.75
sS'Rhub'
p396
F1.125
sS'vs_electronics_mass_cost_coeff'
p397
F26.5
sS'tower_outfitting_factor'
p398
F1.0700000000000001
sS'scourMat'
p399
F250000
sS'laydownCR'
p400
F0.25
sS'hub_assemblyCostMultiplier'
p401
F0
sS'anchor_type'
p402
S'suctionpile'
p403
sS'jlatticeA'
p404
F26
sS'drivetrainType'
p405
I0
sS'pitch_extreme'
p406
F0
sS'main_wall_thickness'
p407
g8
(g9
(I0
tS'b'
tRp408
(I1
(I4
tg12
I00
S'\xe2\xf3n*\x1f\r\xb5?\xe2\xf3n*\x1f\r\xb5?\xe2\xf3n*\x1f\r\xb5?\xe2\xf3n*\x1f\r\xb5?'
tbsS'mean_current_speed'
p409
F0
sS'nac_cm'
p410
g8
(g9
(I0
tS'b'
tRp411
(I1
(I3
tg49
I00
S'\x85\xebQ\xb8\x1e\x85\x05@\x00\x00\x00\x00\x00\x00\x00\x00333333\x03@'
tbsS'subsTopDes'
p412
F4500000
sS'moorLoadout'
p413
F5
sS'tower_section_height'
p414
g8
(g9
(I0
tS'b'
tRp415
(I1
(I3
tg12
I00
S'UUUUU\xd5C@UUUUU\xd5C@UUUUU\xd5C@'
tbsS'navStudyProj'
p416
F250000
sS'buryFac'
p417
F0.10000000000000001
sS'cab2CR'
p418
F202.78800000000001
sS'air_density'
p419
F1.198
sS'offset_section_height'
p420
g8
(g9
(I0
tS'b'
tRp421
(I1
(I4
tg77
I00
S'\x9a\x99\x99\x99\x99\x99\x19@\x9a\x99\x99\x99\x99\x99\x19@\x9a\x99\x99\x99\x99\x99)@\x9a\x99\x99\x99\x99\x99\x19@'
tbsS'strain_ult_te'
p422
F0.0050000000000000001
sS'turbine_overheadCostMultiplier'
p423
F0
sS'placePiles'
p424
F12
sS'main_permanent_ballast_height'
p425
g32
(g33
S'\xeb\xe0+\xb6G\xc4\x15@'
tRp426
sS'diveTeamDR'
p427
F3200
sS'arrayY'
p428
F9
sS'bedplate_mass'
p429
F93090.600000000006
sS'mooring_line_length'
p430
g32
(g33
S'\x19;T\xc7\x90\xd2\x91@'
tRp431
sS'wind_reference_speed'
p432
F11
sS'control_maxOmega'
p433
F8.887659696962098
sS'crane'
p434
I00
sS'hub_mass_cost_coeff'
p435
F3.7999999999999998
sS'operational_heel'
p436
F6
sS'removeHamMono'
p437
F2
sS'connection_ratio_max'
p438
F0.25
sS'hss_mass_cost_coeff'
p439
F8.25
sS'spMoorCheck'
p440
F16
sS'spinner_mass_cost_coeff'
p441
F23
sS'pileSpreadDR'
p442
F2500
sS'lss_mass'
p443
F31257.299999999999
sS'mooring_lines_per_connection'
p444
g32
(g33
S'\x00\x00\x00\x00\x00\x00\x00@'
tRp445
sS'anchor_radius'
p446
g32
(g33
S'\x83`2u\xd0.\x8f@'
tRp447
sS'pontoon_outer_diameter'
p448
F3.2000000000000002
sS'moorTimeFac'
p449
F0.0050000000000000001
sS'shorePullIn'
p450
F96
sS'natHisPresAct'
p451
F250000
sS'scrapVal'
p452
F0
sS'mooring_cost_rate'
p453
F1.1000000000000001
sS'bedplate_mass_cost_coeff'
p454
F4.5
sS'nu'
p455
F0.26000000000000001
sS'arrCab2Mass'
p456
F21.853999999999999
sS'E'
F200000000000
sS'cab2CurrRating'
p457
F340
sS'boltTower'
p458
F7
sS'cabLoadout'
p459
F14
sS'subsPullIn'
p460
F48
sS'vesselPosJack'
p461
F8
sS'nacelle_assemblyCostMultiplier'
p462
F0
sS'install_contingency'
p463
F0.29999999999999999
sS'mooring_type'
p464
S'chain'
p465
sS'decomDiscRate'
p466
F0.029999999999999999
s(lp467
(lp468
S'fairlead_location'
p469
aF0
aF1
aa(lp470
S'fairlead_support_wall_thickness'
p471
aF0.001
aF1
aa(lp472
S'fairlead_support_outer_diameter'
p473
aF0.10000000000000001
aF10
aa(lp474
S'main_freeboard'
p475
aF0
aF50
aa(lp476
S'main_section_height'
p477
aF0.10000000000000001
aF50
aa(lp478
S'main_outer_diameter'
p479
aF2.1000000000000001
aF20
aa(lp480
S'main_wall_thickness'
p481
aF0.001
aF0.5
aa(lp482
S'main_buoyancy_tank_diameter'
p483
aF0
aF50
aa(lp484
S'main_buoyancy_tank_height'
p485
aF0
aF20
aa(lp486
S'main_buoyancy_tank_location'
p487
aF0
aF1
aa(lp488
S'mooring_line_length'
p489
aF200
aF3000
aa(lp490
S'anchor_radius'
p491
aF100
aF5000
aa(lp492
S'mooring_diameter'
p493
aF0.050000000000000003
aF2
aa(lp494
S'main_permanent_ballast_height'
p495
aF0.10000000000000001
aF50
aa(lp496
S'main_stiffener_web_height'
p497
aF0.01
aF1
aa(lp498
S'main_stiffener_web_thickness'
p499
aF0.001
aF0.5
aa(lp500
S'main_stiffener_flange_width'
p501
aF0.01
aF5
aa(lp502
S'main_stiffener_flange_thickness'
p503
aF0.001
aF0.5
aa(lp504
S'main_stiffener_spacing'
p505
aF0.10000000000000001
aF100
aa(lp506
(lp507
S'tow.height_constraint'
p508
aF-0.01
aF0.01
aNaa(lp509
S'main.draft'
p510
aF0
aF200
aNaa(lp511
S'main.draft_margin'
p512
aF0
aF1
aNaa(lp513
S'main.wave_height_freeboard_ratio'
p514
aNaF1
aNaa(lp515
S'main.manufacturability'
p516
aF0
aNaNaa(lp517
S'main.weldability'
p518
aNaF0
aNaa(lp519
S'tower_transition_buffer'
p520
aF-1
aF1
aNaa(lp521
S'nacelle_transition_buffer'
p522
aF0
aNaNaa(lp523
S'axial_unity'
p524
aF0
aF1
aNaa(lp525
S'mooring_length_max'
p526
aNaF1
aNaa(lp527
S'main.flange_spacing_ratio'
p528
aNaF1
aNaa(lp529
S'main.stiffener_radius_ratio'
p530
aNaF0.5
aNaa(lp531
S'main.flange_compactness'
p532
aF1
aNaNaa(lp533
S'main.web_compactness'
p534
aF1
aNaNaa(lp535
S'main.axial_local_api'
p536
aNaF1
aNaa(lp537
S'main.axial_general_api'
p538
aNaF1
aNaa(lp539
S'main.external_local_api'
p540
aNaF1
aNaa(lp541
S'main.external_general_api'
p542
aNaF1
aNaa(lp543
S'tower_stress'
p544
aNaF1
aNaa(lp545
S'tower_shell_buckling'
p546
aNaF1
aNaa(lp547
S'tower_global_buckling'
p548
aNaF1
aNaa(lp549
S'main_stress'
p550
aNaF1
aNaa(lp551
S'main_shell_buckling'
p552
aNaF1
aNaa(lp553
S'main_global_buckling'
p554
aNaF1
aNaa(lp555
S'variable_ballast_height_ratio'
p556
aF0
aF1
aNaa(lp557
S'variable_ballast_mass'
p558
aF0
aNaNaa(lp559
S'metacentric_height'
p560
aF0.10000000000000001
aNaNaa(lp561
S'offset_force_ratio'
p562
aNaF1
aNaa(lp563
S'heel_moment_ratio'
p564
aNaF1
aNaa(lp565
S'period_margin_low'
p566
aNaF1
aNaa(lp567
S'period_margin_high'
p568
aF1
aNaNaa(lp569
S'Pn_margin'
p570
aNaF1
aNaa(lp571
S'P1_margin'
p572
aNaF1
aNaa(lp573
S'Pn_margin_cfem'
p574
aNaF1
aNaa(lp575
S'P1_margin_cfem'
p576
aNaF1
aNaa(lp577
S'rotor_strain_sparU'
p578
aF-1
aNaNaa(lp579
S'rotor_strain_sparL'
p580
aNaF1
aNaa(lp581
S'rotor_strain_teU'
p582
aF-1
aNaNaa(lp583
S'rotor_strain_teL'
p584
aNaF1
aNaa(lp585
S'rotor_buckling_sparU'
p586
aNaF1
aNaa(lp587
S'rotor_buckling_sparL'
p588
aNaF1
aNaa(lp589
S'rotor_buckling_teU'
p590
aNaF1
aNaa(lp591
S'rotor_buckling_teL'
p592
aNaF1
aNaa(lp593
S'rotor_damage_sparU'
p594
aNaF0
aNaa(lp595
S'rotor_damage_sparL'
p596
aNaF0
aNaa(lp597
S'rotor_damage_teU'
p598
aNaF0
aNaa(lp599
S'rotor_damage_teL'
p600
aNaF0
aNaa(lp601
S'ground_clearance'
p602
aF20
aNaNaa(S'structural_mass'
p603
F9.9999999999999995e-07
tp604
S'NM'
p605
t.