((dp1
S'rna_moment'
p2
cnumpy.core.multiarray
_reconstruct
p3
(cnumpy
ndarray
p4
(I0
tS'b'
tRp5
(I1
(I3
tcnumpy
dtype
p6
(S'f8'
I0
I1
tRp7
(I3
S'<'
NNNI-1
I-1
I0
tbI00
S'\xec*\xda\xf3O\xe7{A\xf8\xedw\x9a\x0e\xff\rA\xf1\x80S\xcaVvG\xc1'
tbsS'offset_permanent_ballast_height'
p8
cnumpy.core.multiarray
scalar
p9
(g6
(S'f8'
I0
I1
tRp10
(I3
S'<'
NNNI-1
I-1
I0
tbS'\xc4\xe2\x8c\xbb\xdc\x8b\xd4?'
tRp11
sS'rna_force'
p12
g3
(g4
(I0
tS'b'
tRp13
(I1
(I3
tg7
I00
S'\xcd\xcc\xccLc\x1e@A\x00\x00\x00\x00\x00\x00\x00\x00\xc3\xf5(\xec!\xffY\xc1'
tbsS'gamma_fatigue'
p14
F1.7549999999999999
sS'loading'
p15
S'hydrostatic'
p16
sS'lower_ring_pontoons_int'
p17
g9
(g10
S'\x00\x00\x00\x00\x00\x00\x00\x00'
tRp18
sS'main_stiffener_web_height'
p19
g3
(g4
(I0
tS'b'
tRp20
(I1
(I4
tg6
(S'f8'
I0
I1
tRp21
(I3
S'<'
NNNI-1
I-1
I0
tbI00
S'\xd5\xa8\xad\xc2[\xff\xef?\xd5\xa8\xad\xc2[\xff\xef?\xd5\xa8\xad\xc2[\xff\xef?\xd5\xa8\xad\xc2[\xff\xef?'
tbsS'zref'
p22
F119
sS'outfitting_cost_rate'
p23
F1.6500000000000001
sS'offset_buoyancy_tank_location'
p24
g9
(g10
S'\x01@N<\xb0\x84\xa4?'
tRp25
sS'main_stiffener_flange_width'
p26
g3
(g4
(I0
tS'b'
tRp27
(I1
(I4
tg21
I00
S'\x96\x98\x05!J\x05\xff?\x96\x98\x05!J\x05\xff?\x96\x98\x05!J\x05\xff?\x96\x98\x05!J\x05\xff?'
tbsS'max_taper_ratio'
p28
F0.40000000000000002
sS'main_stiffener_spacing'
p29
g3
(g4
(I0
tS'b'
tRp30
(I1
(I4
tg21
I00
S'\x8c\x93Z\xc8\x9ep"@\x8c\x93Z\xc8\x9ep"@\x8c\x93Z\xc8\x9ep"@\x8c\x93Z\xc8\x9ep"@'
tbsS'max_draft'
p31
F20
sS'T'
F9.8000000000000007
sS'bulkhead_mass_factor'
p32
F1
sS'wave_period_range_high'
p33
F20
sS'cross_attachment_pontoons_int'
p34
g9
(g10
S'\x00\x00\x00\x00\x00\x00\x00\x00'
tRp35
sS'outfitting_mass_fraction'
p36
F0.059999999999999998
sS'offset_buoyancy_tank_diameter'
p37
g9
(g10
S'\x85 \xa7\xc2y)%@'
tRp38
sS'main_outer_diameter'
p39
g3
(g4
(I0
tS'b'
tRp40
(I1
(I5
tg6
(S'f8'
I0
I1
tRp41
(I3
S'<'
NNNI-1
I-1
I0
tbI00
S'i\x07C\x15\x06@9@|E+H\xe6\x8e(@\x81\x0f\x94#?d\x1d@W\xec?W\xff\xba$@\x1d\xb3\xf9\x82\x9e\xae#@'
tbsS'rna_I'
p42
g3
(g4
(I0
tS'b'
tRp43
(I1
(I6
tg7
I00
S'\x00\x00\x00.b\xf5\xa3A\x00\x00\x00\x08)"\x99A\x00\x00\x00\xf0\x10Q\x94A\x00\x00\x00\x00\x00\x00\x00\x00\xa4p=\n\x98x7A\x00\x00\x00\x00\x00\x00\x00\x00'
tbsS'main.windLoads.mu'
p44
F1.8099999999999999e-05
sS'fairlead_support_outer_diameter'
p45
g9
(g10
S'r3\xa8\x14\xf1\xff#@'
tRp46
sS'offset_bulkhead_thickness'
p47
g3
(g4
(I0
tS'b'
tRp48
(I1
(I5
tg6
(S'f8'
I0
I1
tRp49
(I3
S'<'
NNNI-1
I-1
I0
tbI00
S'\x9a\x99\x99\x99\x99\x99\xa9?\x9a\x99\x99\x99\x99\x99\xa9?\x00\x00\x00\x00\x00\x00\x00\x00\x00\x00\x00\x00\x00\x00\x00\x00\x9a\x99\x99\x99\x99\x99\xa9?'
tbsS'shell_mass_factor'
p50
F1
sS'main_pontoon_attach_upper'
p51
g9
(g10
S'\x1bn)l\xba\x9a\xed?'
tRp52
sS'rna_mass'
p53
F716904.15530069917
sS'tower_buckling_length'
p54
F30
sS'Hs'
p55
F10.800000000000001
sS'main_freeboard'
p56
g9
(g10
S'\x9a<\x93\xd9\x88\xff=@'
tRp57
sS'Rhub'
p58
F2.2999999999999998
sS'material_density'
p59
F7850
sS'tower_outfitting_factor'
p60
F1.0700000000000001
sS'tower_outer_diameter'
p61
g3
(g4
(I0
tS'b'
tRp62
(I1
(I4
tg21
I00
S'\x00\x00\x00\x00\x00\x00"@\x00\x00\x00\x00\x00\x00\x1d@\x00\x00\x00\x00\x00\x00\x1d@\x00\x00\x00\x00\x00\x00\x16@'
tbsS'anchor_type'
p63
S'suctionpile'
p64
sS'G'
F79300000000
sS'fairlead_location'
p65
g9
(g10
S'j\xa5>\x04\x84\xd0\xcb?'
tRp66
sS'max_offset'
p67
F100
sS'max_survival_heel'
p68
F15
sS'main.waveLoads.mu'
p69
F0.00088999999999999995
sS'permanent_ballast_density'
p70
F4492
sS'z0'
p71
F0
sS'Uc'
p72
F0
sS'material_cost_rate'
p73
F1.1000000000000001
sS'pontoon_wall_thickness'
p74
g9
(g10
S'CE\xb2_\x8a\x96\x94?'
tRp75
sS'number_of_offset_columns'
p76
I3
sS'radius_to_offset_column'
p77
g9
(g10
S'\x86}C\xf3\xc1\xedJ@'
tRp78
sS'tower_section_height'
p79
g3
(g4
(I0
tS'b'
tRp80
(I1
(I3
tg21
I00
S'UUUUU\xd5C@UUUUU\xd5C@UUUUU\xd5C@'
tbsS'main_buoyancy_tank_location'
p81
g9
(g10
S'f\xcf\xac\xd71\x99\xf1>'
tRp82
sS'cm'
p83
F2
sS'main_stiffener_flange_thickness'
p84
g3
(g4
(I0
tS'b'
tRp85
(I1
(I4
tg21
I00
S'\x08\x94\xfc\xf9\x87\xe0\xdf?\x08\x94\xfc\xf9\x87\xe0\xdf?\x08\x94\xfc\xf9\x87\xe0\xdf?\x08\x94\xfc\xf9\x87\xe0\xdf?'
tbsS'hub_cm'
p86
g3
(g4
(I0
tS'b'
tRp87
(I1
(I3
tg49
I00
S'ffffff\x1c\xc0\x00\x00\x00\x00\x00\x00\x00\x00\x00\x00\x00\x00\x00\x00\x06@'
tbsS'mooring_diameter'
p88
g9
(g10
S'\xf3\xd6j\x9c\x18\xba\xd1?'
tRp89
sS'gamma_m'
p90
F1.1000000000000001
sS'gamma_n'
p91
F1
sS'offset_section_height'
p92
g3
(g4
(I0
tS'b'
tRp93
(I1
(I4
tg41
I00
S'W5\x1d\xd5z\xbb\xee?rSn\xd8^\x17\xfc?\xee\xd90\xf8ua3@\xcd4\x9a\x97\x81:\x17@'
tbsS'main_bulkhead_thickness'
p94
g3
(g4
(I0
tS'b'
tRp95
(I1
(I5
tg49
I00
S'\x9a\x99\x99\x99\x99\x99\xa9?\x9a\x99\x99\x99\x99\x99\xa9?\x00\x00\x00\x00\x00\x00\x00\x00\x00\x00\x00\x00\x00\x00\x00\x00\x9a\x99\x99\x99\x99\x99\xa9?'
tbsS'yaw'
p96
F0
sS'gamma_f'
p97
F1.3500000000000001
sS'offset_freeboard'
p98
g9
(g10
S't\xec\x94\xbd\x10\xe2+@'
tRp99
sS'gamma_b'
p100
F1.1000000000000001
sS'tip_position'
p101
g3
(g4
(I0
tS'b'
tRp102
(I1
(I3
tg49
I00
S'\x9c\xc4 \xb0rh\x0c\xc0\x00\x00\x00\x00\x00\x00\x00\x00\x1b/\xdd$\x06\x815@'
tbsS'z_offset'
p103
F0
sS'ballast_cost_rate'
p104
F0.10000000000000001
sS'number_of_mooring_connections'
p105
I3
sS'offset_stiffener_web_thickness'
p106
g3
(g4
(I0
tS'b'
tRp107
(I1
(I4
tg21
I00
S']\xe9"\x05-\x9c\xdf?]\xe9"\x05-\x9c\xdf?]\xe9"\x05-\x9c\xdf?]\xe9"\x05-\x9c\xdf?'
tbsS'mooring_line_length'
p108
g9
(g10
S'\x7f\xdcx\xfb\x03\x98\xa6@'
tRp109
sS'downwind'
p110
I00
sS'outer_cross_pontoons_int'
p111
g9
(g10
S'\x00\x00\x00\x00\x00\x00\x00\x00'
tRp112
sS'water_depth'
p113
F320
sS'main_buoyancy_tank_diameter'
p114
g9
(g10
S"\xf5~'5\xa0\xd3\x1d@"
tRp115
sS'column_mass_factor'
p116
F1.05
sS'operational_heel'
p117
F6
sS'offset_outer_diameter'
p118
g3
(g4
(I0
tS'b'
tRp119
(I1
(I5
tg41
I00
S'L\xb7\xce\xa9\xd0\x02(@\xcf\x190\x9e\xdb}:@S\xfe\xa7\x1c\x8e}%@\xc7FXKL\x8d"@\x81\xcc\x15\x85\x99\x02\x19@'
tbsS'yield_stress'
p120
F345000000
sS'main_wall_thickness'
p121
g3
(g4
(I0
tS'b'
tRp122
(I1
(I4
tg21
I00
S':\xea\xf2Q\x01\r\xaf?:\xea\xf2Q\x01\r\xaf?:\xea\xf2Q\x01\r\xaf?:\xea\xf2Q\x01\r\xaf?'
tbsS'connection_ratio_max'
p123
F0.25
sS'ring_mass_factor'
p124
F1
sS'upper_ring_pontoons_int'
p125
g9
(g10
S'\x00\x00\x00\x00\x00\x00\x00\x00'
tRp126
sS'main_stiffener_web_thickness'
p127
g3
(g4
(I0
tS'b'
tRp128
(I1
(I4
tg21
I00
S'\xe2s\x86|x\xf3\xdf?\xe2s\x86|x\xf3\xdf?\xe2s\x86|x\xf3\xdf?\xe2s\x86|x\xf3\xdf?'
tbsS'lower_attachment_pontoons_int'
p129
g9
(g10
S'\x00\x00\x00\x00\x00\x00\xf0?'
tRp130
sS'water_density'
p131
F1025
sS'main_buoyancy_tank_height'
p132
g9
(g10
S'\xfd%\xa2\xfc\xbf\r\xfe?'
tRp133
sS'cd_usr'
p134
Finf
sS'min_diameter_thickness_ratio'
p135
F120
sS'offset_wall_thickness'
p136
g3
(g4
(I0
tS'b'
tRp137
(I1
(I4
tg21
I00
S'\xf4)-o\xd6\r\xc3?\xf4)-o\xd6\r\xc3?\xf4)-o\xd6\r\xc3?\xf4)-o\xd6\r\xc3?'
tbsS'offset_buoyancy_tank_height'
p138
g9
(g10
S'\xf0Y\xc0Cn\x9f\x0b@'
tRp139
sS'main_section_height'
p140
g3
(g4
(I0
tS'b'
tRp141
(I1
(I4
tg41
I00
S"4\xb6\xb3\xbf\x80j'@\xfd\x12\xc1\xdc\x15\xa6\xf8?H#\xdb>\xe5\x8f2@ \x8a\x83\x87\x7f<'@"
tbsS'Uref'
p142
F11
sS'anchor_radius'
p143
g9
(g10
S'\xc5\xe6/\xed\xbe\xd8\xa5@'
tRp144
sS'rna_cg'
p145
g3
(g4
(I0
tS'b'
tRp146
(I1
(I3
tg7
I00
S'\x1e\x01\x16\xd8\xe7Z\xe3\xbf\x00\x00\x00\x00\x00\x00\x00\x00\x0e\xb4L\xd0p$\x04@'
tbsS'pontoon_outer_diameter'
p147
g9
(g10
S'B\x82\xc8O!\xc8!@'
tRp148
sS'fairlead_support_wall_thickness'
p149
g9
(g10
S'$\x00#\xdeIE\x93?'
tRp150
sS'fairlead_offset_from_shell'
p151
F6.0004865405187147
sS'tower_wall_thickness'
p152
g3
(g4
(I0
tS'b'
tRp153
(I1
(I3
tg21
I00
S'\x90\xebQ\xb8\x1e\x85\xd3?\x90\xebQ\xb8\x1e\x85\xd3?\x90\xebQ\xb8\x1e\x85\xd3?'
tbsS'mooring_cost_rate'
p154
F1.1000000000000001
sS'painting_cost_rate'
p155
F14.4
sS'nu'
p156
F0.26000000000000001
sS'E'
F200000000000
sS'wave_period_range_low'
p157
F2
sS'main_pontoon_attach_lower'
p158
g9
(g10
S'o+\x9b\x8fcR\xba?'
tRp159
sS'offset_stiffener_flange_thickness'
p160
g3
(g4
(I0
tS'b'
tRp161
(I1
(I4
tg21
I00
S'\xee\x10/\x8ab\xc3\xdf?\xee\x10/\x8ab\xc3\xdf?\xee\x10/\x8ab\xc3\xdf?\xee\x10/\x8ab\xc3\xdf?'
tbsS'main.windLoads.rho'
p162
F1.198
sS'beta'
p163
F0
sS'shearExp'
p164
F0.11
sS'mooring_lines_per_connection'
p165
g9
(g10
S'\x00\x00\x00\x00\x00\x00\x00@'
tRp166
sS'main_permanent_ballast_height'
p167
g9
(g10
S'J\xa9?\xf7\x8d\x05\x12@'
tRp168
sS'offset_stiffener_flange_width'
p169
g3
(g4
(I0
tS'b'
tRp170
(I1
(I4
tg21
I00
S'\xacI\xf1\xf0d`\xed?\xacI\xf1\xf0d`\xed?\xacI\xf1\xf0d`\xed?\xacI\xf1\xf0d`\xed?'
tbsS'offset_stiffener_spacing'
p171
g3
(g4
(I0
tS'b'
tRp172
(I1
(I4
tg21
I00
S'\x18?\xa8\xee\x17!\x0b@\x18?\xa8\xee\x17!\x0b@\x18?\xa8\xee\x17!\x0b@\x18?\xa8\xee\x17!\x0b@'
tbsS'mooring_type'
p173
S'chain'
p174
sS'hub_height'
p175
F149
sS'upper_attachment_pontoons_int'
p176
g9
(g10
S'\x00\x00\x00\x00\x00\x00\x00\x00'
tRp177
sS'labor_cost_rate'
p178
F1
sS'offset_stiffener_web_height'
p179
g3
(g4
(I0
tS'b'
tRp180
(I1
(I4
tg21
I00
S'\xd31W\x1aDJ\xda?\xd31W\x1aDJ\xda?\xd31W\x1aDJ\xda?\xd31W\x1aDJ\xda?'
tbs(lp181
(lp182
S'fairlead_location'
p183
aF0
aF1
aa(lp184
S'fairlead_support_wall_thickness'
p185
aF0.001
aF1
aa(lp186
S'fairlead_support_outer_diameter'
p187
aF0.10000000000000001
aF10
aa(lp188
S'main_freeboard'
p189
aF0
aF50
aa(lp190
S'main_section_height'
p191
aF0.10000000000000001
aF50
aa(lp192
S'main_outer_diameter'
p193
aF2.1000000000000001
aF40
aa(lp194
S'main_wall_thickness'
p195
aF0.001
aF0.5
aa(lp196
S'main_buoyancy_tank_diameter'
p197
aF0
aF50
aa(lp198
S'main_buoyancy_tank_height'
p199
aF0
aF20
aa(lp200
S'main_buoyancy_tank_location'
p201
aF0
aF1
aa(lp202
S'offset_freeboard'
p203
aF2
aF15
aa(lp204
S'offset_section_height'
p205
aF0.10000000000000001
aF50
aa(lp206
S'offset_outer_diameter'
p207
aF1.1000000000000001
aF40
aa(lp208
S'offset_wall_thickness'
p209
aF0.001
aF0.5
aa(lp210
S'offset_buoyancy_tank_diameter'
p211
aF0
aF50
aa(lp212
S'offset_buoyancy_tank_height'
p213
aF0
aF20
aa(lp214
S'offset_buoyancy_tank_location'
p215
aF0
aF1
aa(lp216
S'pontoon_outer_diameter'
p217
aF1
aF10
aa(lp218
S'pontoon_wall_thickness'
p219
aF0.01
aF1
aa(lp220
S'main_pontoon_attach_lower'
p221
aF0
aF0.5
aa(lp222
S'main_pontoon_attach_upper'
p223
aF0.5
aF1
aa(lp224
S'mooring_line_length'
p225
aF200
aF3000
aa(lp226
S'anchor_radius'
p227
aF100
aF5000
aa(lp228
S'mooring_diameter'
p229
aF0.050000000000000003
aF2
aa(lp230
S'main_permanent_ballast_height'
p231
aF0.10000000000000001
aF50
aa(lp232
S'main_stiffener_web_height'
p233
aF0.01
aF1
aa(lp234
S'main_stiffener_web_thickness'
p235
aF0.001
aF0.5
aa(lp236
S'main_stiffener_flange_width'
p237
aF0.01
aF5
aa(lp238
S'main_stiffener_flange_thickness'
p239
aF0.001
aF0.5
aa(lp240
S'main_stiffener_spacing'
p241
aF0.10000000000000001
aF100
aa(lp242
S'offset_stiffener_web_height'
p243
aF0.01
aF1
aa(lp244
S'offset_stiffener_web_thickness'
p245
aF0.001
aF0.5
aa(lp246
S'offset_stiffener_flange_width'
p247
aF0.01
aF5
aa(lp248
S'offset_stiffener_flange_thickness'
p249
aF0.001
aF0.5
aa(lp250
S'offset_stiffener_spacing'
p251
aF0.10000000000000001
aF100
aa(lp252
S'offset_permanent_ballast_height'
p253
aF0.10000000000000001
aF50
aa(lp254
S'radius_to_offset_column'
p255
aF5
aF100
aa(lp256
(lp257
S'tow.height_constraint'
p258
aF-0.01
aF0.01
aNaa(lp259
S'main.draft'
p260
aF0
aF20
aNaa(lp261
S'off.draft'
p262
aF0
aF20
aNaa(lp263
S'main.draft_margin'
p264
aF0
aF1
aNaa(lp265
S'off.draft_margin'
p266
aF0
aF1
aNaa(lp267
S'main.wave_height_freeboard_ratio'
p268
aNaF1
aNaa(lp269
S'off.wave_height_freeboard_ratio'
p270
aNaF1
aNaa(lp271
S'main_offset_spacing'
p272
aF1
aNaNaa(lp273
S'main.manufacturability'
p274
aF0
aNaNaa(lp275
S'main.weldability'
p276
aNaF0
aNaa(lp277
S'off.manufacturability'
p278
aF0
aNaNaa(lp279
S'off.weldability'
p280
aNaF0
aNaa(lp281
S'tower_transition_buffer'
p282
aF-1
aF1
aNaa(lp283
S'nacelle_transition_buffer'
p284
aF0
aNaNaa(lp285
S'offset_freeboard_heel_margin'
p286
aF0
aNaNaa(lp287
S'offset_draft_heel_margin'
p288
aF0
aF20
aNaa(lp289
S'axial_unity'
p290
aF0
aF1
aNaa(lp291
S'mooring_length_max'
p292
aNaF1
aNaa(lp293
S'main.flange_spacing_ratio'
p294
aNaF1
aNaa(lp295
S'main.stiffener_radius_ratio'
p296
aNaF0.5
aNaa(lp297
S'main.flange_compactness'
p298
aF1
aNaNaa(lp299
S'main.web_compactness'
p300
aF1
aNaNaa(lp301
S'main.axial_local_api'
p302
aNaF1
aNaa(lp303
S'main.axial_general_api'
p304
aNaF1
aNaa(lp305
S'main.external_local_api'
p306
aNaF1
aNaa(lp307
S'main.external_general_api'
p308
aNaF1
aNaa(lp309
S'off.flange_spacing_ratio'
p310
aNaF1
aNaa(lp311
S'off.stiffener_radius_ratio'
p312
aNaF0.5
aNaa(lp313
S'off.flange_compactness'
p314
aF1
aNaNaa(lp315
S'off.web_compactness'
p316
aF1
aNaNaa(lp317
S'off.axial_local_api'
p318
aNaF1
aNaa(lp319
S'off.axial_general_api'
p320
aNaF1
aNaa(lp321
S'off.external_local_api'
p322
aNaF1
aNaa(lp323
S'off.external_general_api'
p324
aNaF1
aNaa(lp325
S'pontoon_stress'
p326
aNaF1
aNaa(lp327
S'tower_stress'
p328
aNaF1
aNaa(lp329
S'tower_shell_buckling'
p330
aNaF1
aNaa(lp331
S'tower_global_buckling'
p332
aNaF1
aNaa(lp333
S'main_stress'
p334
aNaF1
aNaa(lp335
S'main_shell_buckling'
p336
aNaF1
aNaa(lp337
S'main_global_buckling'
p338
aNaF1
aNaa(lp339
S'offset_stress'
p340
aNaF1
aNaa(lp341
S'offset_shell_buckling'
p342
aNaF1
aNaa(lp343
S'offset_global_buckling'
p344
aNaF1
aNaa(lp345
S'variable_ballast_height_ratio'
p346
aF0
aF1
aNaa(lp347
S'variable_ballast_mass'
p348
aF0
aNaNaa(lp349
S'metacentric_height'
p350
aF0.10000000000000001
aNaNaa(lp351
S'offset_force_ratio'
p352
aNaF1
aNaa(lp353
S'heel_moment_ratio'
p354
aNaF1
aNaa(lp355
S'period_margin_low'
p356
aNaF1
aNaa(lp357
S'period_margin_high'
p358
aF1
aNaNaa(S'structural_mass'
p359
F9.9999999999999995e-07
tp360
S'NM'
p361
t.