((dp1
S'rna_moment'
p2
cnumpy.core.multiarray
_reconstruct
p3
(cnumpy
ndarray
p4
(I0
tS'b'
tRp5
(I1
(I3
tcnumpy
dtype
p6
(S'f8'
I0
I1
tRp7
(I3
S'<'
NNNI-1
I-1
I0
tbI00
S'\xec*\xda\xf3O\xe7{A\xf8\xedw\x9a\x0e\xff\rA\xf1\x80S\xcaVvG\xc1'
tbsS'offset_permanent_ballast_height'
p8
cnumpy.core.multiarray
scalar
p9
(g6
(S'f8'
I0
I1
tRp10
(I3
S'<'
NNNI-1
I-1
I0
tbS'\xc1\x0eT\xb3\xb3\x7f\xd4?'
tRp11
sS'rna_force'
p12
g3
(g4
(I0
tS'b'
tRp13
(I1
(I3
tg7
I00
S'\xcd\xcc\xccLc\x1e@A\x00\x00\x00\x00\x00\x00\x00\x00\xc3\xf5(\xec!\xffY\xc1'
tbsS'gamma_fatigue'
p14
F1.7549999999999999
sS'loading'
p15
S'hydrostatic'
p16
sS'lower_ring_pontoons_int'
p17
g9
(g10
S'\x00\x00\x00\x00\x00\x00\x00\x00'
tRp18
sS'tapered_col_cost_rate'
p19
F4720
sS'main_stiffener_web_height'
p20
g3
(g4
(I0
tS'b'
tRp21
(I1
(I5
tg6
(S'f8'
I0
I1
tRp22
(I3
S'<'
NNNI-1
I-1
I0
tbI00
S'\x01I@\xc5\x02\x88\xdd?\x13\x86\xfaHb\xff\xef?\x91\xbcrl+f\xd1?nq\x7fn\x12\x8b\xe3?%\xe2-\xb8\xcec\x86?'
tbsS'zref'
p23
F119
sS'outfitting_cost_rate'
p24
F6980
sS'offset_buoyancy_tank_location'
p25
g9
(g10
S'\xe1fg\xfa]\xce\xa4?'
tRp26
sS'main_stiffener_flange_width'
p27
g3
(g4
(I0
tS'b'
tRp28
(I1
(I5
tg22
I00
S'Ye\xa0\xd8\xcaA\xb1?\xa8,\x0c\xd0\xa4\xe8\xd6?%&YS@\x9f\xff?^\xdf\x0fvzP\xf0?\x851^\xa3Z\xdb\xde?'
tbsS'max_taper_ratio'
p29
F0.40000000000000002
sS'tower_outfitting_factor'
p30
F1.0700000000000001
sS'max_draft'
p31
F20
sS'T'
F9.8000000000000007
sS'bulkhead_mass_factor'
p32
F1
sS'wave_period_range_high'
p33
F20
sS'cross_attachment_pontoons_int'
p34
g9
(g10
S'\x00\x00\x00\x00\x00\x00\x00\x00'
tRp35
sS'outfitting_mass_fraction'
p36
F0.059999999999999998
sS'offset_buoyancy_tank_diameter'
p37
g9
(g10
S'\xc52p\x84\xee %@'
tRp38
sS'main_outer_diameter'
p39
g3
(g4
(I0
tS'b'
tRp40
(I1
(I6
tg22
I00
S'\xd5\x85\xf0p\xd9$9@#\xc7X\x81\xee|)@h\xcb\x8f\n2<\x1d@\xae\xb3&_I\xe9$@\xeb\xc5\x9a\x95R\xbd!@\xf6a`\x93\xb1\xca#@'
tbsS'rna_I'
p41
g3
(g4
(I0
tS'b'
tRp42
(I1
(I6
tg7
I00
S'\x00\x00\x00.b\xf5\xa3A\x00\x00\x00\x08)"\x99A\x00\x00\x00\xf0\x10Q\x94A\x00\x00\x00\x00\x00\x00\x00\x00\xa4p=\n\x98x7A\x00\x00\x00\x00\x00\x00\x00\x00'
tbsS'main.windLoads.mu'
p43
F1.8099999999999999e-05
sS'fairlead_support_outer_diameter'
p44
g9
(g10
S'\xdd\x85\xd3\xf5\xf7\xff#@'
tRp45
sS'offset_bulkhead_thickness'
p46
g3
(g4
(I0
tS'b'
tRp47
(I1
(I6
tg7
I00
S'\x9a\x99\x99\x99\x99\x99\xa9?\x9a\x99\x99\x99\x99\x99\xa9?\x00\x00\x00\x00\x00\x00\x00\x00\x00\x00\x00\x00\x00\x00\x00\x00\x00\x00\x00\x00\x00\x00\x00\x00\x9a\x99\x99\x99\x99\x99\xa9?'
tbsS'mooring_max_offset'
p48
F100
sS'shell_mass_factor'
p49
F1
sS'main_pontoon_attach_upper'
p50
g9
(g10
S'\xa42<\x19W\xab\xed?'
tRp51
sS'rna_mass'
p52
F449282.40530069917
sS'tower_buckling_length'
p53
F30
sS'Hs'
p54
F10.800000000000001
sS'main_freeboard'
p55
g9
(g10
S'\xa3\x91\xaf\x85s\xff=@'
tRp56
sS'Rhub'
p57
F2.2999999999999998
sS'material_density'
p58
F7850
sS'main_stiffener_spacing'
p59
g3
(g4
(I0
tS'b'
tRp60
(I1
(I5
tg22
I00
S'tl\x8b!\xd1`%@\x91\xd3\x97\x03\xe0\x9a"@\x81\xd6\x8f"\xb5,.@>\xc12j\xf7\xe50@3\xb1\xc0Q\xd0\x7f:@'
tbsS'tower_outer_diameter'
p61
g3
(g4
(I0
tS'b'
tRp62
(I1
(I6
tg7
I00
S'\x00\x00\x00\x00\x00\x00"@\x00\x00\x00\x00\x00\x00"@\x9a\x99\x99\x99\x99\x99 @\xa4p=\n\xd7\xa3\x1b@\x00\x00\x00\x00\x00\x00\x16@\x00\x00\x00\x00\x00\x00\x16@'
tbsS'anchor_type'
p63
S'suctionpile'
p64
sS'G'
F79300000000
sS'fairlead_location'
p65
g9
(g10
S'\xcc\x01\x88\xd1\xd9\t\xcb?'
tRp66
sS'max_offset'
p67
F100
sS'max_survival_heel'
p68
F15
sS'main_stiffener_flange_thickness'
p69
g3
(g4
(I0
tS'b'
tRp70
(I1
(I5
tg22
I00
S'\x03:\xa3{3\xb4\xb1?\xc8\xeb\xd6\x95\xb40\xd7?iA\x94\x8d\xcd\x17\xc2?\xe5\xfc\x95\x02\xb5\xca\xdf?\xde\xcaFE\xeb\xb6\xc8?'
tbsS'permanent_ballast_density'
p71
F4492
sS'z0'
p72
F0
sS'Uc'
p73
F0
sS'offset_stiffener_web_thickness'
p74
g3
(g4
(I0
tS'b'
tRp75
(I1
(I5
tg22
I00
S'\xefSTH\xb8\x8b\xdf?>u-\xde\xdd\x12\xc4?+\xbf\xa2\t\x1fux?\xb6tE\x00\x93\x1el?\xc3\xf0\x02\xf4\xe7\xd9\x97?'
tbsS'pontoon_wall_thickness'
p76
g9
(g10
S'\xac\xb1\xb5o\xea\xdf\x94?'
tRp77
sS'number_of_offset_columns'
p78
I3
sS'radius_to_offset_column'
p79
g9
(g10
S'\xda\xd2\xee\xa2`\xc2J@'
tRp80
sS'tower_section_height'
p81
g3
(g4
(I0
tS'b'
tRp82
(I1
(I5
tg7
I00
S'\x00\x00\x00\x00\x00\x00$@\x00\x10\xaeG\xe1z\x84?\xc3\xf5(\\\x8fBJ@\xcc\xcc\xcc\xcc\xcc\x8cJ@\x00)\\\x8f\xc2\xf5\n@'
tbsS'main_buoyancy_tank_location'
p83
g9
(g10
S'A\xeaW\xf6\xe0\x9b\xf1>'
tRp84
sS'cm'
p85
F2
sS'main.waveLoads.mu'
p86
F0.00088999999999999995
sS'mooring_diameter'
p87
g9
(g10
S'\x01\xfa\xf2mg\xc6\xd1?'
tRp88
sS'gamma_m'
p89
F1.1000000000000001
sS'gamma_n'
p90
F1
sS'offset_section_height'
p91
g3
(g4
(I0
tS'b'
tRp92
(I1
(I5
tg22
I00
S'\xa3\x9f,C\xdd\xaf\xee?\xdfw\x8f\xa3\xea\xf4\xfb?\x0c\xe1\xfd\x8b\xae\xfb2@\xdb4z([0\xd8?c\x84,&\xf50\x17@'
tbsS'main_bulkhead_thickness'
p93
g3
(g4
(I0
tS'b'
tRp94
(I1
(I6
tg7
I00
S'\x9a\x99\x99\x99\x99\x99\xa9?\x9a\x99\x99\x99\x99\x99\xa9?\x00\x00\x00\x00\x00\x00\x00\x00\x00\x00\x00\x00\x00\x00\x00\x00\x00\x00\x00\x00\x00\x00\x00\x00\x9a\x99\x99\x99\x99\x99\xa9?'
tbsS'yaw'
p95
F0
sS'gamma_f'
p96
F1.3500000000000001
sS'offset_freeboard'
p97
g9
(g10
S'\x83<\x96L\xac\xdd+@'
tRp98
sS'gamma_b'
p99
F1.1000000000000001
sS'z_offset'
p100
F0
sS'ballast_cost_rate'
p101
F100
sS'number_of_mooring_connections'
p102
I3
sS'mooring_line_length'
p103
g9
(g10
S's\xf4)\x85\xb7\x96\xa6@'
tRp104
sS'outer_cross_pontoons_int'
p105
g9
(g10
S'\x00\x00\x00\x00\x00\x00\x00\x00'
tRp106
sS'water_depth'
p107
F320
sS'main_buoyancy_tank_diameter'
p108
g9
(g10
S'\xe7\xad\xc9.G\x03\x1e@'
tRp109
sS'column_mass_factor'
p110
F1.05
sS'operational_heel'
p111
F6
sS'offset_outer_diameter'
p112
g3
(g4
(I0
tS'b'
tRp113
(I1
(I6
tg22
I00
S'\xf2\x8fm`K\xd4\'@\x17oF\x96\xac\x85:@8\x84o\xa5\xa2n%@\xb5\xd3\xbc\xb9\xb4\x7f"@\xe5\n\x0edau\x1a@\x92g\x82\xb4\x15\xdc\x18@'
tbsS'yield_stress'
p114
F345000000
sS'main_wall_thickness'
p115
g3
(g4
(I0
tS'b'
tRp116
(I1
(I6
tg22
I00
S'!\xe9\x1e\x9bfT\xaa?\xde\x18\x8a\xc9?E\xaf?\x8f\xae\x86*\xd2Y\xae?\xd7Qx1\xef^\xa4?s\xf2\xb6p\x99\xb8\xa6?QG\xfa\x85\x9d\xb8\xad?'
tbsS'connection_ratio_max'
p117
F0.25
sS'ring_mass_factor'
p118
F1
sS'upper_ring_pontoons_int'
p119
g9
(g10
S'\x00\x00\x00\x00\x00\x00\x00\x00'
tRp120
sS'main_stiffener_web_thickness'
p121
g3
(g4
(I0
tS'b'
tRp122
(I1
(I5
tg22
I00
S'\x9f\x0cr\xe0\xa1\xe6\xb6?*\xd4/-_\xee\xdf?Q\xc4F\xdf\xe2\xe7\xc5?\x8a\xdf\x078\xd1q\xc1?\x7f\xcfIU\xd5s\xac?'
tbsS'lower_attachment_pontoons_int'
p123
g9
(g10
S'\x00\x00\x00\x00\x00\x00\xf0?'
tRp124
sS'water_density'
p125
F1025
sS'main_buoyancy_tank_height'
p126
g9
(g10
S'\t\xdb\x06\x00\xea-\xfe?'
tRp127
sS'cd_usr'
p128
Finf
sS'min_diameter_thickness_ratio'
p129
F120
sS'offset_wall_thickness'
p130
g3
(g4
(I0
tS'b'
tRp131
(I1
(I6
tg22
I00
S'h#i\xa2\xb7[\xb9?2\xf7o\x0b&\x97\xc9?\x83b2p+\xe2\xb4?\x0b1\xd4\xa0\xd7\xeb\x95?o\x07\xb4\x18\xc1N\xa6?O\xf8|\x81\x13Yq?'
tbsS'offset_buoyancy_tank_height'
p132
g9
(g10
S"\xc2\x8d\xb0\xcc\xd9'\x0b@"
tRp133
sS'main_section_height'
p134
g3
(g4
(I0
tS'b'
tRp135
(I1
(I5
tg22
I00
S"G\xbf\xae\xe7\xe6\xca'@D\xb2\xff\n\xae\xda\xf8?cTu\x12}a\x1b@/y\xc7\x9e\xcbi'@A\x004\x0e\x9b7'@"
tbsS'Uref'
p136
F11
sS'anchor_radius'
p137
g9
(g10
S'i\xa8\x1e<\xfc\xda\xa5@'
tRp138
sS'rna_cg'
p139
g3
(g4
(I0
tS'b'
tRp140
(I1
(I3
tg7
I00
S'\x1e\x01\x16\xd8\xe7Z\xe3\xbf\x00\x00\x00\x00\x00\x00\x00\x00\x0e\xb4L\xd0p$\x04@'
tbsS'pontoon_outer_diameter'
p141
g9
(g10
S'\xc4x\xc0\x0e\x83\xb4!@'
tRp142
sS'fairlead_support_wall_thickness'
p143
g9
(g10
S']\xb53\xfc\xa1\x1a\x93?'
tRp144
sS'fairlead_offset_from_shell'
p145
F6.0004865405187147
sS'tower_wall_thickness'
p146
g3
(g4
(I0
tS'b'
tRp147
(I1
(I6
tg7
I00
S'\xe0\xa3p=\n\xd7\xd3?@33333\xd3?\x00R\xb8\x1e\x85\xeb\xc1?@\\\x8f\xc2\xf5(\xbc?\x80\x1e\x85\xebQ\xb8\xae?\x80\x1e\x85\xebQ\xb8\xae?'
tbsS'mooring_cost_rate'
p148
F1.1000000000000001
sS'nu'
p149
F0.26000000000000001
sS'E'
F200000000000
sS'wave_period_range_low'
p150
F2
sS'main_pontoon_attach_lower'
p151
g9
(g10
S'".0\x94\xcf\x12\xba?'
tRp152
sS'offset_stiffener_flange_thickness'
p153
g3
(g4
(I0
tS'b'
tRp154
(I1
(I5
tg22
I00
S'cs&\x8e;p\xd3?\x18\x8a\xb2\xa6\xd5\xc4\xdf?\x97SH#\x84\x18\xcc?\xcd/\nr\xc5@\xc4?\x8fQ\xc9\x08\x89=\xc4?'
tbsS'main.windLoads.rho'
p155
F1.198
sS'beta'
p156
F0
sS'shearExp'
p157
F0.11
sS'mooring_lines_per_connection'
p158
g9
(g10
S'\x00\x00\x00\x00\x00\x00\x00@'
tRp159
sS'main_permanent_ballast_height'
p160
g9
(g10
S'\x9c\xe4\xb7zn\xaf\x11@'
tRp161
sS'offset_stiffener_flange_width'
p162
g3
(g4
(I0
tS'b'
tRp163
(I1
(I5
tg22
I00
S'\x18\xb1^\xf7\xb5\x1d\xe1?6\xbf\xa0 \xea\x95\xa8?\xbf\x88\xd9\xfd$\xd3\xd8?\x8e\t\xda;\x96\x8a\xc5?a\xd2\x15\x88jR\xed?'
tbsS'offset_stiffener_spacing'
p164
g3
(g4
(I0
tS'b'
tRp165
(I1
(I5
tg22
I00
S'H\xe8D\x9b\xe3\xd4\n@\x05\xde\xb1\x0e\xe0D>@\r\xb1\x06\x91:\xf6J@@\xd9\xe8F\xb3\x05*@CC\xc4P\x90\xd1.@'
tbsS'mooring_type'
p166
S'chain'
p167
sS'hub_height'
p168
F149
sS'upper_attachment_pontoons_int'
p169
g9
(g10
S'\x00\x00\x00\x00\x00\x00\x00\x00'
tRp170
sS'offset_stiffener_web_height'
p171
g3
(g4
(I0
tS'b'
tRp172
(I1
(I5
tg22
I00
S'E\xe8n\xd2\xf2,\xc7?\r8u\x9dWd\xda?\xb0oXS"$\xc1?\\\xfc\xd7\x8aK\x14\xb2?\x0bRK\xb9\x1c\x7f\xbc?'
tbsS'pontoon_cost_rate'
p173
F6.25
s(lp174
(lp175
S'fairlead_location'
p176
aF0
aF1
aa(lp177
S'fairlead_support_wall_thickness'
p178
aF0.001
aF1
aa(lp179
S'fairlead_support_outer_diameter'
p180
aF0.10000000000000001
aF10
aa(lp181
S'main_freeboard'
p182
aF0
aF50
aa(lp183
S'main_section_height'
p184
aF0.10000000000000001
aF50
aa(lp185
S'main_outer_diameter'
p186
aF2.1000000000000001
aF40
aa(lp187
S'main_wall_thickness'
p188
aF0.001
aF0.5
aa(lp189
S'main_buoyancy_tank_diameter'
p190
aF0
aF50
aa(lp191
S'main_buoyancy_tank_height'
p192
aF0
aF20
aa(lp193
S'main_buoyancy_tank_location'
p194
aF0
aF1
aa(lp195
S'offset_freeboard'
p196
aF2
aF15
aa(lp197
S'offset_section_height'
p198
aF0.10000000000000001
aF50
aa(lp199
S'offset_outer_diameter'
p200
aF1.1000000000000001
aF40
aa(lp201
S'offset_wall_thickness'
p202
aF0.001
aF0.5
aa(lp203
S'offset_buoyancy_tank_diameter'
p204
aF0
aF50
aa(lp205
S'offset_buoyancy_tank_height'
p206
aF0
aF20
aa(lp207
S'offset_buoyancy_tank_location'
p208
aF0
aF1
aa(lp209
S'pontoon_outer_diameter'
p210
aF1
aF10
aa(lp211
S'pontoon_wall_thickness'
p212
aF0.01
aF1
aa(lp213
S'main_pontoon_attach_lower'
p214
aF0
aF0.5
aa(lp215
S'main_pontoon_attach_upper'
p216
aF0.5
aF1
aa(lp217
S'mooring_line_length'
p218
aF200
aF3000
aa(lp219
S'anchor_radius'
p220
aF100
aF5000
aa(lp221
S'mooring_diameter'
p222
aF0.050000000000000003
aF2
aa(lp223
S'main_permanent_ballast_height'
p224
aF0.10000000000000001
aF50
aa(lp225
S'main_stiffener_web_height'
p226
aF0.01
aF1
aa(lp227
S'main_stiffener_web_thickness'
p228
aF0.001
aF0.5
aa(lp229
S'main_stiffener_flange_width'
p230
aF0.01
aF5
aa(lp231
S'main_stiffener_flange_thickness'
p232
aF0.001
aF0.5
aa(lp233
S'main_stiffener_spacing'
p234
aF0.10000000000000001
aF100
aa(lp235
S'offset_stiffener_web_height'
p236
aF0.01
aF1
aa(lp237
S'offset_stiffener_web_thickness'
p238
aF0.001
aF0.5
aa(lp239
S'offset_stiffener_flange_width'
p240
aF0.01
aF5
aa(lp241
S'offset_stiffener_flange_thickness'
p242
aF0.001
aF0.5
aa(lp243
S'offset_stiffener_spacing'
p244
aF0.10000000000000001
aF100
aa(lp245
S'offset_permanent_ballast_height'
p246
aF0.10000000000000001
aF50
aa(lp247
S'radius_to_offset_column'
p248
aF5
aF100
aa(lp249
(lp250
S'tow.height_constraint'
p251
aF-0.01
aF0.01
aNaa(lp252
S'main.draft'
p253
aF0
aF20
aNaa(lp254
S'off.draft'
p255
aF0
aF20
aNaa(lp256
S'main.draft_margin'
p257
aF0
aF1
aNaa(lp258
S'off.draft_margin'
p259
aF0
aF1
aNaa(lp260
S'main.wave_height_freeboard_ratio'
p261
aNaF1
aNaa(lp262
S'off.wave_height_freeboard_ratio'
p263
aNaF1
aNaa(lp264
S'main_offset_spacing'
p265
aF1
aNaNaa(lp266
S'main.manufacturability'
p267
aF0
aNaNaa(lp268
S'main.weldability'
p269
aNaF0
aNaa(lp270
S'off.manufacturability'
p271
aF0
aNaNaa(lp272
S'off.weldability'
p273
aNaF0
aNaa(lp274
S'tower_transition_buffer'
p275
aF-1
aF1
aNaa(lp276
S'nacelle_transition_buffer'
p277
aF0
aNaNaa(lp278
S'offset_freeboard_heel_margin'
p279
aF0
aNaNaa(lp280
S'offset_draft_heel_margin'
p281
aF0
aF20
aNaa(lp282
S'axial_unity'
p283
aF0
aF1
aNaa(lp284
S'mooring_length_max'
p285
aNaF1
aNaa(lp286
S'main.flange_spacing_ratio'
p287
aNaF1
aNaa(lp288
S'main.stiffener_radius_ratio'
p289
aNaF0.5
aNaa(lp290
S'main.flange_compactness'
p291
aF1
aNaNaa(lp292
S'main.web_compactness'
p293
aF1
aNaNaa(lp294
S'main.axial_local_api'
p295
aNaF1
aNaa(lp296
S'main.axial_general_api'
p297
aNaF1
aNaa(lp298
S'main.external_local_api'
p299
aNaF1
aNaa(lp300
S'main.external_general_api'
p301
aNaF1
aNaa(lp302
S'off.flange_spacing_ratio'
p303
aNaF1
aNaa(lp304
S'off.stiffener_radius_ratio'
p305
aNaF0.5
aNaa(lp306
S'off.flange_compactness'
p307
aF1
aNaNaa(lp308
S'off.web_compactness'
p309
aF1
aNaNaa(lp310
S'off.axial_local_api'
p311
aNaF1
aNaa(lp312
S'off.axial_general_api'
p313
aNaF1
aNaa(lp314
S'off.external_local_api'
p315
aNaF1
aNaa(lp316
S'off.external_general_api'
p317
aNaF1
aNaa(lp318
S'pontoon_stress'
p319
aNaF1
aNaa(lp320
S'tower_stress'
p321
aNaF1
aNaa(lp322
S'tower_shell_buckling'
p323
aNaF1
aNaa(lp324
S'tower_global_buckling'
p325
aNaF1
aNaa(lp326
S'main_stress'
p327
aNaF1
aNaa(lp328
S'main_shell_buckling'
p329
aNaF1
aNaa(lp330
S'main_global_buckling'
p331
aNaF1
aNaa(lp332
S'offset_stress'
p333
aNaF1
aNaa(lp334
S'offset_shell_buckling'
p335
aNaF1
aNaa(lp336
S'offset_global_buckling'
p337
aNaF1
aNaa(lp338
S'variable_ballast_height_ratio'
p339
aF0
aF1
aNaa(lp340
S'variable_ballast_mass'
p341
aF0
aNaNaa(lp342
S'metacentric_height'
p343
aF0.10000000000000001
aNaNaa(lp344
S'offset_force_ratio'
p345
aNaF1
aNaa(lp346
S'heel_moment_ratio'
p347
aNaF1
aNaa(lp348
S'period_margin_low'
p349
aNaF1
aNaa(lp350
S'period_margin_high'
p351
aF1
aNaNaa(S'structural_mass'
p352
F9.9999999999999995e-07
tp353
S'NM'
p354
t.