((dp1
S'rna_moment'
p2
cnumpy.core.multiarray
_reconstruct
p3
(cnumpy
ndarray
p4
(I0
tS'b'
tRp5
(I1
(I3
tcnumpy
dtype
p6
(S'f8'
I0
I1
tRp7
(I3
S'<'
NNNI-1
I-1
I0
tbI00
S'\xec*\xda\xf3O\xe7{A\xf8\xedw\x9a\x0e\xff\rA\xf1\x80S\xcaVvG\xc1'
tbsS'offset_permanent_ballast_height'
p8
cnumpy.core.multiarray
scalar
p9
(g6
(S'f8'
I0
I1
tRp10
(I3
S'<'
NNNI-1
I-1
I0
tbS'\x88\xd9^P\xaf;\xd4?'
tRp11
sS'rna_force'
p12
g3
(g4
(I0
tS'b'
tRp13
(I1
(I3
tg7
I00
S'\xcd\xcc\xccLc\x1e@A\x00\x00\x00\x00\x00\x00\x00\x00\xc3\xf5(\xec!\xffY\xc1'
tbsS'gamma_fatigue'
p14
F1.7549999999999999
sS'loading'
p15
S'hydrostatic'
p16
sS'lower_ring_pontoons_int'
p17
g9
(g10
S'\x00\x00\x00\x00\x00\x00\x00\x00'
tRp18
sS'tapered_col_cost_rate'
p19
F4720
sS'main_stiffener_web_height'
p20
g3
(g4
(I0
tS'b'
tRp21
(I1
(I5
tg6
(S'f8'
I0
I1
tRp22
(I3
S'<'
NNNI-1
I-1
I0
tbI00
S'\xd2%\x1fT<\x10\xdd?R\xf6G2y\xff\xef?50YX\xeb\x18\xd1?\xdf\xbe \x1f\xd8\x81\xe3?2\xeava\x8b\xc9\x86?'
tbsS'zref'
p23
F119
sS'outfitting_cost_rate'
p24
F6980
sS'main_stiffener_flange_width'
p25
g3
(g4
(I0
tS'b'
tRp26
(I1
(I5
tg22
I00
S'\xaa[y\xb0\xb1\xa4\xb0?K\xa6\xc9\x93j\x1d\xd7?\x84\xe0\xa0T\x0c\xe7\xfe?\x9e`\xd2\xb9\xec\xc6\xef?]\xd8\x8f/\xac\xd6\xde?'
tbsS'max_taper_ratio'
p27
F0.40000000000000002
sS'tower_outfitting_factor'
p28
F1.0700000000000001
sS'fairlead_support_wall_thickness'
p29
g9
(g10
S'E#\xd0g\xad\xf1\x92?'
tRp30
sS'T'
F9.8000000000000007
sS'main_ballast_heave_box_diameter'
p31
g9
(g10
S'\xd7\x10X\xcf\xbe7\x1d@'
tRp32
sS'bulkhead_mass_factor'
p33
F1
sS'wave_period_range_high'
p34
F20
sS'cross_attachment_pontoons_int'
p35
g9
(g10
S'\x00\x00\x00\x00\x00\x00\x00\x00'
tRp36
sS'outfitting_mass_fraction'
p37
F0.059999999999999998
sS'main_outer_diameter'
p38
g3
(g4
(I0
tS'b'
tRp39
(I1
(I6
tg22
I00
S'_QG7qF9@\xb3\x19;=b\xfb(@\x8a\xcd(K\xc2~\x1d@G;\xdf\xd8W\xa8$@/\xa33\x83\xdd\xa9!@\xf8\x03\x82\xf7\xcc\xb4#@'
tbsS'rna_I'
p40
g3
(g4
(I0
tS'b'
tRp41
(I1
(I6
tg7
I00
S'\x00\x00\x00.b\xf5\xa3A\x00\x00\x00\x08)"\x99A\x00\x00\x00\xf0\x10Q\x94A\x00\x00\x00\x00\x00\x00\x00\x00\xa4p=\n\x98x7A\x00\x00\x00\x00\x00\x00\x00\x00'
tbsS'main.windLoads.mu'
p42
F1.8099999999999999e-05
sS'offset_ballast_heave_box_height'
p43
g9
(g10
S'\x81\xbacDio\x0b@'
tRp44
sS'fairlead_support_outer_diameter'
p45
g9
(g10
S'\xa3\x81\x94\xf8\xf1\xff#@'
tRp46
sS'offset_bulkhead_thickness'
p47
g3
(g4
(I0
tS'b'
tRp48
(I1
(I6
tg7
I00
S'\x9a\x99\x99\x99\x99\x99\xa9?\x9a\x99\x99\x99\x99\x99\xa9?\x00\x00\x00\x00\x00\x00\x00\x00\x00\x00\x00\x00\x00\x00\x00\x00\x00\x00\x00\x00\x00\x00\x00\x00\x9a\x99\x99\x99\x99\x99\xa9?'
tbsS'mooring_max_offset'
p49
F100
sS'offset_ballast_heave_box_diameter'
p50
g9
(g10
S"l\x93\xc3\x9f\xe1'%@"
tRp51
sS'main_ballast_heave_box_location'
p52
g9
(g10
S'{u\x1b\xcc5/\xf1>'
tRp53
sS'shell_mass_factor'
p54
F1
sS'main_pontoon_attach_upper'
p55
g9
(g10
S'oK\xa3!\x9d\x8a\xed?'
tRp56
sS'rna_mass'
p57
F449282.40530069917
sS'offset_ballast_heave_box_location'
p58
g9
(g10
S'\xad\x14\xc2%A\xd6\xa4?'
tRp59
sS'tower_buckling_length'
p60
F30
sS'Hs'
p61
F10.800000000000001
sS'main_freeboard'
p62
g9
(g10
S'\rg\x0bg\xc9\xff=@'
tRp63
sS'Rhub'
p64
F2.2999999999999998
sS'material_density'
p65
F7850
sS'main_stiffener_spacing'
p66
g3
(g4
(I0
tS'b'
tRp67
(I1
(I5
tg22
I00
S'\xd0\xbe\x8dM\x9c&%@\xa6\xab\xf7,\x1f~"@\xa8m\xb4\xfa\xa0/-@L\xdf|\xc0\x8d\x950@\xc9\xd8\xa6\xd9\x1e\xad:@'
tbsS'tower_outer_diameter'
p68
g3
(g4
(I0
tS'b'
tRp69
(I1
(I6
tg7
I00
S'\x00\x00\x00\x00\x00\x00"@\x00\x00\x00\x00\x00\x00"@\x9a\x99\x99\x99\x99\x99 @\xa4p=\n\xd7\xa3\x1b@\x00\x00\x00\x00\x00\x00\x16@\x00\x00\x00\x00\x00\x00\x16@'
tbsS'anchor_type'
p70
S'suctionpile'
p71
sS'G'
F79300000000
sS'main_ballast_heave_box_height'
p72
g9
(g10
S'vTs9\x0eM\xfe?'
tRp73
sS'max_offset'
p74
F100
sS'max_survival_heel'
p75
F15
sS'main_stiffener_flange_thickness'
p76
g3
(g4
(I0
tS'b'
tRp77
(I1
(I5
tg22
I00
S'\xe2\xf8\xb0Y\xd6\x9c\xb1?\x8cI~\x9c:l\xd7?\xeb\x9f\xbd\x0c\xd2\xcd\xc1?\xe5\x84\x8cn%\xe3\xdf?\xcax\xfe\xed\xda\n\xc8?'
tbsS'permanent_ballast_density'
p78
F4492
sS'z0'
p79
F0
sS'Uc'
p80
F0
sS'offset_stiffener_web_thickness'
p81
g3
(g4
(I0
tS'b'
tRp82
(I1
(I5
tg22
I00
S'\xca\xb9\x8e\x87\x97\xa5\xdf?\xc0\x82~\x0f\xec\xdc\xc3?\x7f\xe4(\xb1Zqx?\x9ba(\xb6\xca\xbek?\x97\x9a$ P\xca\x97?'
tbsS'pontoon_wall_thickness'
p83
g9
(g10
S'\xf9\x8f\x00\x94\xd3i\x94?'
tRp84
sS'number_of_offset_columns'
p85
I3
sS'fairlead'
p86
g9
(g10
S'x\xc90i\xf3w\x1f@'
tRp87
sS'radius_to_offset_column'
p88
g9
(g10
S'wc,4z\xe8J@'
tRp89
sS'tower_section_height'
p90
g3
(g4
(I0
tS'b'
tRp91
(I1
(I5
tg7
I00
S'\x00\x00\x00\x00\x00\x00$@\x00\x10\xaeG\xe1z\x84?\xc3\xf5(\\\x8fBJ@\xcc\xcc\xcc\xcc\xcc\x8cJ@\x00)\\\x8f\xc2\xf5\n@'
tbsS'cm'
p92
F2
sS'main.waveLoads.mu'
p93
F0.00088999999999999995
sS'mooring_diameter'
p94
g9
(g10
S'_\\\xe9\x0ba\xb4\xd1?'
tRp95
sS'gamma_m'
p96
F1.1000000000000001
sS'gamma_n'
p97
F1
sS'offset_section_height'
p98
g3
(g4
(I0
tS'b'
tRp99
(I1
(I5
tg22
I00
S'\xd4\x9b\xe6\xd6\xa9\xa1\xee?"u?.\x85<\xfc?%zX\x01\x1c\xfb2@\x7f4\xabUc\x0c\xd8?ei4\x99]5\x17@'
tbsS'main_bulkhead_thickness'
p100
g3
(g4
(I0
tS'b'
tRp101
(I1
(I6
tg7
I00
S'\x9a\x99\x99\x99\x99\x99\xa9?\x9a\x99\x99\x99\x99\x99\xa9?\x00\x00\x00\x00\x00\x00\x00\x00\x00\x00\x00\x00\x00\x00\x00\x00\x00\x00\x00\x00\x00\x00\x00\x00\x9a\x99\x99\x99\x99\x99\xa9?'
tbsS'yaw'
p102
F0
sS'gamma_f'
p103
F1.3500000000000001
sS'offset_freeboard'
p104
g9
(g10
S'\xe1\xf1%\xa2\xc1\xe4+@'
tRp105
sS'gamma_b'
p106
F1.1000000000000001
sS'z_offset'
p107
F0
sS'ballast_cost_rate'
p108
F100
sS'number_of_mooring_connections'
p109
I3
sS'mooring_line_length'
p110
g9
(g10
S'A\xdbP\xcb\xb4\x98\xa6@'
tRp111
sS'outer_cross_pontoons_int'
p112
g9
(g10
S'\x00\x00\x00\x00\x00\x00\x00\x00'
tRp113
sS'water_depth'
p114
F320
sS'column_mass_factor'
p115
F1.05
sS'operational_heel'
p116
F6
sS'offset_outer_diameter'
p117
g3
(g4
(I0
tS'b'
tRp118
(I1
(I6
tg22
I00
S'\xe2\x82\xd2(\xfe\x07(@1\x12\x19\x924w:@\x0c\xa1\x0bnh\x86%@\x01\x11\xcb\x14\x11\x93"@[\xe2*\xacn\x08\x1b@\xd7\x95\x86s\x81\xd2\x18@'
tbsS'yield_stress'
p119
F345000000
sS'main_wall_thickness'
p120
g3
(g4
(I0
tS'b'
tRp121
(I1
(I6
tg22
I00
S'f\xd3\xf5\x94\xd1\x1f\xaa?6fA\x00\x0e\xa4\xaf?\x8b\x859\x1cI\x92\xae?\x18c\xa1\x85\x8cK\xa4?(\xcab4)\xf4\xa6?l\xf5%`&"\xae?'
tbsS'connection_ratio_max'
p122
F0.25
sS'ring_mass_factor'
p123
F1
sS'upper_ring_pontoons_int'
p124
g9
(g10
S'\x00\x00\x00\x00\x00\x00\x00\x00'
tRp125
sS'main_stiffener_web_thickness'
p126
g3
(g4
(I0
tS'b'
tRp127
(I1
(I5
tg22
I00
S'\xc7\xe5n\xd6\xda\x10\xb7?\x87\x1d\xcd\x89\xe8\xea\xdf?*<\x83\xa3\x10\x8d\xc5?\xbc\x11|\xb3\xeeG\xc1?r\xe3\xca\xbbW=\xac?'
tbsS'lower_attachment_pontoons_int'
p128
g9
(g10
S'\x00\x00\x00\x00\x00\x00\xf0?'
tRp129
sS'water_density'
p130
F1025
sS'cd_usr'
p131
Finf
sS'min_diameter_thickness_ratio'
p132
F120
sS'offset_wall_thickness'
p133
g3
(g4
(I0
tS'b'
tRp134
(I1
(I6
tg22
I00
S'+\xbd\x9e\xba\xa4\x93\xb9?X\xdc%j\xa3-\xc9?\x99\x18\x0e\\\x01\x13\xb4?\x1e\xa8\xf8\xcc\x1b\x1e\x96?\xe03\xe3\x15\xd9+\xa6?N\xddi\x11\xb94q?'
tbsS'main_section_height'
p135
g3
(g4
(I0
tS'b'
tRp136
(I1
(I5
tg22
I00
S"\xff\x97#\x06\xa7\xfd'@\t n?w\xa8\xf8?\xa5[\x08\xf3]\x8b\x1b@\xd1\t\xe8\xf0\x8ab'@\xb9\x8a/\xd8oG'@"
tbsS'Uref'
p137
F11
sS'anchor_radius'
p138
g9
(g10
S'\xe3\xd7k\x84\x7f\xd9\xa5@'
tRp139
sS'rna_cg'
p140
g3
(g4
(I0
tS'b'
tRp141
(I1
(I3
tg7
I00
S'\x1e\x01\x16\xd8\xe7Z\xe3\xbf\x00\x00\x00\x00\x00\x00\x00\x00\x0e\xb4L\xd0p$\x04@'
tbsS'pontoon_outer_diameter'
p142
g9
(g10
S'\xcc\x9f%\x95\xf7\xcb!@'
tRp143
sS'fairlead_offset_from_shell'
p144
F6.0004865405187147
sS'tower_wall_thickness'
p145
g3
(g4
(I0
tS'b'
tRp146
(I1
(I6
tg7
I00
S'\xe0\xa3p=\n\xd7\xd3?@33333\xd3?\x00R\xb8\x1e\x85\xeb\xc1?@\\\x8f\xc2\xf5(\xbc?\x80\x1e\x85\xebQ\xb8\xae?\x80\x1e\x85\xebQ\xb8\xae?'
tbsS'mooring_cost_rate'
p147
F1.1000000000000001
sS'nu'
p148
F0.26000000000000001
sS'E'
F200000000000
sS'wave_period_range_low'
p149
F2
sS'main_pontoon_attach_lower'
p150
g9
(g10
S'\xf2g\x9fkD\xe1\xb9?'
tRp151
sS'offset_stiffener_flange_thickness'
p152
g3
(g4
(I0
tS'b'
tRp153
(I1
(I5
tg22
I00
S'\x07*\x07\x88\xc6\xfe\xd2?9\x1bx1\x85\xd2\xdf?\x0e\x8d4\xc1\xa9\x8f\xcb?\x7f\xda\x03\xa5w\x01\xc4?w3\x13f\x12q\xc4?'
tbsS'main.windLoads.rho'
p154
F1.198
sS'beta'
p155
F0
sS'shearExp'
p156
F0.11
sS'mooring_lines_per_connection'
p157
g9
(g10
S'\x00\x00\x00\x00\x00\x00\x00@'
tRp158
sS'main_permanent_ballast_height'
p159
g9
(g10
S'\xf3P\xa2\xcec\xc4\x13@'
tRp160
sS'offset_stiffener_flange_width'
p161
g3
(g4
(I0
tS'b'
tRp162
(I1
(I5
tg22
I00
S'\x96\xbf\x18W\xdf\x1f\xe1?\xe2\x127R(\xc4\xa8?N{\x99\xd4\xed\xdf\xd8?\xd3LB\xd1\x84,\xc5?V\xd1\xad^\xb6\x8a\xed?'
tbsS'offset_stiffener_spacing'
p163
g3
(g4
(I0
tS'b'
tRp164
(I1
(I5
tg22
I00
S';\xbb\x9f+3\x03\x0b@\xd8\xe8\x14d\xccv>@H\xb8&\x02\x8bHJ@\x14\xbe\x9b\xea\x0c\xff)@q\xb9V\xc7\xe7v/@'
tbsS'mooring_type'
p165
S'chain'
p166
sS'hub_height'
p167
F149
sS'upper_attachment_pontoons_int'
p168
g9
(g10
S'\x00\x00\x00\x00\x00\x00\x00\x00'
tRp169
sS'offset_stiffener_web_height'
p170
g3
(g4
(I0
tS'b'
tRp171
(I1
(I5
tg22
I00
S'\xe0\x879\x1f\x97 \xc7?\xff\xa7\x1e\x1b\x94\x9f\xda?:@\x16\xc6v\xd0\xc0?\x92\xfa\x0c\xde\x8e\xa5\xb1?\x10\xcc\x86\xfc\xae\xfd\xbb?'
tbsS'pontoon_cost_rate'
p172
F6.25
s(lp173
(lp174
S'fairlead'
p175
aF0
aF20
aa(lp176
S'fairlead_support_wall_thickness'
p177
aF0.001
aF1
aa(lp178
S'fairlead_support_outer_diameter'
p179
aF0.10000000000000001
aF10
aa(lp180
S'main_freeboard'
p181
aF0
aF50
aa(lp182
S'main_section_height'
p183
aF0.10000000000000001
aF50
aa(lp184
S'main_outer_diameter'
p185
aF2.1000000000000001
aF40
aa(lp186
S'main_wall_thickness'
p187
aF0.001
aF0.5
aa(lp188
S'main_ballast_heave_box_diameter'
p189
aF0
aF50
aa(lp190
S'main_ballast_heave_box_height'
p191
aF0
aF20
aa(lp192
S'main_ballast_heave_box_location'
p193
aF0
aF1
aa(lp194
S'offset_freeboard'
p195
aF2
aF15
aa(lp196
S'offset_section_height'
p197
aF0.10000000000000001
aF50
aa(lp198
S'offset_outer_diameter'
p199
aF1.1000000000000001
aF40
aa(lp200
S'offset_wall_thickness'
p201
aF0.001
aF0.5
aa(lp202
S'offset_ballast_heave_box_diameter'
p203
aF0
aF50
aa(lp204
S'offset_ballast_heave_box_height'
p205
aF0
aF20
aa(lp206
S'offset_ballast_heave_box_location'
p207
aF0
aF1
aa(lp208
S'pontoon_outer_diameter'
p209
aF1
aF10
aa(lp210
S'pontoon_wall_thickness'
p211
aF0.01
aF1
aa(lp212
S'main_pontoon_attach_lower'
p213
aF0
aF0.5
aa(lp214
S'main_pontoon_attach_upper'
p215
aF0.5
aF1
aa(lp216
S'mooring_line_length'
p217
aF200
aF3000
aa(lp218
S'anchor_radius'
p219
aF100
aF5000
aa(lp220
S'mooring_diameter'
p221
aF0.050000000000000003
aF2
aa(lp222
S'main_permanent_ballast_height'
p223
aF0.10000000000000001
aF50
aa(lp224
S'main_stiffener_web_height'
p225
aF0.01
aF1
aa(lp226
S'main_stiffener_web_thickness'
p227
aF0.001
aF0.5
aa(lp228
S'main_stiffener_flange_width'
p229
aF0.01
aF5
aa(lp230
S'main_stiffener_flange_thickness'
p231
aF0.001
aF0.5
aa(lp232
S'main_stiffener_spacing'
p233
aF0.10000000000000001
aF100
aa(lp234
S'offset_stiffener_web_height'
p235
aF0.01
aF1
aa(lp236
S'offset_stiffener_web_thickness'
p237
aF0.001
aF0.5
aa(lp238
S'offset_stiffener_flange_width'
p239
aF0.01
aF5
aa(lp240
S'offset_stiffener_flange_thickness'
p241
aF0.001
aF0.5
aa(lp242
S'offset_stiffener_spacing'
p243
aF0.10000000000000001
aF100
aa(lp244
S'offset_permanent_ballast_height'
p245
aF0.10000000000000001
aF50
aa(lp246
S'radius_to_offset_column'
p247
aF5
aF100
aa(lp248
(lp249
S'tow.height_constraint'
p250
aF-0.01
aF0.01
aNaa(lp251
S'main.draft'
p252
aF0
aF20
aNaa(lp253
S'off.draft'
p254
aF0
aF20
aNaa(lp255
S'main.draft_depth_ratio'
p256
aNaF0.90000000000000002
aNaa(lp257
S'off.draft_depth_ratio'
p258
aNaF0.90000000000000002
aNaa(lp259
S'main.wave_height_freeboard_ratio'
p260
aNaF1
aNaa(lp261
S'off.wave_height_freeboard_ratio'
p262
aNaF1
aNaa(lp263
S'off.fairlead_draft_ratio'
p264
aF0
aF20
aNaa(lp265
S'main_offset_spacing'
p266
aF1
aNaNaa(lp267
S'main.manufacturability'
p268
aF0
aNaNaa(lp269
S'main.weldability'
p270
aNaF0
aNaa(lp271
S'off.manufacturability'
p272
aF0
aNaNaa(lp273
S'off.weldability'
p274
aNaF0
aNaa(lp275
S'tower_transition_buffer'
p276
aF-1
aF1
aNaa(lp277
S'nacelle_transition_buffer'
p278
aF0
aNaNaa(lp279
S'offset_freeboard_heel_margin'
p280
aF0
aNaNaa(lp281
S'offset_draft_heel_margin'
p282
aF0
aF20
aNaa(lp283
S'axial_unity'
p284
aF0
aF1
aNaa(lp285
S'mooring_length_max'
p286
aNaF1
aNaa(lp287
S'main.flange_spacing_ratio'
p288
aNaF1
aNaa(lp289
S'main.stiffener_radius_ratio'
p290
aNaF0.5
aNaa(lp291
S'main.flange_compactness'
p292
aF1
aNaNaa(lp293
S'main.web_compactness'
p294
aF1
aNaNaa(lp295
S'main.axial_local_api'
p296
aNaF1
aNaa(lp297
S'main.axial_general_api'
p298
aNaF1
aNaa(lp299
S'main.external_local_api'
p300
aNaF1
aNaa(lp301
S'main.external_general_api'
p302
aNaF1
aNaa(lp303
S'off.flange_spacing_ratio'
p304
aNaF1
aNaa(lp305
S'off.stiffener_radius_ratio'
p306
aNaF0.5
aNaa(lp307
S'off.flange_compactness'
p308
aF1
aNaNaa(lp309
S'off.web_compactness'
p310
aF1
aNaNaa(lp311
S'off.axial_local_api'
p312
aNaF1
aNaa(lp313
S'off.axial_general_api'
p314
aNaF1
aNaa(lp315
S'off.external_local_api'
p316
aNaF1
aNaa(lp317
S'off.external_general_api'
p318
aNaF1
aNaa(lp319
S'pontoon_stress'
p320
aNaF1
aNaa(lp321
S'tower_stress'
p322
aNaF1
aNaa(lp323
S'tower_shell_buckling'
p324
aNaF1
aNaa(lp325
S'tower_global_buckling'
p326
aNaF1
aNaa(lp327
S'main_stress'
p328
aNaF1
aNaa(lp329
S'main_shell_buckling'
p330
aNaF1
aNaa(lp331
S'main_global_buckling'
p332
aNaF1
aNaa(lp333
S'offset_stress'
p334
aNaF1
aNaa(lp335
S'offset_shell_buckling'
p336
aNaF1
aNaa(lp337
S'offset_global_buckling'
p338
aNaF1
aNaa(lp339
S'variable_ballast_height_ratio'
p340
aF0
aF1
aNaa(lp341
S'variable_ballast_mass'
p342
aF0
aNaNaa(lp343
S'metacentric_height'
p344
aF0.10000000000000001
aNaNaa(lp345
S'offset_force_ratio'
p346
aNaF1
aNaa(lp347
S'heel_moment_ratio'
p348
aNaF1
aNaa(lp349
S'period_margin_low'
p350
aNaF1
aNaa(lp351
S'period_margin_high'
p352
aF1
aNaNaa(S'structural_mass'
p353
F9.9999999999999995e-07
tp354
S'NM'
p355
t.