((dp1
S'rna_moment'
p2
cnumpy.core.multiarray
_reconstruct
p3
(cnumpy
ndarray
p4
(I0
tS'b'
tRp5
(I1
(I3
tcnumpy
dtype
p6
(S'f8'
I0
I1
tRp7
(I3
S'<'
NNNI-1
I-1
I0
tbI00
S'\xec*\xda\xf3O\xe7{A\xf8\xedw\x9a\x0e\xff\rA\xf1\x80S\xcaVvG\xc1'
tbsS'offset_permanent_ballast_height'
p8
cnumpy.core.multiarray
scalar
p9
(g6
(S'f8'
I0
I1
tRp10
(I3
S'<'
NNNI-1
I-1
I0
tbS'\x04\x02&Fl{\xd4?'
tRp11
sS'rna_force'
p12
g3
(g4
(I0
tS'b'
tRp13
(I1
(I3
tg7
I00
S'\xcd\xcc\xccLc\x1e@A\x00\x00\x00\x00\x00\x00\x00\x00\xc3\xf5(\xec!\xffY\xc1'
tbsS'gamma_fatigue'
p14
F1.7549999999999999
sS'loading'
p15
S'hydrostatic'
p16
sS'lower_ring_pontoons_int'
p17
g9
(g10
S'\x00\x00\x00\x00\x00\x00\x00\x00'
tRp18
sS'tapered_col_cost_rate'
p19
F4720
sS'main_stiffener_web_height'
p20
g3
(g4
(I0
tS'b'
tRp21
(I1
(I5
tg6
(S'f8'
I0
I1
tRp22
(I3
S'<'
NNNI-1
I-1
I0
tbI00
S'\x03\xfb<\xc7\xc4\x8f\xdd?\xb1%!Qb\xff\xef?C!#Q\x99^\xd1?c\x07Ht{}\xe3?\x84\xe9\xe0b[`\x86?'
tbsS'zref'
p23
F119
sS'outfitting_cost_rate'
p24
F6980
sS'offset_buoyancy_tank_location'
p25
g9
(g10
S'e\x12\xfd\x96\xc7\xc2\xa4?'
tRp26
sS'main_stiffener_flange_width'
p27
g3
(g4
(I0
tS'b'
tRp28
(I1
(I5
tg22
I00
S'F\xd1\x92\x9e\x1e5\xb1?\xb9\xbe\x92@$\xdf\xd6?\xd3\x0ck\xfb\xb9\x94\xff?\x0e\xcc\xa5\xf8nH\xf0?@n\x03\x18\x8f\xe9\xde?'
tbsS'max_taper_ratio'
p29
F0.40000000000000002
sS'tower_outfitting_factor'
p30
F1.0700000000000001
sS'fairlead_support_wall_thickness'
p31
g9
(g10
S'eM\xb0h\xc9\x1d\x93?'
tRp32
sS'T'
F9.8000000000000007
sS'bulkhead_mass_factor'
p33
F1
sS'wave_period_range_high'
p34
F20
sS'cross_attachment_pontoons_int'
p35
g9
(g10
S'\x00\x00\x00\x00\x00\x00\x00\x00'
tRp36
sS'outfitting_mass_fraction'
p37
F0.059999999999999998
sS'offset_buoyancy_tank_diameter'
p38
g9
(g10
S"7G'\xe7\x10&%@"
tRp39
sS'main_outer_diameter'
p40
g3
(g4
(I0
tS'b'
tRp41
(I1
(I6
tg22
I00
S'\xcb\x86\xaf0\xdc,9@\xcc\xeb\xcd^\x17\xbc(@jA\xfb\x00\xf0?\x1d@$\xa9&o\xae\xe9$@\xf4\xa5\x14\x90j\xbc!@8$\x0e\xaf\xef\xca#@'
tbsS'rna_I'
p42
g3
(g4
(I0
tS'b'
tRp43
(I1
(I6
tg7
I00
S'\x00\x00\x00.b\xf5\xa3A\x00\x00\x00\x08)"\x99A\x00\x00\x00\xf0\x10Q\x94A\x00\x00\x00\x00\x00\x00\x00\x00\xa4p=\n\x98x7A\x00\x00\x00\x00\x00\x00\x00\x00'
tbsS'main.windLoads.mu'
p44
F1.8099999999999999e-05
sS'fairlead_support_outer_diameter'
p45
g9
(g10
S'"\xb1\x02\xd4\xf7\xff#@'
tRp46
sS'offset_bulkhead_thickness'
p47
g3
(g4
(I0
tS'b'
tRp48
(I1
(I6
tg7
I00
S'\x9a\x99\x99\x99\x99\x99\xa9?\x9a\x99\x99\x99\x99\x99\xa9?\x00\x00\x00\x00\x00\x00\x00\x00\x00\x00\x00\x00\x00\x00\x00\x00\x00\x00\x00\x00\x00\x00\x00\x00\x9a\x99\x99\x99\x99\x99\xa9?'
tbsS'mooring_max_offset'
p49
F100
sS'shell_mass_factor'
p50
F1
sS'main_pontoon_attach_upper'
p51
g9
(g10
S'\xcb8C\xa5U\xa8\xed?'
tRp52
sS'rna_mass'
p53
F560791.46780069917
sS'tower_buckling_length'
p54
F30
sS'Hs'
p55
F10.800000000000001
sS'main_freeboard'
p56
g9
(g10
S'\xf8\xe1APe\xff=@'
tRp57
sS'Rhub'
p58
F2.2999999999999998
sS'material_density'
p59
F7850
sS'main_stiffener_spacing'
p60
g3
(g4
(I0
tS'b'
tRp61
(I1
(I5
tg22
I00
S'\x80c_\x0c5^%@\x84q$\xc5~\x94"@\x14L\xe1\x06`1.@")\xf0\x06\xd8\xdd0@\xb3/\xd1\xb2P~:@'
tbsS'tower_outer_diameter'
p62
g3
(g4
(I0
tS'b'
tRp63
(I1
(I6
tg7
I00
S'\x00\x00\x00\x00\x00\x00"@\x00\x00\x00\x00\x00\x00"@\x9a\x99\x99\x99\x99\x99 @\xa4p=\n\xd7\xa3\x1b@\x00\x00\x00\x00\x00\x00\x16@\x00\x00\x00\x00\x00\x00\x16@'
tbsS'anchor_type'
p64
S'suctionpile'
p65
sS'G'
F79300000000
sS'max_offset'
p66
F100
sS'max_survival_heel'
p67
F15
sS'main_stiffener_flange_thickness'
p68
g3
(g4
(I0
tS'b'
tRp69
(I1
(I5
tg22
I00
S"'P\xfa\xf1\x92\xb3\xb1?.5\xb1\x19t!\xd7?^\x82\xa5\x94\xc7\x16\xc2?\xcd\x0f\x02I\xc1\xcd\xdf?\x94K\xe9\xa7]\xb5\xc8?"
tbsS'permanent_ballast_density'
p70
F4492
sS'z0'
p71
F0
sS'Uc'
p72
F0
sS'offset_stiffener_web_thickness'
p73
g3
(g4
(I0
tS'b'
tRp74
(I1
(I5
tg22
I00
S'\x9b\xa7w\xed\xd1\x88\xdf?W\x03_\x84n\x10\xc4?9\xbd\xc1tJjx?\xee"Ja5\x19l?\x0b\xde\x95\xc4\xcd\xd2\x97?'
tbsS'pontoon_wall_thickness'
p75
g9
(g10
S'1\xbf-G\x10\xdc\x94?'
tRp76
sS'number_of_offset_columns'
p77
I3
sS'fairlead'
p78
g9
(g10
S'6\xbbe\xd5\xdf\xe6\x1f@'
tRp79
sS'radius_to_offset_column'
p80
g9
(g10
S'&)H(\xc1\xd9J@'
tRp81
sS'tower_section_height'
p82
g3
(g4
(I0
tS'b'
tRp83
(I1
(I5
tg7
I00
S'\x00\x00\x00\x00\x00\x00$@\x00\x10\xaeG\xe1z\x84?\xc3\xf5(\\\x8fBJ@\xcc\xcc\xcc\xcc\xcc\x8cJ@\x00)\\\x8f\xc2\xf5\n@'
tbsS'main_buoyancy_tank_location'
p84
g9
(g10
S'ar\xe7\xfe\xf4\x9e\xf1>'
tRp85
sS'cm'
p86
F2
sS'main.waveLoads.mu'
p87
F0.00088999999999999995
sS'mooring_diameter'
p88
g9
(g10
S'V\xc2D\xa90\xc6\xd1?'
tRp89
sS'gamma_m'
p90
F1.1000000000000001
sS'gamma_n'
p91
F1
sS'offset_section_height'
p92
g3
(g4
(I0
tS'b'
tRp93
(I1
(I5
tg22
I00
S'\xda\xe4\x1c\xa3>\xb2\xee?\xb3\x7f\xe5\xe21\xef\xfb?Bv/\x06)\xfc2@\xa5a}i\x98*\xd8?hDQ\x00\xb93\x17@'
tbsS'main_bulkhead_thickness'
p94
g3
(g4
(I0
tS'b'
tRp95
(I1
(I6
tg7
I00
S'\x9a\x99\x99\x99\x99\x99\xa9?\x9a\x99\x99\x99\x99\x99\xa9?\x00\x00\x00\x00\x00\x00\x00\x00\x00\x00\x00\x00\x00\x00\x00\x00\x00\x00\x00\x00\x00\x00\x00\x00\x9a\x99\x99\x99\x99\x99\xa9?'
tbsS'yaw'
p96
F0
sS'gamma_f'
p97
F1.3500000000000001
sS'offset_freeboard'
p98
g9
(g10
S'\x0eb\xc0\x1b\xcc\xdc+@'
tRp99
sS'gamma_b'
p100
F1.1000000000000001
sS'z_offset'
p101
F0
sS'ballast_cost_rate'
p102
F100
sS'number_of_mooring_connections'
p103
I3
sS'mooring_line_length'
p104
g9
(g10
S'\xe9d&l\x06\x97\xa6@'
tRp105
sS'outer_cross_pontoons_int'
p106
g9
(g10
S'\x00\x00\x00\x00\x00\x00\x00\x00'
tRp107
sS'water_depth'
p108
F320
sS'main_buoyancy_tank_diameter'
p109
g9
(g10
S'\x8e(\xa4R^\xfe\x1d@'
tRp110
sS'column_mass_factor'
p111
F1.05
sS'operational_heel'
p112
F6
sS'offset_outer_diameter'
p113
g3
(g4
(I0
tS'b'
tRp114
(I1
(I6
tg22
I00
S'\x0f\xb9\xb4\x82\xd6\xdc\'@\x10\xcc*Wl\x84:@5\xb1k\xd1\xbco%@g\x1bM\xf9\xf0\x80"@\xb1$\xb3\xd1\x8fy\x1a@e\x0e9\xa3\xb0\xfc\x18@'
tbsS'yield_stress'
p115
F345000000
sS'main_wall_thickness'
p116
g3
(g4
(I0
tS'b'
tRp117
(I1
(I6
tg22
I00
S'\xe7J!\xa5\x1eY\xaa?\xb1\xa0R\xb5\x0eR\xaf?\xa3\x85\xde\x89\xc4X\xae?\x16\xa8\xda@dc\xa4?j\xce\x19Gj\xbd\xa6?Fb\x8b\x94T\xbd\xad?'
tbsS'connection_ratio_max'
p118
F0.25
sS'ring_mass_factor'
p119
F1
sS'upper_ring_pontoons_int'
p120
g9
(g10
S'\x00\x00\x00\x00\x00\x00\x00\x00'
tRp121
sS'main_stiffener_web_thickness'
p122
g3
(g4
(I0
tS'b'
tRp123
(I1
(I5
tg22
I00
S"\xcd\xba\xbf\xc0[\xeb\xb6?N`'\x1a\x9f\xee\xdf?QG\t\x01\xd2\xdd\xc5?\xdd\x04\xe9\x14\xcfq\xc1?\xc4v\xba\xc7\xe9v\xac?"
tbsS'lower_attachment_pontoons_int'
p124
g9
(g10
S'\x00\x00\x00\x00\x00\x00\xf0?'
tRp125
sS'water_density'
p126
F1025
sS'main_buoyancy_tank_height'
p127
g9
(g10
S"\xf9)K\xc8]'\xfe?"
tRp128
sS'cd_usr'
p129
Finf
sS'min_diameter_thickness_ratio'
p130
F120
sS'offset_wall_thickness'
p131
g3
(g4
(I0
tS'b'
tRp132
(I1
(I6
tg22
I00
S'\xba\x1du2\xfad\xb9?\xa8O\xce\xe3u\x8f\xc9?\xd4\x8fw\xb6i2\xb4?T\x8b\x7fk\xab\xfe\x95?A2\xc4\x8d\xa9H\xa6?P\xf6\x85\xea%Jq?'
tbsS'offset_buoyancy_tank_height'
p133
g9
(g10
S'ew\x81\xc7\x9e%\x0b@'
tRp134
sS'main_section_height'
p135
g3
(g4
(I0
tS'b'
tRp136
(I1
(I5
tg22
I00
S"q.x\xdav\xc5'@\x8a\xb5\xce\x81U\xd2\xf8?\xb3F;y\xf1\\\x1b@\x9bK\xe8\xee\x85e'@\x8f\xf4m\xdd\xb36'@"
tbsS'Uref'
p137
F11
sS'anchor_radius'
p138
g9
(g10
S'=;c\xa7\x8b\xda\xa5@'
tRp139
sS'rna_cg'
p140
g3
(g4
(I0
tS'b'
tRp141
(I1
(I3
tg7
I00
S'\x1e\x01\x16\xd8\xe7Z\xe3\xbf\x00\x00\x00\x00\x00\x00\x00\x00\x0e\xb4L\xd0p$\x04@'
tbsS'pontoon_outer_diameter'
p142
g9
(g10
S'(\xb7\xf28Z\xb7!@'
tRp143
sS'fairlead_offset_from_shell'
p144
F6.0004865405187147
sS'tower_wall_thickness'
p145
g3
(g4
(I0
tS'b'
tRp146
(I1
(I6
tg7
I00
S'\xe0\xa3p=\n\xd7\xd3?@33333\xd3?\x00R\xb8\x1e\x85\xeb\xc1?@\\\x8f\xc2\xf5(\xbc?\x80\x1e\x85\xebQ\xb8\xae?\x80\x1e\x85\xebQ\xb8\xae?'
tbsS'mooring_cost_rate'
p147
F1.1000000000000001
sS'nu'
p148
F0.26000000000000001
sS'E'
F200000000000
sS'wave_period_range_low'
p149
F2
sS'main_pontoon_attach_lower'
p150
g9
(g10
S'\xf1\xa1\xa7\xc3,\x15\xba?'
tRp151
sS'offset_stiffener_flange_thickness'
p152
g3
(g4
(I0
tS'b'
tRp153
(I1
(I5
tg22
I00
S'O}\x10\x93\xbct\xd3?\x19\xe0\x99\x0e\xa6\xc4\xdf?\xb8\xfdmko\t\xcc?\xc8J\x8c/\xad@\xc4?\xabf\xdd\x9eZ/\xc4?'
tbsS'main.windLoads.rho'
p154
F1.198
sS'beta'
p155
F0
sS'shearExp'
p156
F0.11
sS'mooring_lines_per_connection'
p157
g9
(g10
S'\x00\x00\x00\x00\x00\x00\x00@'
tRp158
sS'main_permanent_ballast_height'
p159
g9
(g10
S'\xaa\r=\xf4\x01\xa7\x11@'
tRp160
sS'offset_stiffener_flange_width'
p161
g3
(g4
(I0
tS'b'
tRp162
(I1
(I5
tg22
I00
S"\x08\xe9\x1dG/'\xe1?\xc5\x07[R\xf7\x97\xa8?\xdet\xeet\r\xd0\xd8?R\x0e`*\x87\x8a\xc5?>s\x98=GZ\xed?"
tbsS'offset_stiffener_spacing'
p163
g3
(g4
(I0
tS'b'
tRp164
(I1
(I5
tg22
I00
S'f\x0f\x81\xae\xe0\xd0\n@\xeae\x8fDSB>@\x85\x899\xe9\x00\xe7J@i\x97\xe9k\xd0\xfe)@\xfd\t7\x998\xca.@'
tbsS'mooring_type'
p165
S'chain'
p166
sS'hub_height'
p167
F149
sS'upper_attachment_pontoons_int'
p168
g9
(g10
S'\x00\x00\x00\x00\x00\x00\x00\x00'
tRp169
sS'offset_stiffener_web_height'
p170
g3
(g4
(I0
tS'b'
tRp171
(I1
(I5
tg22
I00
S'\x89\x11\xcb|\x89)\xc7?\xba&\x18\xf3\x12a\xda?F\x0e\xf0 \xee \xc1?\x87<\xe8v\xe1\x01\xb2?!\xff\x03^\x10m\xbc?'
tbsS'pontoon_cost_rate'
p172
F6.25
s(lp173
(lp174
S'fairlead'
p175
aF0
aF20
aa(lp176
S'fairlead_support_wall_thickness'
p177
aF0.001
aF1
aa(lp178
S'fairlead_support_outer_diameter'
p179
aF0.10000000000000001
aF10
aa(lp180
S'main_freeboard'
p181
aF0
aF50
aa(lp182
S'main_section_height'
p183
aF0.10000000000000001
aF50
aa(lp184
S'main_outer_diameter'
p185
aF2.1000000000000001
aF40
aa(lp186
S'main_wall_thickness'
p187
aF0.001
aF0.5
aa(lp188
S'main_buoyancy_tank_diameter'
p189
aF0
aF50
aa(lp190
S'main_buoyancy_tank_height'
p191
aF0
aF20
aa(lp192
S'main_buoyancy_tank_location'
p193
aF0
aF1
aa(lp194
S'offset_freeboard'
p195
aF2
aF15
aa(lp196
S'offset_section_height'
p197
aF0.10000000000000001
aF50
aa(lp198
S'offset_outer_diameter'
p199
aF1.1000000000000001
aF40
aa(lp200
S'offset_wall_thickness'
p201
aF0.001
aF0.5
aa(lp202
S'offset_buoyancy_tank_diameter'
p203
aF0
aF50
aa(lp204
S'offset_buoyancy_tank_height'
p205
aF0
aF20
aa(lp206
S'offset_buoyancy_tank_location'
p207
aF0
aF1
aa(lp208
S'pontoon_outer_diameter'
p209
aF1
aF10
aa(lp210
S'pontoon_wall_thickness'
p211
aF0.01
aF1
aa(lp212
S'main_pontoon_attach_lower'
p213
aF0
aF0.5
aa(lp214
S'main_pontoon_attach_upper'
p215
aF0.5
aF1
aa(lp216
S'mooring_line_length'
p217
aF200
aF3000
aa(lp218
S'anchor_radius'
p219
aF100
aF5000
aa(lp220
S'mooring_diameter'
p221
aF0.050000000000000003
aF2
aa(lp222
S'main_permanent_ballast_height'
p223
aF0.10000000000000001
aF50
aa(lp224
S'main_stiffener_web_height'
p225
aF0.01
aF1
aa(lp226
S'main_stiffener_web_thickness'
p227
aF0.001
aF0.5
aa(lp228
S'main_stiffener_flange_width'
p229
aF0.01
aF5
aa(lp230
S'main_stiffener_flange_thickness'
p231
aF0.001
aF0.5
aa(lp232
S'main_stiffener_spacing'
p233
aF0.10000000000000001
aF100
aa(lp234
S'offset_stiffener_web_height'
p235
aF0.01
aF1
aa(lp236
S'offset_stiffener_web_thickness'
p237
aF0.001
aF0.5
aa(lp238
S'offset_stiffener_flange_width'
p239
aF0.01
aF5
aa(lp240
S'offset_stiffener_flange_thickness'
p241
aF0.001
aF0.5
aa(lp242
S'offset_stiffener_spacing'
p243
aF0.10000000000000001
aF100
aa(lp244
S'offset_permanent_ballast_height'
p245
aF0.10000000000000001
aF50
aa(lp246
S'radius_to_offset_column'
p247
aF5
aF100
aa(lp248
(lp249
S'tow.height_constraint'
p250
aF-0.01
aF0.01
aNaa(lp251
S'main.draft'
p252
aF0
aF20
aNaa(lp253
S'off.draft'
p254
aF0
aF20
aNaa(lp255
S'main.draft_depth_ratio'
p256
aNaF0.90000000000000002
aNaa(lp257
S'off.draft_depth_ratio'
p258
aNaF0.90000000000000002
aNaa(lp259
S'main.wave_height_freeboard_ratio'
p260
aNaF1
aNaa(lp261
S'off.wave_height_freeboard_ratio'
p262
aNaF1
aNaa(lp263
S'off.fairlead_draft_ratio'
p264
aF0
aF20
aNaa(lp265
S'main_offset_spacing'
p266
aF1
aNaNaa(lp267
S'main.manufacturability'
p268
aF0
aNaNaa(lp269
S'main.weldability'
p270
aNaF0
aNaa(lp271
S'off.manufacturability'
p272
aF0
aNaNaa(lp273
S'off.weldability'
p274
aNaF0
aNaa(lp275
S'tower_transition_buffer'
p276
aF-1
aF1
aNaa(lp277
S'nacelle_transition_buffer'
p278
aF0
aNaNaa(lp279
S'offset_freeboard_heel_margin'
p280
aF0
aNaNaa(lp281
S'offset_draft_heel_margin'
p282
aF0
aF20
aNaa(lp283
S'axial_unity'
p284
aF0
aF1
aNaa(lp285
S'mooring_length_max'
p286
aNaF1
aNaa(lp287
S'main.flange_spacing_ratio'
p288
aNaF1
aNaa(lp289
S'main.stiffener_radius_ratio'
p290
aNaF0.5
aNaa(lp291
S'main.flange_compactness'
p292
aF1
aNaNaa(lp293
S'main.web_compactness'
p294
aF1
aNaNaa(lp295
S'main.axial_local_api'
p296
aNaF1
aNaa(lp297
S'main.axial_general_api'
p298
aNaF1
aNaa(lp299
S'main.external_local_api'
p300
aNaF1
aNaa(lp301
S'main.external_general_api'
p302
aNaF1
aNaa(lp303
S'off.flange_spacing_ratio'
p304
aNaF1
aNaa(lp305
S'off.stiffener_radius_ratio'
p306
aNaF0.5
aNaa(lp307
S'off.flange_compactness'
p308
aF1
aNaNaa(lp309
S'off.web_compactness'
p310
aF1
aNaNaa(lp311
S'off.axial_local_api'
p312
aNaF1
aNaa(lp313
S'off.axial_general_api'
p314
aNaF1
aNaa(lp315
S'off.external_local_api'
p316
aNaF1
aNaa(lp317
S'off.external_general_api'
p318
aNaF1
aNaa(lp319
S'pontoon_stress'
p320
aNaF1
aNaa(lp321
S'tower_stress'
p322
aNaF1
aNaa(lp323
S'tower_shell_buckling'
p324
aNaF1
aNaa(lp325
S'tower_global_buckling'
p326
aNaF1
aNaa(lp327
S'main_stress'
p328
aNaF1
aNaa(lp329
S'main_shell_buckling'
p330
aNaF1
aNaa(lp331
S'main_global_buckling'
p332
aNaF1
aNaa(lp333
S'offset_stress'
p334
aNaF1
aNaa(lp335
S'offset_shell_buckling'
p336
aNaF1
aNaa(lp337
S'offset_global_buckling'
p338
aNaF1
aNaa(lp339
S'variable_ballast_height_ratio'
p340
aF0
aF1
aNaa(lp341
S'variable_ballast_mass'
p342
aF0
aNaNaa(lp343
S'metacentric_height'
p344
aF0.10000000000000001
aNaNaa(lp345
S'offset_force_ratio'
p346
aNaF1
aNaa(lp347
S'heel_moment_ratio'
p348
aNaF1
aNaa(lp349
S'period_margin_low'
p350
aNaF1
aNaa(lp351
S'period_margin_high'
p352
aF1
aNaNaa(S'structural_mass'
p353
F9.9999999999999995e-07
tp354
S'NM'
p355
t.