((dp1
S'rna_moment'
p2
cnumpy.core.multiarray
_reconstruct
p3
(cnumpy
ndarray
p4
(I0
tS'b'
tRp5
(I1
(I3
tcnumpy
dtype
p6
(S'f8'
I0
I1
tRp7
(I3
S'<'
NNNI-1
I-1
I0
tbI00
S'\xec*\xda\xf3O\xe7{A\xf8\xedw\x9a\x0e\xff\rA\xf1\x80S\xcaVvG\xc1'
tbsS'offset_permanent_ballast_height'
p8
cnumpy.core.multiarray
scalar
p9
(g6
(S'f8'
I0
I1
tRp10
(I3
S'<'
NNNI-1
I-1
I0
tbS'\xc4\xe2\x8c\xbb\xdc\x8b\xd4?'
tRp11
sS'rna_force'
p12
g3
(g4
(I0
tS'b'
tRp13
(I1
(I3
tg7
I00
S'\xcd\xcc\xccLc\x1e@A\x00\x00\x00\x00\x00\x00\x00\x00\xc3\xf5(\xec!\xffY\xc1'
tbsS'gamma_fatigue'
p14
F1.7549999999999999
sS'loading'
p15
S'hydrostatic'
p16
sS'lower_ring_pontoons_int'
p17
g9
(g10
S'\x00\x00\x00\x00\x00\x00\x00\x00'
tRp18
sS'main_stiffener_web_height'
p19
g3
(g4
(I0
tS'b'
tRp20
(I1
(I5
tg6
(S'f8'
I0
I1
tRp21
(I3
S'<'
NNNI-1
I-1
I0
tbI00
S'\x1f\xbepd;h\xdd?\xd5\xa8\xad\xc2[\xff\xef?y\x11\x93\xacA*\xd1?\x15j\x8a\x1d9n\xe3?|\x8f:\x9b\x92\xa0\x86?'
tbsS'zref'
p22
F119
sS'outfitting_cost_rate'
p23
F1.6500000000000001
sS'offset_buoyancy_tank_location'
p24
g9
(g10
S'\x01@N<\xb0\x84\xa4?'
tRp25
sS'main_stiffener_flange_width'
p26
g3
(g4
(I0
tS'b'
tRp27
(I1
(I5
tg21
I00
S"\x90;\xdc\xbb\x84\xba\xb0?]\x9d\xc0\xb4\xb4\xdc\xd6?\x96\x98\x05!J\x05\xff?q\x11jU\x86'\xf0?\xf1b-\x9b\xef\xb9\xde?"
tbsS'max_taper_ratio'
p28
F0.40000000000000002
sS'main_stiffener_spacing'
p29
g3
(g4
(I0
tS'b'
tRp30
(I1
(I5
tg21
I00
S'[\x05\xe0\xbd\rP%@\x8c\x93Z\xc8\x9ep"@\xf4p\xcco\x075-@g\xcb\xdft\x81\x950@\xfb\xa86N\xa1\xac:@'
tbsS'max_draft'
p31
F20
sS'T'
F9.8000000000000007
sS'bulkhead_mass_factor'
p32
F1
sS'wave_period_range_high'
p33
F20
sS'cross_attachment_pontoons_int'
p34
g9
(g10
S'\x00\x00\x00\x00\x00\x00\x00\x00'
tRp35
sS'outfitting_mass_fraction'
p36
F0.059999999999999998
sS'offset_buoyancy_tank_diameter'
p37
g9
(g10
S'\x85 \xa7\xc2y)%@'
tRp38
sS'main_outer_diameter'
p39
g3
(g4
(I0
tS'b'
tRp40
(I1
(I6
tg21
I00
S'i\x07C\x15\x06@9@|E+H\xe6\x8e(@\x81\x0f\x94#?d\x1d@W\xec?W\xff\xba$@%\xd1\x1c"3\xbb!@\x1d\xb3\xf9\x82\x9e\xae#@'
tbsS'rna_I'
p41
g3
(g4
(I0
tS'b'
tRp42
(I1
(I6
tg7
I00
S'\x00\x00\x00.b\xf5\xa3A\x00\x00\x00\x08)"\x99A\x00\x00\x00\xf0\x10Q\x94A\x00\x00\x00\x00\x00\x00\x00\x00\xa4p=\n\x98x7A\x00\x00\x00\x00\x00\x00\x00\x00'
tbsS'main.windLoads.mu'
p43
F1.8099999999999999e-05
sS'fairlead_support_outer_diameter'
p44
g9
(g10
S'r3\xa8\x14\xf1\xff#@'
tRp45
sS'offset_bulkhead_thickness'
p46
g3
(g4
(I0
tS'b'
tRp47
(I1
(I6
tg7
I00
S'\x9a\x99\x99\x99\x99\x99\xa9?\x9a\x99\x99\x99\x99\x99\xa9?\x00\x00\x00\x00\x00\x00\x00\x00\x00\x00\x00\x00\x00\x00\x00\x00\x00\x00\x00\x00\x00\x00\x00\x00\x9a\x99\x99\x99\x99\x99\xa9?'
tbsS'shell_mass_factor'
p48
F1
sS'main_pontoon_attach_upper'
p49
g9
(g10
S'\x1bn)l\xba\x9a\xed?'
tRp50
sS'rna_mass'
p51
F716904.15530069917
sS'tower_buckling_length'
p52
F30
sS'Hs'
p53
F10.800000000000001
sS'main_freeboard'
p54
g9
(g10
S'\x9a<\x93\xd9\x88\xff=@'
tRp55
sS'Rhub'
p56
F2.2999999999999998
sS'material_density'
p57
F7850
sS'tower_outfitting_factor'
p58
F1.0700000000000001
sS'tower_outer_diameter'
p59
g3
(g4
(I0
tS'b'
tRp60
(I1
(I6
tg7
I00
S'\x00\x00\x00\x00\x00\x00"@\x00\x00\x00\x00\x00\x00"@\x9a\x99\x99\x99\x99\x99 @\xa4p=\n\xd7\xa3\x1b@\x00\x00\x00\x00\x00\x00\x16@\x00\x00\x00\x00\x00\x00\x16@'
tbsS'anchor_type'
p61
S'suctionpile'
p62
sS'G'
F79300000000
sS'fairlead_location'
p63
g9
(g10
S'j\xa5>\x04\x84\xd0\xcb?'
tRp64
sS'max_offset'
p65
F100
sS'max_survival_heel'
p66
F15
sS'main_stiffener_flange_thickness'
p67
g3
(g4
(I0
tS'b'
tRp68
(I1
(I5
tg21
I00
S'\xf8 \x8e\x95\x03\xc2\xb1?\xb2\xa2\xf1\xa9]\x08\xd7?!yW\xf1@\xee\xc1?\x08\x94\xfc\xf9\x87\xe0\xdf?-\x1b\xb9\xd4\x84K\xc8?'
tbsS'permanent_ballast_density'
p69
F4492
sS'z0'
p70
F0
sS'Uc'
p71
F0
sS'material_cost_rate'
p72
F1.1000000000000001
sS'pontoon_wall_thickness'
p73
g9
(g10
S'CE\xb2_\x8a\x96\x94?'
tRp74
sS'number_of_offset_columns'
p75
I3
sS'radius_to_offset_column'
p76
g9
(g10
S'\x86}C\xf3\xc1\xedJ@'
tRp77
sS'tower_section_height'
p78
g3
(g4
(I0
tS'b'
tRp79
(I1
(I5
tg7
I00
S'\x00\x00\x00\x00\x00\x00$@\x00\x10\xaeG\xe1z\x84?\xc3\xf5(\\\x8fBJ@\xcc\xcc\xcc\xcc\xcc\x8cJ@\x00)\\\x8f\xc2\xf5\n@'
tbsS'main_buoyancy_tank_location'
p80
g9
(g10
S'f\xcf\xac\xd71\x99\xf1>'
tRp81
sS'cm'
p82
F2
sS'main.waveLoads.mu'
p83
F0.00088999999999999995
sS'mooring_diameter'
p84
g9
(g10
S'\xf3\xd6j\x9c\x18\xba\xd1?'
tRp85
sS'gamma_m'
p86
F1.1000000000000001
sS'gamma_n'
p87
F1
sS'offset_section_height'
p88
g3
(g4
(I0
tS'b'
tRp89
(I1
(I5
tg21
I00
S'W5\x1d\xd5z\xbb\xee?rSn\xd8^\x17\xfc?\x92A\xcb;\x06\x013@\x06\x17f\x19\xef\x1b\xd8?\xcd4\x9a\x97\x81:\x17@'
tbsS'main_bulkhead_thickness'
p90
g3
(g4
(I0
tS'b'
tRp91
(I1
(I6
tg7
I00
S'\x9a\x99\x99\x99\x99\x99\xa9?\x9a\x99\x99\x99\x99\x99\xa9?\x00\x00\x00\x00\x00\x00\x00\x00\x00\x00\x00\x00\x00\x00\x00\x00\x00\x00\x00\x00\x00\x00\x00\x00\x9a\x99\x99\x99\x99\x99\xa9?'
tbsS'yaw'
p92
F0
sS'gamma_f'
p93
F1.3500000000000001
sS'offset_freeboard'
p94
g9
(g10
S't\xec\x94\xbd\x10\xe2+@'
tRp95
sS'gamma_b'
p96
F1.1000000000000001
sS'z_offset'
p97
F0
sS'ballast_cost_rate'
p98
F0.10000000000000001
sS'number_of_mooring_connections'
p99
I3
sS'offset_stiffener_web_thickness'
p100
g3
(g4
(I0
tS'b'
tRp101
(I1
(I5
tg21
I00
S']\xe9"\x05-\x9c\xdf?\xafG\xdc\xc5\x88\xf1\xc3?\x9b\xd5i\xf3\x08px?\t\x919\xe6\x92\xfdk?\x15_8\xf8\x98\xed\x97?'
tbsS'mooring_line_length'
p102
g9
(g10
S'\x7f\xdcx\xfb\x03\x98\xa6@'
tRp103
sS'outer_cross_pontoons_int'
p104
g9
(g10
S'\x00\x00\x00\x00\x00\x00\x00\x00'
tRp105
sS'water_depth'
p106
F320
sS'main_buoyancy_tank_diameter'
p107
g9
(g10
S"\xf5~'5\xa0\xd3\x1d@"
tRp108
sS'column_mass_factor'
p109
F1.05
sS'operational_heel'
p110
F6
sS'offset_outer_diameter'
p111
g3
(g4
(I0
tS'b'
tRp112
(I1
(I6
tg21
I00
S'L\xb7\xce\xa9\xd0\x02(@\xcf\x190\x9e\xdb}:@S\xfe\xa7\x1c\x8e}%@\xc7FXKL\x8d"@09\x16\x06\xb6\x02\x1b@\x81\xcc\x15\x85\x99\x02\x19@'
tbsS'yield_stress'
p113
F345000000
sS'main_wall_thickness'
p114
g3
(g4
(I0
tS'b'
tRp115
(I1
(I5
tg6
(S'f8'
I0
I1
tRp116
(I3
S'<'
NNNI-1
I-1
I0
tbI00
S'0$\xf0\xafp\xb5\xac?:\xea\xf2Q\x01\r\xaf?\xc6\x1f\x0b\x1b%\xa0\xa9?\x86DfyO\x91\xa5?\x92\xf9N^p]\xaa?'
tbsS'connection_ratio_max'
p117
F0.25
sS'ring_mass_factor'
p118
F1
sS'upper_ring_pontoons_int'
p119
g9
(g10
S'\x00\x00\x00\x00\x00\x00\x00\x00'
tRp120
sS'main_stiffener_web_thickness'
p121
g3
(g4
(I0
tS'b'
tRp122
(I1
(I5
tg21
I00
S'\x0c\xb03\x94v\xf7\xb6?\xe2s\x86|x\xf3\xdf?\x9b\xaaZ-Y\xee\xc5?\xbf\x06\xf4\r\xd8B\xc1?>\xe5\x04\xa8J\xab\xac?'
tbsS'lower_attachment_pontoons_int'
p123
g9
(g10
S'\x00\x00\x00\x00\x00\x00\xf0?'
tRp124
sS'water_density'
p125
F1025
sS'main_buoyancy_tank_height'
p126
g9
(g10
S'\xfd%\xa2\xfc\xbf\r\xfe?'
tRp127
sS'cd_usr'
p128
Finf
sS'min_diameter_thickness_ratio'
p129
F120
sS'offset_wall_thickness'
p130
g3
(g4
(I0
tS'b'
tRp131
(I1
(I5
tg116
I00
S'\xf4)-o\xd6\r\xc3?\xf0\x19\xabd\xe1\xb3\xc1?\xcc\x95\xe7\xb7"\x9c\xa9?\xf5\xf73\x94\xbd\xaf\xa0?\xdc9\xff\xd6\x13|\x98?'
tbsS'offset_buoyancy_tank_height'
p132
g9
(g10
S'\xf0Y\xc0Cn\x9f\x0b@'
tRp133
sS'main_section_height'
p134
g3
(g4
(I0
tS'b'
tRp135
(I1
(I5
tg21
I00
S"4\xb6\xb3\xbf\x80j'@\xfd\x12\xc1\xdc\x15\xa6\xf8?&).\x1a\x02f\x1b@\xfc1\x9fp\xc9l'@ \x8a\x83\x87\x7f<'@"
tbsS'Uref'
p136
F11
sS'anchor_radius'
p137
g9
(g10
S'\xc5\xe6/\xed\xbe\xd8\xa5@'
tRp138
sS'rna_cg'
p139
g3
(g4
(I0
tS'b'
tRp140
(I1
(I3
tg7
I00
S'\x1e\x01\x16\xd8\xe7Z\xe3\xbf\x00\x00\x00\x00\x00\x00\x00\x00\x0e\xb4L\xd0p$\x04@'
tbsS'pontoon_outer_diameter'
p141
g9
(g10
S'B\x82\xc8O!\xc8!@'
tRp142
sS'fairlead_support_wall_thickness'
p143
g9
(g10
S'$\x00#\xdeIE\x93?'
tRp144
sS'fairlead_offset_from_shell'
p145
F6.0004865405187147
sS'tower_wall_thickness'
p146
g3
(g4
(I0
tS'b'
tRp147
(I1
(I5
tg116
I00
S'\x90\xebQ\xb8\x1e\x85\xd3?@\\\x8f\xc2\xf5(\xcc?\x10\x00\x00\x00\x00\x00\xc0?\xc0\xf5(\\\x8f\xc2\xb5?\x80\x1e\x85\xebQ\xb8\xae?'
tbsS'mooring_cost_rate'
p148
F1.1000000000000001
sS'painting_cost_rate'
p149
F14.4
sS'nu'
p150
F0.26000000000000001
sS'E'
F200000000000
sS'wave_period_range_low'
p151
F2
sS'main_pontoon_attach_lower'
p152
g9
(g10
S'o+\x9b\x8fcR\xba?'
tRp153
sS'offset_stiffener_flange_thickness'
p154
g3
(g4
(I0
tS'b'
tRp155
(I1
(I5
tg21
I00
S'\rH_\xbdqR\xd3?\xee\x10/\x8ab\xc3\xdf?\xab\x07\\\x01\x93\xcd\xcb?\xf6\xa3k<\x10\x1f\xc4?\x16\xda\xa8\xa8J\x13\xc4?'
tbsS'main.windLoads.rho'
p156
F1.198
sS'beta'
p157
F0
sS'shearExp'
p158
F0.11
sS'mooring_lines_per_connection'
p159
g9
(g10
S'\x00\x00\x00\x00\x00\x00\x00@'
tRp160
sS'main_permanent_ballast_height'
p161
g9
(g10
S'J\xa9?\xf7\x8d\x05\x12@'
tRp162
sS'offset_stiffener_flange_width'
p163
g3
(g4
(I0
tS'b'
tRp164
(I1
(I5
tg21
I00
S'\xee5v\x93?#\xe1?\x19\x83\x88\xeb\x94\xb4\xa8?Q\xed\xdc\xe6\x9f\xce\xd8?\xeb0n%\xb5V\xc5?\xacI\xf1\xf0d`\xed?'
tbsS'offset_stiffener_spacing'
p165
g3
(g4
(I0
tS'b'
tRp166
(I1
(I5
tg21
I00
S'\x18?\xa8\xee\x17!\x0b@u\xbd\xff\xe5\x84v>@:\x93\xfa\x19\npJ@J7\xfe6\xbc\x03*@\xabXv\xd8U\x01/@'
tbsS'mooring_type'
p167
S'chain'
p168
sS'hub_height'
p169
F149
sS'upper_attachment_pontoons_int'
p170
g9
(g10
S'\x00\x00\x00\x00\x00\x00\x00\x00'
tRp171
sS'labor_cost_rate'
p172
F1
sS'offset_stiffener_web_height'
p173
g3
(g4
(I0
tS'b'
tRp174
(I1
(I5
tg21
I00
S'*\xda\xc4\xb3\x06V\xc7?\xd31W\x1aDJ\xda?\xde\x9d\xb43\xf8\xc6\xc0?\xfc6ov\xef\xd0\xb1?.\xca\xd9\xdc\xf4x\xbc?'
tbs(lp175
(lp176
S'fairlead_location'
p177
aF0
aF1
aa(lp178
S'fairlead_support_wall_thickness'
p179
aF0.001
aF1
aa(lp180
S'fairlead_support_outer_diameter'
p181
aF0.10000000000000001
aF10
aa(lp182
S'main_freeboard'
p183
aF0
aF50
aa(lp184
S'main_section_height'
p185
aF0.10000000000000001
aF50
aa(lp186
S'main_outer_diameter'
p187
aF2.1000000000000001
aF40
aa(lp188
S'main_wall_thickness'
p189
aF0.001
aF0.5
aa(lp190
S'main_buoyancy_tank_diameter'
p191
aF0
aF50
aa(lp192
S'main_buoyancy_tank_height'
p193
aF0
aF20
aa(lp194
S'main_buoyancy_tank_location'
p195
aF0
aF1
aa(lp196
S'offset_freeboard'
p197
aF2
aF15
aa(lp198
S'offset_section_height'
p199
aF0.10000000000000001
aF50
aa(lp200
S'offset_outer_diameter'
p201
aF1.1000000000000001
aF40
aa(lp202
S'offset_wall_thickness'
p203
aF0.001
aF0.5
aa(lp204
S'offset_buoyancy_tank_diameter'
p205
aF0
aF50
aa(lp206
S'offset_buoyancy_tank_height'
p207
aF0
aF20
aa(lp208
S'offset_buoyancy_tank_location'
p209
aF0
aF1
aa(lp210
S'pontoon_outer_diameter'
p211
aF1
aF10
aa(lp212
S'pontoon_wall_thickness'
p213
aF0.01
aF1
aa(lp214
S'main_pontoon_attach_lower'
p215
aF0
aF0.5
aa(lp216
S'main_pontoon_attach_upper'
p217
aF0.5
aF1
aa(lp218
S'mooring_line_length'
p219
aF200
aF3000
aa(lp220
S'anchor_radius'
p221
aF100
aF5000
aa(lp222
S'mooring_diameter'
p223
aF0.050000000000000003
aF2
aa(lp224
S'main_permanent_ballast_height'
p225
aF0.10000000000000001
aF50
aa(lp226
S'main_stiffener_web_height'
p227
aF0.01
aF1
aa(lp228
S'main_stiffener_web_thickness'
p229
aF0.001
aF0.5
aa(lp230
S'main_stiffener_flange_width'
p231
aF0.01
aF5
aa(lp232
S'main_stiffener_flange_thickness'
p233
aF0.001
aF0.5
aa(lp234
S'main_stiffener_spacing'
p235
aF0.10000000000000001
aF100
aa(lp236
S'offset_stiffener_web_height'
p237
aF0.01
aF1
aa(lp238
S'offset_stiffener_web_thickness'
p239
aF0.001
aF0.5
aa(lp240
S'offset_stiffener_flange_width'
p241
aF0.01
aF5
aa(lp242
S'offset_stiffener_flange_thickness'
p243
aF0.001
aF0.5
aa(lp244
S'offset_stiffener_spacing'
p245
aF0.10000000000000001
aF100
aa(lp246
S'offset_permanent_ballast_height'
p247
aF0.10000000000000001
aF50
aa(lp248
S'radius_to_offset_column'
p249
aF5
aF100
aa(lp250
(lp251
S'tow.height_constraint'
p252
aF-0.01
aF0.01
aNaa(lp253
S'main.draft'
p254
aF0
aF20
aNaa(lp255
S'off.draft'
p256
aF0
aF20
aNaa(lp257
S'main.draft_margin'
p258
aF0
aF1
aNaa(lp259
S'off.draft_margin'
p260
aF0
aF1
aNaa(lp261
S'main.wave_height_freeboard_ratio'
p262
aNaF1
aNaa(lp263
S'off.wave_height_freeboard_ratio'
p264
aNaF1
aNaa(lp265
S'main_offset_spacing'
p266
aF1
aNaNaa(lp267
S'main.manufacturability'
p268
aF0
aNaNaa(lp269
S'main.weldability'
p270
aNaF0
aNaa(lp271
S'off.manufacturability'
p272
aF0
aNaNaa(lp273
S'off.weldability'
p274
aNaF0
aNaa(lp275
S'tower_transition_buffer'
p276
aF-1
aF1
aNaa(lp277
S'nacelle_transition_buffer'
p278
aF0
aNaNaa(lp279
S'offset_freeboard_heel_margin'
p280
aF0
aNaNaa(lp281
S'offset_draft_heel_margin'
p282
aF0
aF20
aNaa(lp283
S'axial_unity'
p284
aF0
aF1
aNaa(lp285
S'mooring_length_max'
p286
aNaF1
aNaa(lp287
S'main.flange_spacing_ratio'
p288
aNaF1
aNaa(lp289
S'main.stiffener_radius_ratio'
p290
aNaF0.5
aNaa(lp291
S'main.flange_compactness'
p292
aF1
aNaNaa(lp293
S'main.web_compactness'
p294
aF1
aNaNaa(lp295
S'main.axial_local_api'
p296
aNaF1
aNaa(lp297
S'main.axial_general_api'
p298
aNaF1
aNaa(lp299
S'main.external_local_api'
p300
aNaF1
aNaa(lp301
S'main.external_general_api'
p302
aNaF1
aNaa(lp303
S'off.flange_spacing_ratio'
p304
aNaF1
aNaa(lp305
S'off.stiffener_radius_ratio'
p306
aNaF0.5
aNaa(lp307
S'off.flange_compactness'
p308
aF1
aNaNaa(lp309
S'off.web_compactness'
p310
aF1
aNaNaa(lp311
S'off.axial_local_api'
p312
aNaF1
aNaa(lp313
S'off.axial_general_api'
p314
aNaF1
aNaa(lp315
S'off.external_local_api'
p316
aNaF1
aNaa(lp317
S'off.external_general_api'
p318
aNaF1
aNaa(lp319
S'pontoon_stress'
p320
aNaF1
aNaa(lp321
S'tower_stress'
p322
aNaF1
aNaa(lp323
S'tower_shell_buckling'
p324
aNaF1
aNaa(lp325
S'tower_global_buckling'
p326
aNaF1
aNaa(lp327
S'main_stress'
p328
aNaF1
aNaa(lp329
S'main_shell_buckling'
p330
aNaF1
aNaa(lp331
S'main_global_buckling'
p332
aNaF1
aNaa(lp333
S'offset_stress'
p334
aNaF1
aNaa(lp335
S'offset_shell_buckling'
p336
aNaF1
aNaa(lp337
S'offset_global_buckling'
p338
aNaF1
aNaa(lp339
S'variable_ballast_height_ratio'
p340
aF0
aF1
aNaa(lp341
S'variable_ballast_mass'
p342
aF0
aNaNaa(lp343
S'metacentric_height'
p344
aF0.10000000000000001
aNaNaa(lp345
S'offset_force_ratio'
p346
aNaF1
aNaa(lp347
S'heel_moment_ratio'
p348
aNaF1
aNaa(lp349
S'period_margin_low'
p350
aNaF1
aNaa(lp351
S'period_margin_high'
p352
aF1
aNaNaa(S'structural_mass'
p353
F9.9999999999999995e-07
tp354
S'NM'
p355
t.