((dp1
S'rna_moment'
p2
cnumpy.core.multiarray
_reconstruct
p3
(cnumpy
ndarray
p4
(I0
tS'b'
tRp5
(I1
(I3
tcnumpy
dtype
p6
(S'f8'
I0
I1
tRp7
(I3
S'<'
NNNI-1
I-1
I0
tbI00
S'\xec*\xda\xf3O\xe7{A\xf8\xedw\x9a\x0e\xff\rA\xf1\x80S\xcaVvG\xc1'
tbsS'offset_permanent_ballast_height'
p8
cnumpy.core.multiarray
scalar
p9
(g6
(S'f8'
I0
I1
tRp10
(I3
S'<'
NNNI-1
I-1
I0
tbS'\xf5^\xce5\xd9}\xd4?'
tRp11
sS'rna_force'
p12
g3
(g4
(I0
tS'b'
tRp13
(I1
(I3
tg7
I00
S'\xcd\xcc\xccLc\x1e@A\x00\x00\x00\x00\x00\x00\x00\x00\xc3\xf5(\xec!\xffY\xc1'
tbsS'gamma_fatigue'
p14
F1.7549999999999999
sS'loading'
p15
S'hydrostatic'
p16
sS'lower_ring_pontoons_int'
p17
g9
(g10
S'\x00\x00\x00\x00\x00\x00\x00\x00'
tRp18
sS'tapered_col_cost_rate'
p19
F4720
sS'main_stiffener_web_height'
p20
g3
(g4
(I0
tS'b'
tRp21
(I1
(I5
tg6
(S'f8'
I0
I1
tRp22
(I3
S'<'
NNNI-1
I-1
I0
tbI00
S'0m\xce*w\x7f\xdd?%\xc9\xa4\xb0d\xff\xef?x\x18\xcf\x9c\xbd^\xd1?\x99\x17J\xfb\x10\x87\xe3?Z\xe8k\xac5`\x86?'
tbsS'zref'
p23
F119
sS'outfitting_cost_rate'
p24
F6980
sS'main_stiffener_flange_width'
p25
g3
(g4
(I0
tS'b'
tRp26
(I1
(I5
tg22
I00
S'\xf7@\xf9g\xd7@\xb1?]\x044\xbf\x01\xe6\xd6?\xae\x0b\x98\xf9,\x9b\xff?\xfbP\x8a\xb6\x03K\xf0?\xa4\xb1\x83\xa1e\xdf\xde?'
tbsS'max_taper_ratio'
p27
F0.40000000000000002
sS'tower_outfitting_factor'
p28
F1.0700000000000001
sS'fairlead_support_wall_thickness'
p29
g9
(g10
S'X\x84\xad\xde\xe9\x19\x93?'
tRp30
sS'T'
F9.8000000000000007
sS'main_ballast_heave_box_diameter'
p31
g9
(g10
S'\xac\xfd\xcaL\x9c\x01\x1e@'
tRp32
sS'bulkhead_mass_factor'
p33
F1
sS'wave_period_range_high'
p34
F20
sS'cross_attachment_pontoons_int'
p35
g9
(g10
S'\x00\x00\x00\x00\x00\x00\x00\x00'
tRp36
sS'outfitting_mass_fraction'
p37
F0.059999999999999998
sS'main_outer_diameter'
p38
g3
(g4
(I0
tS'b'
tRp39
(I1
(I6
tg22
I00
S"=\xec\xbd\xa3:*9@n\x1b^\xd09\xbc(@\x12'n\xd0\xfe<\x1d@<\xf6s-\x03\xea$@\x8b T\x976\xba!@\x0f-5S_\xc8#@"
tbsS'rna_I'
p40
g3
(g4
(I0
tS'b'
tRp41
(I1
(I6
tg7
I00
S'\x00\x00\x00.b\xf5\xa3A\x00\x00\x00\x08)"\x99A\x00\x00\x00\xf0\x10Q\x94A\x00\x00\x00\x00\x00\x00\x00\x00\xa4p=\n\x98x7A\x00\x00\x00\x00\x00\x00\x00\x00'
tbsS'main.windLoads.mu'
p42
F1.8099999999999999e-05
sS'offset_ballast_heave_box_height'
p43
g9
(g10
S'\xbav\xbd=v"\x0b@'
tRp44
sS'fairlead_support_outer_diameter'
p45
g9
(g10
S'{\xf8\x0c\xed\xf7\xff#@'
tRp46
sS'offset_bulkhead_thickness'
p47
g3
(g4
(I0
tS'b'
tRp48
(I1
(I6
tg7
I00
S'\x9a\x99\x99\x99\x99\x99\xa9?\x9a\x99\x99\x99\x99\x99\xa9?\x00\x00\x00\x00\x00\x00\x00\x00\x00\x00\x00\x00\x00\x00\x00\x00\x00\x00\x00\x00\x00\x00\x00\x00\x9a\x99\x99\x99\x99\x99\xa9?'
tbsS'mooring_max_offset'
p49
F100
sS'offset_ballast_heave_box_diameter'
p50
g9
(g10
S'\xc0\xe0\xe8k\x7f#%@'
tRp51
sS'main_ballast_heave_box_location'
p52
g9
(g10
S't\xea\x15\x999\xa0\xf1>'
tRp53
sS'shell_mass_factor'
p54
F1
sS'main_pontoon_attach_upper'
p55
g9
(g10
S'\xbbn^\xc2\xe4\xa4\xed?'
tRp56
sS'rna_mass'
p57
F523770.4590506992
sS'offset_ballast_heave_box_location'
p58
g9
(g10
S'\xfe\x00\xd4\x88\xd7\xd1\xa4?'
tRp59
sS'tower_buckling_length'
p60
F30
sS'Hs'
p61
F10.800000000000001
sS'main_freeboard'
p62
g9
(g10
S'\xe2\xa0\x18SU\xff=@'
tRp63
sS'Rhub'
p64
F2.2999999999999998
sS'material_density'
p65
F7850
sS'main_stiffener_spacing'
p66
g3
(g4
(I0
tS'b'
tRp67
(I1
(I5
tg22
I00
S'\x95\xe4\xe2\xf0\xdd`%@Y\x913\xb7\xc1\x99"@\x04M+\xc8\xcc0.@`j\xf9b\xd5\xe50@\xf0|8\x10?z:@'
tbsS'tower_outer_diameter'
p68
g3
(g4
(I0
tS'b'
tRp69
(I1
(I6
tg7
I00
S'\x00\x00\x00\x00\x00\x00"@\x00\x00\x00\x00\x00\x00"@\x9a\x99\x99\x99\x99\x99 @\xa4p=\n\xd7\xa3\x1b@\x00\x00\x00\x00\x00\x00\x16@\x00\x00\x00\x00\x00\x00\x16@'
tbsS'anchor_type'
p70
S'suctionpile'
p71
sS'G'
F79300000000
sS'main_ballast_heave_box_height'
p72
g9
(g10
S"v\xdf6c\x1e'\xfe?"
tRp73
sS'max_offset'
p74
F100
sS'max_survival_heel'
p75
F15
sS'main_stiffener_flange_thickness'
p76
g3
(g4
(I0
tS'b'
tRp77
(I1
(I5
tg22
I00
S'\x96Y\xf5\x05\x12\xb8\xb1?\xb0|\xcfJ\xbf&\xd7?\xa8\x99\x123\xca\x14\xc2?\xac\xc9\xa9tL\xcb\xdf?[h#/:\xb8\xc8?'
tbsS'permanent_ballast_density'
p78
F4492
sS'z0'
p79
F0
sS'Uc'
p80
F0
sS'offset_stiffener_web_thickness'
p81
g3
(g4
(I0
tS'b'
tRp82
(I1
(I5
tg22
I00
S'\xb8K\x81b\r\x88\xdf?\x06{\x1dh\xe8\x14\xc4?w\x94\x9f\xf0\xb6rx?I,\x99\xac\xb4\x17l?|\x89\xa9\x92:\xd8\x97?'
tbsS'pontoon_wall_thickness'
p83
g9
(g10
S'g\x9a\x88\x99\x0e\xdb\x94?'
tRp84
sS'number_of_offset_columns'
p85
I3
sS'fairlead'
p86
g9
(g10
S'\xcd)<m\x8e\x18 @'
tRp87
sS'radius_to_offset_column'
p88
g9
(g10
S'\xfd\xa1\x9e\x8f\x80\xd3J@'
tRp89
sS'tower_section_height'
p90
g3
(g4
(I0
tS'b'
tRp91
(I1
(I5
tg7
I00
S'\x00\x00\x00\x00\x00\x00$@\x00\x10\xaeG\xe1z\x84?\xc3\xf5(\\\x8fBJ@\xcc\xcc\xcc\xcc\xcc\x8cJ@\x00)\\\x8f\xc2\xf5\n@'
tbsS'cm'
p92
F2
sS'main.waveLoads.mu'
p93
F0.00088999999999999995
sS'mooring_diameter'
p94
g9
(g10
S'f\xd2\xeb\x86L\xc5\xd1?'
tRp95
sS'gamma_m'
p96
F1.1000000000000001
sS'gamma_n'
p97
F1
sS'offset_section_height'
p98
g3
(g4
(I0
tS'b'
tRp99
(I1
(I5
tg22
I00
S' F\x01\xa3\x0c\xaf\xee?\xd2\x8cn\xb6\xb9\xf7\xfb?\x8c\xee+9\x9d\xfb2@\\\xb2#\x93g+\xd8?\xd5\x10\t\x03o2\x17@'
tbsS'main_bulkhead_thickness'
p100
g3
(g4
(I0
tS'b'
tRp101
(I1
(I6
tg7
I00
S'\x9a\x99\x99\x99\x99\x99\xa9?\x9a\x99\x99\x99\x99\x99\xa9?\x00\x00\x00\x00\x00\x00\x00\x00\x00\x00\x00\x00\x00\x00\x00\x00\x00\x00\x00\x00\x00\x00\x00\x00\x9a\x99\x99\x99\x99\x99\xa9?'
tbsS'yaw'
p102
F0
sS'gamma_f'
p103
F1.3500000000000001
sS'offset_freeboard'
p104
g9
(g10
S'B\x15\x86\xaf%\xdd+@'
tRp105
sS'gamma_b'
p106
F1.1000000000000001
sS'z_offset'
p107
F0
sS'ballast_cost_rate'
p108
F100
sS'number_of_mooring_connections'
p109
I3
sS'mooring_line_length'
p110
g9
(g10
S'&\x91\xb2\xaa\x99\x96\xa6@'
tRp111
sS'outer_cross_pontoons_int'
p112
g9
(g10
S'\x00\x00\x00\x00\x00\x00\x00\x00'
tRp113
sS'water_depth'
p114
F320
sS'column_mass_factor'
p115
F1.05
sS'operational_heel'
p116
F6
sS'offset_outer_diameter'
p117
g3
(g4
(I0
tS'b'
tRp118
(I1
(I6
tg22
I00
S';l\x91)\x1f\xdb\'@6\\\\\xe9\xb0\x85:@\xd0\xf5k\xef(n%@\x88n\x8b\xb8\xfd\x7f"@\n9\x18\xd4)p\x1a@\xb8\xb5\xba\xe3\x0b\xe1\x18@'
tbsS'yield_stress'
p119
F345000000
sS'main_wall_thickness'
p120
g3
(g4
(I0
tS'b'
tRp121
(I1
(I6
tg22
I00
S'\x8d,#\x12\\V\xaa?\x91L\x88h\xffL\xaf?J|\xc7\x8f,W\xae?\xd9N(9\xdaa\xa4?4\xdbXS\x18\xb9\xa6?\xd0\x8f\x9d\xb7\x05\xb9\xad?'
tbsS'connection_ratio_max'
p122
F0.25
sS'ring_mass_factor'
p123
F1
sS'upper_ring_pontoons_int'
p124
g9
(g10
S'\x00\x00\x00\x00\x00\x00\x00\x00'
tRp125
sS'main_stiffener_web_thickness'
p126
g3
(g4
(I0
tS'b'
tRp127
(I1
(I5
tg22
I00
S'\x13I\xc8\x15)\xe7\xb6?\x9d\x03\x99\r\xab\xee\xdf?\xb7+@\x98,\xdf\xc5?\x87f\x11\xed(p\xc1?~\xdc\x8a\xce+y\xac?'
tbsS'lower_attachment_pontoons_int'
p128
g9
(g10
S'\x00\x00\x00\x00\x00\x00\xf0?'
tRp129
sS'water_density'
p130
F1025
sS'cd_usr'
p131
Finf
sS'min_diameter_thickness_ratio'
p132
F120
sS'offset_wall_thickness'
p133
g3
(g4
(I0
tS'b'
tRp134
(I1
(I6
tg22
I00
S'\xde \x87{\xefc\xb9?6\xb9\x93\x9a\xaa\x8b\xc9?en \x85\x94\xe7\xb4?\xad\x87\xfe\n)\xea\x95?\xcb6\xedW*O\xa6?\x85\x98\xa3\xd2>Pq?'
tbsS'main_section_height'
p135
g3
(g4
(I0
tS'b'
tRp136
(I1
(I5
tg22
I00
S"\xfa+\xdd\xbf\x0b\xc7'@D\x1f\xefT\x15\xcf\xf8?y\x91@\xc4aY\x1b@\xe6\xb3z\x1b}c'@\x80\xd4\xfcz\xf84'@"
tbsS'Uref'
p137
F11
sS'anchor_radius'
p138
g9
(g10
S'\xd1\xe1E\xcf\xf1\xda\xa5@'
tRp139
sS'rna_cg'
p140
g3
(g4
(I0
tS'b'
tRp141
(I1
(I3
tg7
I00
S'\x1e\x01\x16\xd8\xe7Z\xe3\xbf\x00\x00\x00\x00\x00\x00\x00\x00\x0e\xb4L\xd0p$\x04@'
tbsS'pontoon_outer_diameter'
p142
g9
(g10
S'I\x08\xa9\x9dz\xb5!@'
tRp143
sS'fairlead_offset_from_shell'
p144
F6.0004865405187147
sS'tower_wall_thickness'
p145
g3
(g4
(I0
tS'b'
tRp146
(I1
(I6
tg7
I00
S'\xe0\xa3p=\n\xd7\xd3?@33333\xd3?\x00R\xb8\x1e\x85\xeb\xc1?@\\\x8f\xc2\xf5(\xbc?\x80\x1e\x85\xebQ\xb8\xae?\x80\x1e\x85\xebQ\xb8\xae?'
tbsS'mooring_cost_rate'
p147
F1.1000000000000001
sS'nu'
p148
F0.26000000000000001
sS'E'
F200000000000
sS'wave_period_range_low'
p149
F2
sS'main_pontoon_attach_lower'
p150
g9
(g10
S'Bx\x10\xda\xe1\x11\xba?'
tRp151
sS'offset_stiffener_flange_thickness'
p152
g3
(g4
(I0
tS'b'
tRp153
(I1
(I5
tg22
I00
S">W\x02G\x05t\xd3?}\xeb\x06\x08\xb6\xc4\xdf?f\xf4\x98\x19\xf3\x10\xcc?\x88'\xef\xd1\x9aB\xc4?\x0e\x1f\xf2\xa3\xb0:\xc4?"
tbsS'main.windLoads.rho'
p154
F1.198
sS'beta'
p155
F0
sS'shearExp'
p156
F0.11
sS'mooring_lines_per_connection'
p157
g9
(g10
S'\x00\x00\x00\x00\x00\x00\x00@'
tRp158
sS'main_permanent_ballast_height'
p159
g9
(g10
S'\xf8#e*]\xa5\x11@'
tRp160
sS'offset_stiffener_flange_width'
p161
g3
(g4
(I0
tS'b'
tRp162
(I1
(I5
tg22
I00
S'4x\x98^\xe9$\xe1?\xc9Md\xc9\xfd\x9b\xa8?\xdd\xdd~3\x8f\xd4\xd8?"\x88f\x9e\xa4\x7f\xc5?/\x8cV\x04/]\xed?'
tbsS'offset_stiffener_spacing'
p163
g3
(g4
(I0
tS'b'
tRp164
(I1
(I5
tg22
I00
S'\x0ej\xcaj\xc4\xd2\n@\x00Q\xfd\x1a\xaaC>@\x89\x8c\x19\xb0\xb9\xecJ@\xf8\xfc L\xdb\x03*@\x02\x0e\xca0\xc1\xce.@'
tbsS'mooring_type'
p165
S'chain'
p166
sS'hub_height'
p167
F149
sS'upper_attachment_pontoons_int'
p168
g9
(g10
S'\x00\x00\x00\x00\x00\x00\x00\x00'
tRp169
sS'offset_stiffener_web_height'
p170
g3
(g4
(I0
tS'b'
tRp171
(I1
(I5
tg22
I00
S'\xa58\xfe\xe3a2\xc7?\xb6S\xed\xbdNd\xda?\xc8\x86\xd4\xbe\xf0!\xc1?\x80\x9a\x96"\xe9\x10\xb2?\xde\xa0\x8b\xb6\x03s\xbc?'
tbsS'pontoon_cost_rate'
p172
F6.25
s(lp173
(lp174
S'fairlead'
p175
aF0
aF20
aa(lp176
S'fairlead_support_wall_thickness'
p177
aF0.001
aF1
aa(lp178
S'fairlead_support_outer_diameter'
p179
aF0.10000000000000001
aF10
aa(lp180
S'main_freeboard'
p181
aF0
aF50
aa(lp182
S'main_section_height'
p183
aF0.10000000000000001
aF50
aa(lp184
S'main_outer_diameter'
p185
aF2.1000000000000001
aF40
aa(lp186
S'main_wall_thickness'
p187
aF0.001
aF0.5
aa(lp188
S'main_ballast_heave_box_diameter'
p189
aF0
aF50
aa(lp190
S'main_ballast_heave_box_height'
p191
aF0
aF20
aa(lp192
S'main_ballast_heave_box_location'
p193
aF0
aF1
aa(lp194
S'offset_freeboard'
p195
aF2
aF15
aa(lp196
S'offset_section_height'
p197
aF0.10000000000000001
aF50
aa(lp198
S'offset_outer_diameter'
p199
aF1.1000000000000001
aF40
aa(lp200
S'offset_wall_thickness'
p201
aF0.001
aF0.5
aa(lp202
S'offset_ballast_heave_box_diameter'
p203
aF0
aF50
aa(lp204
S'offset_ballast_heave_box_height'
p205
aF0
aF20
aa(lp206
S'offset_ballast_heave_box_location'
p207
aF0
aF1
aa(lp208
S'pontoon_outer_diameter'
p209
aF1
aF10
aa(lp210
S'pontoon_wall_thickness'
p211
aF0.01
aF1
aa(lp212
S'main_pontoon_attach_lower'
p213
aF0
aF0.5
aa(lp214
S'main_pontoon_attach_upper'
p215
aF0.5
aF1
aa(lp216
S'mooring_line_length'
p217
aF200
aF3000
aa(lp218
S'anchor_radius'
p219
aF100
aF5000
aa(lp220
S'mooring_diameter'
p221
aF0.050000000000000003
aF2
aa(lp222
S'main_permanent_ballast_height'
p223
aF0.10000000000000001
aF50
aa(lp224
S'main_stiffener_web_height'
p225
aF0.01
aF1
aa(lp226
S'main_stiffener_web_thickness'
p227
aF0.001
aF0.5
aa(lp228
S'main_stiffener_flange_width'
p229
aF0.01
aF5
aa(lp230
S'main_stiffener_flange_thickness'
p231
aF0.001
aF0.5
aa(lp232
S'main_stiffener_spacing'
p233
aF0.10000000000000001
aF100
aa(lp234
S'offset_stiffener_web_height'
p235
aF0.01
aF1
aa(lp236
S'offset_stiffener_web_thickness'
p237
aF0.001
aF0.5
aa(lp238
S'offset_stiffener_flange_width'
p239
aF0.01
aF5
aa(lp240
S'offset_stiffener_flange_thickness'
p241
aF0.001
aF0.5
aa(lp242
S'offset_stiffener_spacing'
p243
aF0.10000000000000001
aF100
aa(lp244
S'offset_permanent_ballast_height'
p245
aF0.10000000000000001
aF50
aa(lp246
S'radius_to_offset_column'
p247
aF5
aF100
aa(lp248
(lp249
S'tow.height_constraint'
p250
aF-0.01
aF0.01
aNaa(lp251
S'main.draft'
p252
aF0
aF20
aNaa(lp253
S'off.draft'
p254
aF0
aF20
aNaa(lp255
S'main.draft_depth_ratio'
p256
aNaF0.90000000000000002
aNaa(lp257
S'off.draft_depth_ratio'
p258
aNaF0.90000000000000002
aNaa(lp259
S'main.wave_height_freeboard_ratio'
p260
aNaF1
aNaa(lp261
S'off.wave_height_freeboard_ratio'
p262
aNaF1
aNaa(lp263
S'off.fairlead_draft_ratio'
p264
aF0
aF20
aNaa(lp265
S'main_offset_spacing'
p266
aF1
aNaNaa(lp267
S'main.manufacturability'
p268
aF0
aNaNaa(lp269
S'main.weldability'
p270
aNaF0
aNaa(lp271
S'off.manufacturability'
p272
aF0
aNaNaa(lp273
S'off.weldability'
p274
aNaF0
aNaa(lp275
S'tower_transition_buffer'
p276
aF-1
aF1
aNaa(lp277
S'nacelle_transition_buffer'
p278
aF0
aNaNaa(lp279
S'offset_freeboard_heel_margin'
p280
aF0
aNaNaa(lp281
S'offset_draft_heel_margin'
p282
aF0
aF20
aNaa(lp283
S'axial_unity'
p284
aF0
aF1
aNaa(lp285
S'mooring_length_max'
p286
aNaF1
aNaa(lp287
S'main.flange_spacing_ratio'
p288
aNaF1
aNaa(lp289
S'main.stiffener_radius_ratio'
p290
aNaF0.5
aNaa(lp291
S'main.flange_compactness'
p292
aF1
aNaNaa(lp293
S'main.web_compactness'
p294
aF1
aNaNaa(lp295
S'main.axial_local_api'
p296
aNaF1
aNaa(lp297
S'main.axial_general_api'
p298
aNaF1
aNaa(lp299
S'main.external_local_api'
p300
aNaF1
aNaa(lp301
S'main.external_general_api'
p302
aNaF1
aNaa(lp303
S'off.flange_spacing_ratio'
p304
aNaF1
aNaa(lp305
S'off.stiffener_radius_ratio'
p306
aNaF0.5
aNaa(lp307
S'off.flange_compactness'
p308
aF1
aNaNaa(lp309
S'off.web_compactness'
p310
aF1
aNaNaa(lp311
S'off.axial_local_api'
p312
aNaF1
aNaa(lp313
S'off.axial_general_api'
p314
aNaF1
aNaa(lp315
S'off.external_local_api'
p316
aNaF1
aNaa(lp317
S'off.external_general_api'
p318
aNaF1
aNaa(lp319
S'pontoon_stress'
p320
aNaF1
aNaa(lp321
S'tower_stress'
p322
aNaF1
aNaa(lp323
S'tower_shell_buckling'
p324
aNaF1
aNaa(lp325
S'tower_global_buckling'
p326
aNaF1
aNaa(lp327
S'main_stress'
p328
aNaF1
aNaa(lp329
S'main_shell_buckling'
p330
aNaF1
aNaa(lp331
S'main_global_buckling'
p332
aNaF1
aNaa(lp333
S'offset_stress'
p334
aNaF1
aNaa(lp335
S'offset_shell_buckling'
p336
aNaF1
aNaa(lp337
S'offset_global_buckling'
p338
aNaF1
aNaa(lp339
S'variable_ballast_height_ratio'
p340
aF0
aF1
aNaa(lp341
S'variable_ballast_mass'
p342
aF0
aNaNaa(lp343
S'metacentric_height'
p344
aF0.10000000000000001
aNaNaa(lp345
S'offset_force_ratio'
p346
aNaF1
aNaa(lp347
S'heel_moment_ratio'
p348
aNaF1
aNaa(lp349
S'period_margin_low'
p350
aNaF1
aNaa(lp351
S'period_margin_high'
p352
aF1
aNaNaa(S'structural_mass'
p353
F9.9999999999999995e-07
tp354
S'NM'
p355
t.