((dp1
S'rna_moment'
p2
cnumpy.core.multiarray
_reconstruct
p3
(cnumpy
ndarray
p4
(I0
tS'b'
tRp5
(I1
(I3
tcnumpy
dtype
p6
(S'f8'
I0
I1
tRp7
(I3
S'<'
NNNI-1
I-1
I0
tbI00
S'\xec*\xda\xf3O\xe7{A\xf8\xedw\x9a\x0e\xff\rA\xf1\x80S\xcaVvG\xc1'
tbsS'offset_permanent_ballast_height'
p8
cnumpy.core.multiarray
scalar
p9
(g6
(S'f8'
I0
I1
tRp10
(I3
S'<'
NNNI-1
I-1
I0
tbS'|\xbe+\x0c\xce}\xd4?'
tRp11
sS'rna_force'
p12
g3
(g4
(I0
tS'b'
tRp13
(I1
(I3
tg7
I00
S'\xcd\xcc\xccLc\x1e@A\x00\x00\x00\x00\x00\x00\x00\x00\xc3\xf5(\xec!\xffY\xc1'
tbsS'gamma_fatigue'
p14
F1.7549999999999999
sS'loading'
p15
S'hydrostatic'
p16
sS'lower_ring_pontoons_int'
p17
g9
(g10
S'\x00\x00\x00\x00\x00\x00\x00\x00'
tRp18
sS'main_stiffener_web_height'
p19
g3
(g4
(I0
tS'b'
tRp20
(I1
(I5
tg6
(S'f8'
I0
I1
tRp21
(I3
S'<'
NNNI-1
I-1
I0
tbI00
S'\xc0b\xc3\xf5Z\x8b\xdd?bs\xdb\xbcK\xff\xef?\x08\x8f?+4E\xd1?]\xf9g\xd2\x07a\xe3?\x86\xcc\xf5F\x07s\x86?'
tbsS'zref'
p22
F119
sS'outfitting_cost_rate'
p23
F1.6500000000000001
sS'offset_buoyancy_tank_location'
p24
g9
(g10
S'\x9a\x8d*\xe8\xd3\xae\xa4?'
tRp25
sS'main_stiffener_flange_width'
p26
g3
(g4
(I0
tS'b'
tRp27
(I1
(I5
tg21
I00
S'\x1c\x883w\x97\xea\xb0?FIS\xc9\x15\x01\xd7?R\xd4\x0f\x8a\xe1g\xff?\xd1-s:o(\xf0?a\xa3\x87]M\xda\xde?'
tbsS'max_taper_ratio'
p28
F0.40000000000000002
sS'main_stiffener_spacing'
p29
g3
(g4
(I0
tS'b'
tRp30
(I1
(I5
tg21
I00
S'\x89\xc5\xbdm\x983%@\xefv7\x93H\x94"@\xe16c\xe0\xddP-@\x8d\x1etm\xe4\xc90@\xf8\xbf\xfcL\xac\xad:@'
tbsS'max_draft'
p31
F20
sS'T'
F9.8000000000000007
sS'bulkhead_mass_factor'
p32
F1
sS'wave_period_range_high'
p33
F20
sS'cross_attachment_pontoons_int'
p34
g9
(g10
S'\x00\x00\x00\x00\x00\x00\x00\x00'
tRp35
sS'outfitting_mass_fraction'
p36
F0.059999999999999998
sS'offset_buoyancy_tank_diameter'
p37
g9
(g10
S";\xe9q\xd8l'%@"
tRp38
sS'main_outer_diameter'
p39
g3
(g4
(I0
tS'b'
tRp40
(I1
(I6
tg21
I00
S'\xdb<W$\xbc49@\x9d\x8bD7G\x93(@\x7f\xfc\xe5\x85lI\x1d@\t\xb3\xa0pK\xcc$@{m\xb9\xa6\xd1\xcb!@\xa1!"|\xdf\xb2#@'
tbsS'rna_I'
p41
g3
(g4
(I0
tS'b'
tRp42
(I1
(I6
tg7
I00
S'\x00\x00\x00.b\xf5\xa3A\x00\x00\x00\x08)"\x99A\x00\x00\x00\xf0\x10Q\x94A\x00\x00\x00\x00\x00\x00\x00\x00\xa4p=\n\x98x7A\x00\x00\x00\x00\x00\x00\x00\x00'
tbsS'main.windLoads.mu'
p43
F1.8099999999999999e-05
sS'fairlead_support_outer_diameter'
p44
g9
(g10
S'\xea\x02\x13?\xf8\xff#@'
tRp45
sS'offset_bulkhead_thickness'
p46
g3
(g4
(I0
tS'b'
tRp47
(I1
(I6
tg7
I00
S'\x9a\x99\x99\x99\x99\x99\xa9?\x9a\x99\x99\x99\x99\x99\xa9?\x00\x00\x00\x00\x00\x00\x00\x00\x00\x00\x00\x00\x00\x00\x00\x00\x00\x00\x00\x00\x00\x00\x00\x00\x9a\x99\x99\x99\x99\x99\xa9?'
tbsS'shell_mass_factor'
p48
F1
sS'main_pontoon_attach_upper'
p49
g9
(g10
S'\x15\x87V\x1b\xad\xb3\xed?'
tRp50
sS'rna_mass'
p51
F627696.90530069917
sS'tower_buckling_length'
p52
F30
sS'Hs'
p53
F10.800000000000001
sS'main_freeboard'
p54
g9
(g10
S'\xfc\x05jMx\x00>@'
tRp55
sS'Rhub'
p56
F2.2999999999999998
sS'material_density'
p57
F7850
sS'tower_outfitting_factor'
p58
F1.0700000000000001
sS'tower_outer_diameter'
p59
g3
(g4
(I0
tS'b'
tRp60
(I1
(I6
tg7
I00
S'\x00\x00\x00\x00\x00\x00"@\x00\x00\x00\x00\x00\x00"@\x9a\x99\x99\x99\x99\x99 @\xa4p=\n\xd7\xa3\x1b@\x00\x00\x00\x00\x00\x00\x16@\x00\x00\x00\x00\x00\x00\x16@'
tbsS'anchor_type'
p61
S'suctionpile'
p62
sS'G'
F79300000000
sS'fairlead_location'
p63
g9
(g10
S'48?\xab\xf0\x8e\xcb?'
tRp64
sS'max_offset'
p65
F100
sS'max_survival_heel'
p66
F15
sS'main_stiffener_flange_thickness'
p67
g3
(g4
(I0
tS'b'
tRp68
(I1
(I5
tg21
I00
S'7\x8f\xfa\xeb\xfe\xdc\xb1?\xb7\x10/u\xe2\x15\xd7?\x84b\xc3s\x1d\xee\xc1?\xc7uo\x19h\xdd\xdf?(\xf2\xc5\xd1X\x99\xc8?'
tbsS'permanent_ballast_density'
p69
F4492
sS'z0'
p70
F0
sS'Uc'
p71
F0
sS'material_cost_rate'
p72
F1.1000000000000001
sS'pontoon_wall_thickness'
p73
g9
(g10
S'\x9e\xb6Xy\x14\x16\x95?'
tRp74
sS'number_of_offset_columns'
p75
I3
sS'radius_to_offset_column'
p76
g9
(g10
S'\xeb(a\x04\xd0\xdfJ@'
tRp77
sS'tower_section_height'
p78
g3
(g4
(I0
tS'b'
tRp79
(I1
(I5
tg7
I00
S'\x00\x00\x00\x00\x00\x00$@\x00\x10\xaeG\xe1z\x84?\xc3\xf5(\\\x8fBJ@\xcc\xcc\xcc\xcc\xcc\x8cJ@\x00)\\\x8f\xc2\xf5\n@'
tbsS'main_buoyancy_tank_location'
p80
g9
(g10
S'2\x9f^h\xca\x96\xf1>'
tRp81
sS'cm'
p82
F2
sS'main.waveLoads.mu'
p83
F0.00088999999999999995
sS'mooring_diameter'
p84
g9
(g10
S'\x85\xa6\xb9\xc9\xca\xc2\xd1?'
tRp85
sS'gamma_m'
p86
F1.1000000000000001
sS'gamma_n'
p87
F1
sS'offset_section_height'
p88
g3
(g4
(I0
tS'b'
tRp89
(I1
(I5
tg21
I00
S'\xa7f\xc3\x91P\xb7\xee?2\xafd\xc6\xae\xfe\xfb?\x80^\xe4\xce\xfd\xfe2@S\xc1403\x12\xd8?\x82v\xaf\xd0\xdf<\x17@'
tbsS'main_bulkhead_thickness'
p90
g3
(g4
(I0
tS'b'
tRp91
(I1
(I6
tg7
I00
S'\x9a\x99\x99\x99\x99\x99\xa9?\x9a\x99\x99\x99\x99\x99\xa9?\x00\x00\x00\x00\x00\x00\x00\x00\x00\x00\x00\x00\x00\x00\x00\x00\x00\x00\x00\x00\x00\x00\x00\x00\x9a\x99\x99\x99\x99\x99\xa9?'
tbsS'yaw'
p92
F0
sS'gamma_f'
p93
F1.3500000000000001
sS'offset_freeboard'
p94
g9
(g10
S'\x82\xc8\xd0\xbc\xfa\xdf+@'
tRp95
sS'gamma_b'
p96
F1.1000000000000001
sS'z_offset'
p97
F0
sS'ballast_cost_rate'
p98
F0.10000000000000001
sS'number_of_mooring_connections'
p99
I3
sS'offset_stiffener_web_thickness'
p100
g3
(g4
(I0
tS'b'
tRp101
(I1
(I5
tg21
I00
S"R\xfc\xa05I\x8f\xdf?c0~Y\x0b\x15\xc4?\xb4!\xbcm\xd2ix?C\x97\x0bJ'/l?H\xa6\xd1\xb4\xb0\xdc\x97?"
tbsS'mooring_line_length'
p102
g9
(g10
S'S\xee\xa27E\x97\xa6@'
tRp103
sS'outer_cross_pontoons_int'
p104
g9
(g10
S'\x00\x00\x00\x00\x00\x00\x00\x00'
tRp105
sS'water_depth'
p106
F320
sS'main_buoyancy_tank_diameter'
p107
g9
(g10
S'\xd6._\xf0\xf4\x1f\x1e@'
tRp108
sS'column_mass_factor'
p109
F1.05
sS'operational_heel'
p110
F6
sS'offset_outer_diameter'
p111
g3
(g4
(I0
tS'b'
tRp112
(I1
(I6
tg21
I00
S'\x08J\x1f\x11\xda\xcf\'@\xfayT"t\x81:@\x1a#\t\x1d\x1es%@\x1dC\xf0!V\x84"@/\x0fe>F\x91\x1a@\xd1&\xbd^\xc6\xe5\x18@'
tbsS'yield_stress'
p113
F345000000
sS'main_wall_thickness'
p114
g3
(g4
(I0
tS'b'
tRp115
(I1
(I5
tg6
(S'f8'
I0
I1
tRp116
(I3
S'<'
NNNI-1
I-1
I0
tbI00
S'\x1e>\xe3+\xb0\xda\xac?\x9c\x1b\x05=f\xc2\xae?\x86Yl\xfd\xb3I\xa9?\xd6\x81\x0b\xbb:\x9b\xa5?@U\x88\xef\x92^\xaa?'
tbsS'connection_ratio_max'
p117
F0.25
sS'ring_mass_factor'
p118
F1
sS'upper_ring_pontoons_int'
p119
g9
(g10
S'\x00\x00\x00\x00\x00\x00\x00\x00'
tRp120
sS'main_stiffener_web_thickness'
p121
g3
(g4
(I0
tS'b'
tRp122
(I1
(I5
tg21
I00
S'\xe8\xbf\xea\xf8s\xeb\xb6?\xaf\xe5]\x03\x0e\xf2\xdf?!\xabN\xd0.\x17\xc6?T\xd3K\xd6Q}\xc1?\x9d\xacM%(T\xac?'
tbsS'lower_attachment_pontoons_int'
p123
g9
(g10
S'\x00\x00\x00\x00\x00\x00\xf0?'
tRp124
sS'water_density'
p125
F1025
sS'main_buoyancy_tank_height'
p126
g9
(g10
S'\xc9\x0f\n\xf8\x97\xea\xfd?'
tRp127
sS'cd_usr'
p128
Finf
sS'min_diameter_thickness_ratio'
p129
F120
sS'offset_wall_thickness'
p130
g3
(g4
(I0
tS'b'
tRp131
(I1
(I5
tg116
I00
S'K\xf5WYG\x06\xc3?\xf0\xe6E\x8co\xb2\xc1?\xb0oF\xc7\x80\x97\xa9?\xae\xe0\xfa{t\xb8\xa0?\xda\xc0\xd6\t\x85\x8e\x98?'
tbsS'offset_buoyancy_tank_height'
p132
g9
(g10
S'\x85Q[\xd08$\x0b@'
tRp133
sS'main_section_height'
p134
g3
(g4
(I0
tS'b'
tRp135
(I1
(I5
tg21
I00
S"n\x02\x04\x96\xcd\xa1'@Q\x0e\xfdyb\xef\xf8?8\x82\xb8\xe4\x92Y\x1b@m\xec\xcdi\xc6m'@\xf7X\x98b\xa44'@"
tbsS'Uref'
p136
F11
sS'anchor_radius'
p137
g9
(g10
S'3\xe4-\x18\xc4\xd9\xa5@'
tRp138
sS'rna_cg'
p139
g3
(g4
(I0
tS'b'
tRp140
(I1
(I3
tg7
I00
S'\x1e\x01\x16\xd8\xe7Z\xe3\xbf\x00\x00\x00\x00\x00\x00\x00\x00\x0e\xb4L\xd0p$\x04@'
tbsS'pontoon_outer_diameter'
p141
g9
(g10
S'[\xba\x11Kz\xbb!@'
tRp142
sS'fairlead_support_wall_thickness'
p143
g9
(g10
S'\xf3\xbe\xe6)\xe3+\x93?'
tRp144
sS'fairlead_offset_from_shell'
p145
F6.0004865405187147
sS'tower_wall_thickness'
p146
g3
(g4
(I0
tS'b'
tRp147
(I1
(I5
tg116
I00
S'\x90\xebQ\xb8\x1e\x85\xd3?@\\\x8f\xc2\xf5(\xcc?\x10\x00\x00\x00\x00\x00\xc0?\xc0\xf5(\\\x8f\xc2\xb5?\x80\x1e\x85\xebQ\xb8\xae?'
tbsS'mooring_cost_rate'
p148
F1.1000000000000001
sS'painting_cost_rate'
p149
F14.4
sS'nu'
p150
F0.26000000000000001
sS'E'
F200000000000
sS'wave_period_range_low'
p151
F2
sS'main_pontoon_attach_lower'
p152
g9
(g10
S'\x13\xec\xa5\x0f\xf6G\xba?'
tRp153
sS'offset_stiffener_flange_thickness'
p154
g3
(g4
(I0
tS'b'
tRp155
(I1
(I5
tg21
I00
S'[]\x08nBH\xd3?vGN\x80\xe4\xbb\xdf?\xc2\x06\x0c\x85\xb8\x18\xcc?+%\xd8\xe4\x10C\xc4?)/\xa9\x9e\xe0\x07\xc4?'
tbsS'main.windLoads.rho'
p156
F1.198
sS'beta'
p157
F0
sS'shearExp'
p158
F0.11
sS'mooring_lines_per_connection'
p159
g9
(g10
S'\x00\x00\x00\x00\x00\x00\x00@'
tRp160
sS'main_permanent_ballast_height'
p161
g9
(g10
S'\xc5\x97@\xc0_\xd0\x11@'
tRp162
sS'offset_stiffener_flange_width'
p163
g3
(g4
(I0
tS'b'
tRp164
(I1
(I5
tg21
I00
S"\xed\xc13\x13'\x19\xe1?&\xb1-\xe1\xe7\x97\xa8?\xbf\\\xb7\xb5X\x05\xd9?\xa2\xd1\x0cQT\x83\xc5?/C\xf1 \xc6A\xed?"
tbsS'offset_stiffener_spacing'
p165
g3
(g4
(I0
tS'b'
tRp166
(I1
(I5
tg21
I00
S'\r6F\xd6\xf6\xea\n@\xdb0\x9e(\xa7S>@\xae*\r\x19\x01\tK@\x94sw\x7f\xe2\x18*@\t\x1c\x00\xbaX\x00/@'
tbsS'mooring_type'
p167
S'chain'
p168
sS'hub_height'
p169
F149
sS'upper_attachment_pontoons_int'
p170
g9
(g10
S'\x00\x00\x00\x00\x00\x00\x00\x00'
tRp171
sS'labor_cost_rate'
p172
F1
sS'offset_stiffener_web_height'
p173
g3
(g4
(I0
tS'b'
tRp174
(I1
(I5
tg21
I00
S'\x86\x16\x91\x14\xcb\x10\xc7?5\xcd6\x08\xe5B\xda?n\x19 \x9d\xae\x08\xc1?6\x1e\xca,\xe8\xfd\xb1?\xd6lx\xf0dT\xbc?'
tbs(lp175
(lp176
S'fairlead_location'
p177
aF0
aF1
aa(lp178
S'fairlead_support_wall_thickness'
p179
aF0.001
aF1
aa(lp180
S'fairlead_support_outer_diameter'
p181
aF0.10000000000000001
aF10
aa(lp182
S'main_freeboard'
p183
aF0
aF50
aa(lp184
S'main_section_height'
p185
aF0.10000000000000001
aF50
aa(lp186
S'main_outer_diameter'
p187
aF2.1000000000000001
aF40
aa(lp188
S'main_wall_thickness'
p189
aF0.001
aF0.5
aa(lp190
S'main_buoyancy_tank_diameter'
p191
aF0
aF50
aa(lp192
S'main_buoyancy_tank_height'
p193
aF0
aF20
aa(lp194
S'main_buoyancy_tank_location'
p195
aF0
aF1
aa(lp196
S'offset_freeboard'
p197
aF2
aF15
aa(lp198
S'offset_section_height'
p199
aF0.10000000000000001
aF50
aa(lp200
S'offset_outer_diameter'
p201
aF1.1000000000000001
aF40
aa(lp202
S'offset_wall_thickness'
p203
aF0.001
aF0.5
aa(lp204
S'offset_buoyancy_tank_diameter'
p205
aF0
aF50
aa(lp206
S'offset_buoyancy_tank_height'
p207
aF0
aF20
aa(lp208
S'offset_buoyancy_tank_location'
p209
aF0
aF1
aa(lp210
S'pontoon_outer_diameter'
p211
aF1
aF10
aa(lp212
S'pontoon_wall_thickness'
p213
aF0.01
aF1
aa(lp214
S'main_pontoon_attach_lower'
p215
aF0
aF0.5
aa(lp216
S'main_pontoon_attach_upper'
p217
aF0.5
aF1
aa(lp218
S'mooring_line_length'
p219
aF200
aF3000
aa(lp220
S'anchor_radius'
p221
aF100
aF5000
aa(lp222
S'mooring_diameter'
p223
aF0.050000000000000003
aF2
aa(lp224
S'main_permanent_ballast_height'
p225
aF0.10000000000000001
aF50
aa(lp226
S'main_stiffener_web_height'
p227
aF0.01
aF1
aa(lp228
S'main_stiffener_web_thickness'
p229
aF0.001
aF0.5
aa(lp230
S'main_stiffener_flange_width'
p231
aF0.01
aF5
aa(lp232
S'main_stiffener_flange_thickness'
p233
aF0.001
aF0.5
aa(lp234
S'main_stiffener_spacing'
p235
aF0.10000000000000001
aF100
aa(lp236
S'offset_stiffener_web_height'
p237
aF0.01
aF1
aa(lp238
S'offset_stiffener_web_thickness'
p239
aF0.001
aF0.5
aa(lp240
S'offset_stiffener_flange_width'
p241
aF0.01
aF5
aa(lp242
S'offset_stiffener_flange_thickness'
p243
aF0.001
aF0.5
aa(lp244
S'offset_stiffener_spacing'
p245
aF0.10000000000000001
aF100
aa(lp246
S'offset_permanent_ballast_height'
p247
aF0.10000000000000001
aF50
aa(lp248
S'radius_to_offset_column'
p249
aF5
aF100
aa(lp250
(lp251
S'tow.height_constraint'
p252
aF-0.01
aF0.01
aNaa(lp253
S'main.draft'
p254
aF0
aF20
aNaa(lp255
S'off.draft'
p256
aF0
aF20
aNaa(lp257
S'main.draft_margin'
p258
aF0
aF1
aNaa(lp259
S'off.draft_margin'
p260
aF0
aF1
aNaa(lp261
S'main.wave_height_freeboard_ratio'
p262
aNaF1
aNaa(lp263
S'off.wave_height_freeboard_ratio'
p264
aNaF1
aNaa(lp265
S'main_offset_spacing'
p266
aF1
aNaNaa(lp267
S'main.manufacturability'
p268
aF0
aNaNaa(lp269
S'main.weldability'
p270
aNaF0
aNaa(lp271
S'off.manufacturability'
p272
aF0
aNaNaa(lp273
S'off.weldability'
p274
aNaF0
aNaa(lp275
S'tower_transition_buffer'
p276
aF-1
aF1
aNaa(lp277
S'nacelle_transition_buffer'
p278
aF0
aNaNaa(lp279
S'offset_freeboard_heel_margin'
p280
aF0
aNaNaa(lp281
S'offset_draft_heel_margin'
p282
aF0
aF20
aNaa(lp283
S'axial_unity'
p284
aF0
aF1
aNaa(lp285
S'mooring_length_max'
p286
aNaF1
aNaa(lp287
S'main.flange_spacing_ratio'
p288
aNaF1
aNaa(lp289
S'main.stiffener_radius_ratio'
p290
aNaF0.5
aNaa(lp291
S'main.flange_compactness'
p292
aF1
aNaNaa(lp293
S'main.web_compactness'
p294
aF1
aNaNaa(lp295
S'main.axial_local_api'
p296
aNaF1
aNaa(lp297
S'main.axial_general_api'
p298
aNaF1
aNaa(lp299
S'main.external_local_api'
p300
aNaF1
aNaa(lp301
S'main.external_general_api'
p302
aNaF1
aNaa(lp303
S'off.flange_spacing_ratio'
p304
aNaF1
aNaa(lp305
S'off.stiffener_radius_ratio'
p306
aNaF0.5
aNaa(lp307
S'off.flange_compactness'
p308
aF1
aNaNaa(lp309
S'off.web_compactness'
p310
aF1
aNaNaa(lp311
S'off.axial_local_api'
p312
aNaF1
aNaa(lp313
S'off.axial_general_api'
p314
aNaF1
aNaa(lp315
S'off.external_local_api'
p316
aNaF1
aNaa(lp317
S'off.external_general_api'
p318
aNaF1
aNaa(lp319
S'pontoon_stress'
p320
aNaF1
aNaa(lp321
S'tower_stress'
p322
aNaF1
aNaa(lp323
S'tower_shell_buckling'
p324
aNaF1
aNaa(lp325
S'tower_global_buckling'
p326
aNaF1
aNaa(lp327
S'main_stress'
p328
aNaF1
aNaa(lp329
S'main_shell_buckling'
p330
aNaF1
aNaa(lp331
S'main_global_buckling'
p332
aNaF1
aNaa(lp333
S'offset_stress'
p334
aNaF1
aNaa(lp335
S'offset_shell_buckling'
p336
aNaF1
aNaa(lp337
S'offset_global_buckling'
p338
aNaF1
aNaa(lp339
S'variable_ballast_height_ratio'
p340
aF0
aF1
aNaa(lp341
S'variable_ballast_mass'
p342
aF0
aNaNaa(lp343
S'metacentric_height'
p344
aF0.10000000000000001
aNaNaa(lp345
S'offset_force_ratio'
p346
aNaF1
aNaa(lp347
S'heel_moment_ratio'
p348
aNaF1
aNaa(lp349
S'period_margin_low'
p350
aNaF1
aNaa(lp351
S'period_margin_high'
p352
aF1
aNaNaa(S'structural_mass'
p353
F9.9999999999999995e-07
tp354
S'NM'
p355
t.