((dp1
S'rna_moment'
p2
cnumpy.core.multiarray
_reconstruct
p3
(cnumpy
ndarray
p4
(I0
tS'b'
tRp5
(I1
(I3
tcnumpy
dtype
p6
(S'f8'
I0
I1
tRp7
(I3
S'<'
NNNI-1
I-1
I0
tbI00
S'\xec*\xda\xf3O\xe7{A\xf8\xedw\x9a\x0e\xff\rA\xf1\x80S\xcaVvG\xc1'
tbsS'offset_permanent_ballast_height'
p8
cnumpy.core.multiarray
scalar
p9
(g6
(S'f8'
I0
I1
tRp10
(I3
S'<'
NNNI-1
I-1
I0
tbS'\x19\x81db\xe3\x80\xd4?'
tRp11
sS'rna_force'
p12
g3
(g4
(I0
tS'b'
tRp13
(I1
(I3
tg7
I00
S'\xcd\xcc\xccLc\x1e@A\x00\x00\x00\x00\x00\x00\x00\x00\xc3\xf5(\xec!\xffY\xc1'
tbsS'gamma_fatigue'
p14
F1.7549999999999999
sS'loading'
p15
S'hydrostatic'
p16
sS'lower_ring_pontoons_int'
p17
g9
(g10
S'\x00\x00\x00\x00\x00\x00\x00\x00'
tRp18
sS'tapered_col_cost_rate'
p19
F4720
sS'main_stiffener_web_height'
p20
g3
(g4
(I0
tS'b'
tRp21
(I1
(I5
tg6
(S'f8'
I0
I1
tRp22
(I3
S'<'
NNNI-1
I-1
I0
tbI00
S'\x85\n\xd3p\xa2\x9b\xdd?\\\x8e\xd3\xa6M\xff\xef?\x14\xfa]\xc3\x13I\xd1?\xce\x18"c\xa2U\xe3?\xd9n9\x1eag\x86?'
tbsS'zref'
p23
F119
sS'outfitting_cost_rate'
p24
F6980
sS'offset_buoyancy_tank_location'
p25
g9
(g10
S';,w\xdfv\xb0\xa4?'
tRp26
sS'main_stiffener_flange_width'
p27
g3
(g4
(I0
tS'b'
tRp28
(I1
(I5
tg22
I00
S'\x1a\xac\xda\x95\xf7\xeb\xb0?\xb5\xb4\xfe\xe4\x1b\xfc\xd6?\xf4*\xbd\x89w[\xff?\xc5r\xf1r\x9a\x19\xf0?0\xdd\xc3\xba\x88\xd2\xde?'
tbsS'max_taper_ratio'
p29
F0.40000000000000002
sS'tower_outfitting_factor'
p30
F1.0700000000000001
sS'max_draft'
p31
F20
sS'T'
F9.8000000000000007
sS'bulkhead_mass_factor'
p32
F1
sS'wave_period_range_high'
p33
F20
sS'cross_attachment_pontoons_int'
p34
g9
(g10
S'\x00\x00\x00\x00\x00\x00\x00\x00'
tRp35
sS'outfitting_mass_fraction'
p36
F0.059999999999999998
sS'offset_buoyancy_tank_diameter'
p37
g9
(g10
S'\xaeu\xcc\x96n#%@'
tRp38
sS'main_outer_diameter'
p39
g3
(g4
(I0
tS'b'
tRp40
(I1
(I6
tg22
I00
S'\xcf\xb6\xfd\xe8A>9@\x14\xa1\xc8j \x8d(@{\xcf\x0f\x81\xaaU\x1d@\x81h7w\xf7\xbd$@\xe8\x8a\xde\xa5\xaf\xca!@1\x1a\xff\xe2D\xb2#@'
tbsS'rna_I'
p41
g3
(g4
(I0
tS'b'
tRp42
(I1
(I6
tg7
I00
S'\x00\x00\x00.b\xf5\xa3A\x00\x00\x00\x08)"\x99A\x00\x00\x00\xf0\x10Q\x94A\x00\x00\x00\x00\x00\x00\x00\x00\xa4p=\n\x98x7A\x00\x00\x00\x00\x00\x00\x00\x00'
tbsS'main.windLoads.mu'
p43
F1.8099999999999999e-05
sS'fairlead_support_outer_diameter'
p44
g9
(g10
S'7\x179\x0e\xf7\xff#@'
tRp45
sS'offset_bulkhead_thickness'
p46
g3
(g4
(I0
tS'b'
tRp47
(I1
(I6
tg7
I00
S'\x9a\x99\x99\x99\x99\x99\xa9?\x9a\x99\x99\x99\x99\x99\xa9?\x00\x00\x00\x00\x00\x00\x00\x00\x00\x00\x00\x00\x00\x00\x00\x00\x00\x00\x00\x00\x00\x00\x00\x00\x9a\x99\x99\x99\x99\x99\xa9?'
tbsS'mooring_max_offset'
p48
F100
sS'shell_mass_factor'
p49
F1
sS'main_pontoon_attach_upper'
p50
g9
(g10
S'h\xdc\xefY0\xc2\xed?'
tRp51
sS'rna_mass'
p52
F672300.53030069917
sS'tower_buckling_length'
p53
F30
sS'Hs'
p54
F10.800000000000001
sS'main_freeboard'
p55
g9
(g10
S'q\xa9\xbc6\x0b\x00>@'
tRp56
sS'Rhub'
p57
F2.2999999999999998
sS'material_density'
p58
F7850
sS'main_stiffener_spacing'
p59
g3
(g4
(I0
tS'b'
tRp60
(I1
(I5
tg22
I00
S'\x17\xdb\xb4W\xe8L%@\x91\xe8ys\x9a\x81"@?\x15I^\x0cC-@u+\x83\xd2\x92\xd10@,\x15\x96\xa6\x08\x97:@'
tbsS'tower_outer_diameter'
p61
g3
(g4
(I0
tS'b'
tRp62
(I1
(I6
tg7
I00
S'\x00\x00\x00\x00\x00\x00"@\x00\x00\x00\x00\x00\x00"@\x9a\x99\x99\x99\x99\x99 @\xa4p=\n\xd7\xa3\x1b@\x00\x00\x00\x00\x00\x00\x16@\x00\x00\x00\x00\x00\x00\x16@'
tbsS'anchor_type'
p63
S'suctionpile'
p64
sS'G'
F79300000000
sS'fairlead_location'
p65
g9
(g10
S'\x14\x9a\x17!:\xa6\xcb?'
tRp66
sS'max_offset'
p67
F100
sS'max_survival_heel'
p68
F15
sS'main_stiffener_flange_thickness'
p69
g3
(g4
(I0
tS'b'
tRp70
(I1
(I5
tg22
I00
S"'$f?T\xd8\xb1?qH\x94-c\r\xd7?\xb3\x89\xc3\xec\xc9\xeb\xc1?a\xfb\x1cx6\xde\xdf?\xb6\xc4`$t\xb0\xc8?"
tbsS'permanent_ballast_density'
p71
F4492
sS'z0'
p72
F0
sS'Uc'
p73
F0
sS'offset_stiffener_web_thickness'
p74
g3
(g4
(I0
tS'b'
tRp75
(I1
(I5
tg22
I00
S'\x82Pv&\x90\x92\xdf?\xab "[\xd3\xf3\xc3?\x0b\x81\x11z\x8cgx?\x16%\xbcf\xce"l?\xd6Na\xdf\xc7\xf0\x97?'
tbsS'pontoon_wall_thickness'
p76
g9
(g10
S'\xd3\xc2\xc27Ii\x94?'
tRp77
sS'number_of_offset_columns'
p78
I3
sS'radius_to_offset_column'
p79
g9
(g10
S'{\x11g\xe6\x97\xe9J@'
tRp80
sS'tower_section_height'
p81
g3
(g4
(I0
tS'b'
tRp82
(I1
(I5
tg7
I00
S'\x00\x00\x00\x00\x00\x00$@\x00\x10\xaeG\xe1z\x84?\xc3\xf5(\\\x8fBJ@\xcc\xcc\xcc\xcc\xcc\x8cJ@\x00)\\\x8f\xc2\xf5\n@'
tbsS'main_buoyancy_tank_location'
p83
g9
(g10
S'\x02\xbe*\x86\n\x9a\xf1>'
tRp84
sS'cm'
p85
F2
sS'main.waveLoads.mu'
p86
F0.00088999999999999995
sS'mooring_diameter'
p87
g9
(g10
S'\xfb\xfeq6\x88\xc2\xd1?'
tRp88
sS'gamma_m'
p89
F1.1000000000000001
sS'gamma_n'
p90
F1
sS'offset_section_height'
p91
g3
(g4
(I0
tS'b'
tRp92
(I1
(I5
tg22
I00
S'\xa1\x17Ew\xad\xbd\xee?\xf4`\xdbb\x1f\x0e\xfc?P\x85\xf5\x03\x11\x013@\x08\xcf?m\r\x04\xd8?X6q\xcd\xca=\x17@'
tbsS'main_bulkhead_thickness'
p93
g3
(g4
(I0
tS'b'
tRp94
(I1
(I6
tg7
I00
S'\x9a\x99\x99\x99\x99\x99\xa9?\x9a\x99\x99\x99\x99\x99\xa9?\x00\x00\x00\x00\x00\x00\x00\x00\x00\x00\x00\x00\x00\x00\x00\x00\x00\x00\x00\x00\x00\x00\x00\x00\x9a\x99\x99\x99\x99\x99\xa9?'
tbsS'yaw'
p95
F0
sS'gamma_f'
p96
F1.3500000000000001
sS'offset_freeboard'
p97
g9
(g10
S'Z\x00X\xb0\xbb\xe0+@'
tRp98
sS'gamma_b'
p99
F1.1000000000000001
sS'z_offset'
p100
F0
sS'ballast_cost_rate'
p101
F100
sS'number_of_mooring_connections'
p102
I3
sS'mooring_line_length'
p103
g9
(g10
S'\xba+r\x9fX\x97\xa6@'
tRp104
sS'outer_cross_pontoons_int'
p105
g9
(g10
S'\x00\x00\x00\x00\x00\x00\x00\x00'
tRp106
sS'water_depth'
p107
F320
sS'main_buoyancy_tank_diameter'
p108
g9
(g10
S'\x95\xdf\r\xaa\x0c\x0e\x1e@'
tRp109
sS'column_mass_factor'
p110
F1.05
sS'operational_heel'
p111
F6
sS'offset_outer_diameter'
p112
g3
(g4
(I0
tS'b'
tRp113
(I1
(I6
tg22
I00
S'\x97a\x91\x08\x81\xcf\'@\x1c\xef\x0f\xb1\x85\x7f:@\xb2<\xe0\xc5\xf8u%@\x8aP\x129\xb7\x86"@\x1aPPFbx\x1a@\\\xf5\xd5\x1f\x17\xf9\x18@'
tbsS'yield_stress'
p114
F345000000
sS'main_wall_thickness'
p115
g3
(g4
(I0
tS'b'
tRp116
(I1
(I6
tg22
I00
S'\xf7\xf5\xd1h\xf7s\xaa?E\x84-\x0f\xb5]\xaf?!\xf6\xf5U\xf2?\xae?\x08\xcf2\x91}R\xa4?X\xe4\xb1nd\xe1\xa6?\x81|+ K\x04\xae?'
tbsS'connection_ratio_max'
p117
F0.25
sS'ring_mass_factor'
p118
F1
sS'upper_ring_pontoons_int'
p119
g9
(g10
S'\x00\x00\x00\x00\x00\x00\x00\x00'
tRp120
sS'main_stiffener_web_thickness'
p121
g3
(g4
(I0
tS'b'
tRp122
(I1
(I5
tg22
I00
S'!f\x927\xe7\xf2\xb6?n/\xfc\xd6\xf9\xf1\xdf?\x92\xb7nI\xd0\x11\xc6?\xc3\x03\xc5\xc6\x8bl\xc1?\xc12\xb9\xca\xedE\xac?'
tbsS'lower_attachment_pontoons_int'
p123
g9
(g10
S'\x00\x00\x00\x00\x00\x00\xf0?'
tRp124
sS'water_density'
p125
F1025
sS'main_buoyancy_tank_height'
p126
g9
(g10
S'\xb2\xa0\xd2\xf8f\xed\xfd?'
tRp127
sS'cd_usr'
p128
Finf
sS'min_diameter_thickness_ratio'
p129
F120
sS'offset_wall_thickness'
p130
g3
(g4
(I0
tS'b'
tRp131
(I1
(I6
tg22
I00
S'Y\x95\x8fW\x9db\xb9?\x19\x14\x8d\xc8\x9f\\\xc9?\x11}\x9b\xe8#\x11\xb4?\x0c\x9d\x0b\xfc\xd7\x0b\x96?\xf9,\xff\xd2Tf\xa6?\x98\xed\x14\xeb\xa9\x16q?'
tbsS'offset_buoyancy_tank_height'
p132
g9
(g10
S'\x8c\xe1\xc0\xc2\xd1\x1f\x0b@'
tRp133
sS'main_section_height'
p134
g3
(g4
(I0
tS'b'
tRp135
(I1
(I5
tg22
I00
S"0D\xd1\x19l\x92'@?\xf6\xcb\xae\x92\xc3\xf8?D\x83\x92\x898L\x1b@t\t\x0csHo'@n\x00\xc1I\xbd;'@"
tbsS'Uref'
p136
F11
sS'anchor_radius'
p137
g9
(g10
S'\x93\x17\x86D,\xd9\xa5@'
tRp138
sS'rna_cg'
p139
g3
(g4
(I0
tS'b'
tRp140
(I1
(I3
tg7
I00
S'\x1e\x01\x16\xd8\xe7Z\xe3\xbf\x00\x00\x00\x00\x00\x00\x00\x00\x0e\xb4L\xd0p$\x04@'
tbsS'pontoon_outer_diameter'
p141
g9
(g10
S'D\xba0\xb7\xc6\xbc!@'
tRp142
sS'fairlead_support_wall_thickness'
p143
g9
(g10
S'F\xadmJ\xb7/\x93?'
tRp144
sS'fairlead_offset_from_shell'
p145
F6.0004865405187147
sS'tower_wall_thickness'
p146
g3
(g4
(I0
tS'b'
tRp147
(I1
(I6
tg7
I00
S'\xe0\xa3p=\n\xd7\xd3?@33333\xd3?\x00R\xb8\x1e\x85\xeb\xc1?@\\\x8f\xc2\xf5(\xbc?\x80\x1e\x85\xebQ\xb8\xae?\x80\x1e\x85\xebQ\xb8\xae?'
tbsS'mooring_cost_rate'
p148
F1.1000000000000001
sS'nu'
p149
F0.26000000000000001
sS'E'
F200000000000
sS'wave_period_range_low'
p150
F2
sS'main_pontoon_attach_lower'
p151
g9
(g10
S'"G#\xedh<\xba?'
tRp152
sS'offset_stiffener_flange_thickness'
p153
g3
(g4
(I0
tS'b'
tRp154
(I1
(I5
tg22
I00
S'\xb3\x95\x11\x8e\x8aO\xd3?G2\xc3\xcer\xbd\xdf?78s\xbf\x08\x06\xcc?\x88\r\xbe\x84\xc25\xc4?\xf2\xbb\x0e&\xbf\r\xc4?'
tbsS'main.windLoads.rho'
p155
F1.198
sS'beta'
p156
F0
sS'shearExp'
p157
F0.11
sS'mooring_lines_per_connection'
p158
g9
(g10
S'\x00\x00\x00\x00\x00\x00\x00@'
tRp159
sS'main_permanent_ballast_height'
p160
g9
(g10
S'\x95\x86\xa1\xaf/\xde\x11@'
tRp161
sS'offset_stiffener_flange_width'
p162
g3
(g4
(I0
tS'b'
tRp163
(I1
(I5
tg22
I00
S'tx\xa8\xf4\xe9\x1a\xe1?I\xc9\xa8r\x1c\x95\xa8?{\xbe}=\x93\x0b\xd9?\xe7\xf3\xaa\x97\xb0\x8a\xc5?/\xe3\x00\xec\xe0J\xed?'
tbsS'offset_stiffener_spacing'
p164
g3
(g4
(I0
tS'b'
tRp165
(I1
(I5
tg22
I00
S'\x01Vp\x9d*\xed\n@\xbf\xf1\xfb\x1a\xc0S>@\x08j\x85\xa2\x04\xfbJ@\xfe`\xb4\x868$*@"\xff\xc1x\t\x00/@'
tbsS'mooring_type'
p166
S'chain'
p167
sS'hub_height'
p168
F149
sS'upper_attachment_pontoons_int'
p169
g9
(g10
S'\x00\x00\x00\x00\x00\x00\x00\x00'
tRp170
sS'offset_stiffener_web_height'
p171
g3
(g4
(I0
tS'b'
tRp172
(I1
(I5
tg22
I00
S'\x99\xff\xaf*c\x11\xc7?\xf6\xc0\xa0`\tL\xda?!\x93\xbd\x7f\x81\x0b\xc1?\xfaJ\xa9\x8c\x91\xf9\xb1?\xff\xd7\xfd$\x9dn\xbc?'
tbsS'pontoon_cost_rate'
p173
F6.25
s(lp174
(lp175
S'fairlead_location'
p176
aF0
aF1
aa(lp177
S'fairlead_support_wall_thickness'
p178
aF0.001
aF1
aa(lp179
S'fairlead_support_outer_diameter'
p180
aF0.10000000000000001
aF10
aa(lp181
S'main_freeboard'
p182
aF0
aF50
aa(lp183
S'main_section_height'
p184
aF0.10000000000000001
aF50
aa(lp185
S'main_outer_diameter'
p186
aF2.1000000000000001
aF40
aa(lp187
S'main_wall_thickness'
p188
aF0.001
aF0.5
aa(lp189
S'main_buoyancy_tank_diameter'
p190
aF0
aF50
aa(lp191
S'main_buoyancy_tank_height'
p192
aF0
aF20
aa(lp193
S'main_buoyancy_tank_location'
p194
aF0
aF1
aa(lp195
S'offset_freeboard'
p196
aF2
aF15
aa(lp197
S'offset_section_height'
p198
aF0.10000000000000001
aF50
aa(lp199
S'offset_outer_diameter'
p200
aF1.1000000000000001
aF40
aa(lp201
S'offset_wall_thickness'
p202
aF0.001
aF0.5
aa(lp203
S'offset_buoyancy_tank_diameter'
p204
aF0
aF50
aa(lp205
S'offset_buoyancy_tank_height'
p206
aF0
aF20
aa(lp207
S'offset_buoyancy_tank_location'
p208
aF0
aF1
aa(lp209
S'pontoon_outer_diameter'
p210
aF1
aF10
aa(lp211
S'pontoon_wall_thickness'
p212
aF0.01
aF1
aa(lp213
S'main_pontoon_attach_lower'
p214
aF0
aF0.5
aa(lp215
S'main_pontoon_attach_upper'
p216
aF0.5
aF1
aa(lp217
S'mooring_line_length'
p218
aF200
aF3000
aa(lp219
S'anchor_radius'
p220
aF100
aF5000
aa(lp221
S'mooring_diameter'
p222
aF0.050000000000000003
aF2
aa(lp223
S'main_permanent_ballast_height'
p224
aF0.10000000000000001
aF50
aa(lp225
S'main_stiffener_web_height'
p226
aF0.01
aF1
aa(lp227
S'main_stiffener_web_thickness'
p228
aF0.001
aF0.5
aa(lp229
S'main_stiffener_flange_width'
p230
aF0.01
aF5
aa(lp231
S'main_stiffener_flange_thickness'
p232
aF0.001
aF0.5
aa(lp233
S'main_stiffener_spacing'
p234
aF0.10000000000000001
aF100
aa(lp235
S'offset_stiffener_web_height'
p236
aF0.01
aF1
aa(lp237
S'offset_stiffener_web_thickness'
p238
aF0.001
aF0.5
aa(lp239
S'offset_stiffener_flange_width'
p240
aF0.01
aF5
aa(lp241
S'offset_stiffener_flange_thickness'
p242
aF0.001
aF0.5
aa(lp243
S'offset_stiffener_spacing'
p244
aF0.10000000000000001
aF100
aa(lp245
S'offset_permanent_ballast_height'
p246
aF0.10000000000000001
aF50
aa(lp247
S'radius_to_offset_column'
p248
aF5
aF100
aa(lp249
(lp250
S'tow.height_constraint'
p251
aF-0.01
aF0.01
aNaa(lp252
S'main.draft'
p253
aF0
aF20
aNaa(lp254
S'off.draft'
p255
aF0
aF20
aNaa(lp256
S'main.draft_margin'
p257
aF0
aF1
aNaa(lp258
S'off.draft_margin'
p259
aF0
aF1
aNaa(lp260
S'main.wave_height_freeboard_ratio'
p261
aNaF1
aNaa(lp262
S'off.wave_height_freeboard_ratio'
p263
aNaF1
aNaa(lp264
S'main_offset_spacing'
p265
aF1
aNaNaa(lp266
S'main.manufacturability'
p267
aF0
aNaNaa(lp268
S'main.weldability'
p269
aNaF0
aNaa(lp270
S'off.manufacturability'
p271
aF0
aNaNaa(lp272
S'off.weldability'
p273
aNaF0
aNaa(lp274
S'tower_transition_buffer'
p275
aF-1
aF1
aNaa(lp276
S'nacelle_transition_buffer'
p277
aF0
aNaNaa(lp278
S'offset_freeboard_heel_margin'
p279
aF0
aNaNaa(lp280
S'offset_draft_heel_margin'
p281
aF0
aF20
aNaa(lp282
S'axial_unity'
p283
aF0
aF1
aNaa(lp284
S'mooring_length_max'
p285
aNaF1
aNaa(lp286
S'main.flange_spacing_ratio'
p287
aNaF1
aNaa(lp288
S'main.stiffener_radius_ratio'
p289
aNaF0.5
aNaa(lp290
S'main.flange_compactness'
p291
aF1
aNaNaa(lp292
S'main.web_compactness'
p293
aF1
aNaNaa(lp294
S'main.axial_local_api'
p295
aNaF1
aNaa(lp296
S'main.axial_general_api'
p297
aNaF1
aNaa(lp298
S'main.external_local_api'
p299
aNaF1
aNaa(lp300
S'main.external_general_api'
p301
aNaF1
aNaa(lp302
S'off.flange_spacing_ratio'
p303
aNaF1
aNaa(lp304
S'off.stiffener_radius_ratio'
p305
aNaF0.5
aNaa(lp306
S'off.flange_compactness'
p307
aF1
aNaNaa(lp308
S'off.web_compactness'
p309
aF1
aNaNaa(lp310
S'off.axial_local_api'
p311
aNaF1
aNaa(lp312
S'off.axial_general_api'
p313
aNaF1
aNaa(lp314
S'off.external_local_api'
p315
aNaF1
aNaa(lp316
S'off.external_general_api'
p317
aNaF1
aNaa(lp318
S'pontoon_stress'
p319
aNaF1
aNaa(lp320
S'tower_stress'
p321
aNaF1
aNaa(lp322
S'tower_shell_buckling'
p323
aNaF1
aNaa(lp324
S'tower_global_buckling'
p325
aNaF1
aNaa(lp326
S'main_stress'
p327
aNaF1
aNaa(lp328
S'main_shell_buckling'
p329
aNaF1
aNaa(lp330
S'main_global_buckling'
p331
aNaF1
aNaa(lp332
S'offset_stress'
p333
aNaF1
aNaa(lp334
S'offset_shell_buckling'
p335
aNaF1
aNaa(lp336
S'offset_global_buckling'
p337
aNaF1
aNaa(lp338
S'variable_ballast_height_ratio'
p339
aF0
aF1
aNaa(lp340
S'variable_ballast_mass'
p341
aF0
aNaNaa(lp342
S'metacentric_height'
p343
aF0.10000000000000001
aNaNaa(lp344
S'offset_force_ratio'
p345
aNaF1
aNaa(lp346
S'heel_moment_ratio'
p347
aNaF1
aNaa(lp348
S'period_margin_low'
p349
aNaF1
aNaa(lp350
S'period_margin_high'
p351
aF1
aNaNaa(S'structural_mass'
p352
F9.9999999999999995e-07
tp353
S'NM'
p354
t.