((dp1
S'rna_moment'
p2
cnumpy.core.multiarray
_reconstruct
p3
(cnumpy
ndarray
p4
(I0
tS'b'
tRp5
(I1
(I3
tcnumpy
dtype
p6
(S'f8'
I0
I1
tRp7
(I3
S'<'
NNNI-1
I-1
I0
tbI00
S'\xec*\xda\xf3O\xe7{A\xf8\xedw\x9a\x0e\xff\rA\xf1\x80S\xcaVvG\xc1'
tbsS'offset_permanent_ballast_height'
p8
cnumpy.core.multiarray
scalar
p9
(g6
(S'f8'
I0
I1
tRp10
(I3
S'<'
NNNI-1
I-1
I0
tbS'\xe9|mQRK\xd3?'
tRp11
sS'rna_force'
p12
g3
(g4
(I0
tS'b'
tRp13
(I1
(I3
tg7
I00
S'\xcd\xcc\xccLc\x1e@A\x00\x00\x00\x00\x00\x00\x00\x00\xc3\xf5(\xec!\xffY\xc1'
tbsS'gamma_fatigue'
p14
F1.7549999999999999
sS'loading'
p15
S'hydrostatic'
p16
sS'lower_ring_pontoons_int'
p17
g9
(g10
S'\x00\x00\x00\x00\x00\x00\x00\x00'
tRp18
sS'main_stiffener_web_height'
p19
g3
(g4
(I0
tS'b'
tRp20
(I1
(I5
tg6
(S'f8'
I0
I1
tRp21
(I3
S'<'
NNNI-1
I-1
I0
tbI00
S']\x9a\xd2K\xec\xac\xda?H \xd5\xf9\x7f\xb8\xa6?\xd8\xe8vW\x1c%\xcb?\x8d\xc3\xa5\xb6e\x07\xd1?\xa0,\x08\xf9\xf1B\x91?'
tbsS'zref'
p22
F119
sS'outfitting_cost_rate'
p23
F1.6500000000000001
sS'offset_buoyancy_tank_location'
p24
g9
(g10
S'\x7f\xe7\t\xdbW\xb0\xc1?'
tRp25
sS'main_stiffener_flange_width'
p26
g3
(g4
(I0
tS'b'
tRp27
(I1
(I5
tg21
I00
S'{\x14\xaeG\xe1z\x84?4\x00\xa0\xf3m\xb8\xff?\xb3\xab\xdf\x97\xc0\xb1\xf0?13\xc9\x8b=\xce\xd7?\x90xJ\x90B\xed\xde?'
tbsS'max_taper_ratio'
p28
F0.40000000000000002
sS'main_stiffener_spacing'
p29
g3
(g4
(I0
tS'b'
tRp30
(I1
(I5
tg21
I00
S'`\xa5G_\x10\x00%@=\xa6G\xcf1\x98 @\x18RS\x85\xf7\x7f\x1b@\xb3\x80g\xce\xa1\xd5\x06@D!\xdc\xe9\xfb\x11;@'
tbsS'max_draft'
p31
F20
sS'T'
F9.8000000000000007
sS'bulkhead_mass_factor'
p32
F1
sS'wave_period_range_high'
p33
F20
sS'cross_attachment_pontoons_int'
p34
g9
(g10
S'\x00\x00\x00\x00\x00\x00\x00\x00'
tRp35
sS'outfitting_mass_fraction'
p36
F0.059999999999999998
sS'offset_buoyancy_tank_diameter'
p37
g9
(g10
S'\xf2\xb7`[h^$@'
tRp38
sS'main_outer_diameter'
p39
g3
(g4
(I0
tS'b'
tRp40
(I1
(I6
tg21
I00
S'\xe4\x10\xff\xba\x95S9@T(U\xcd\r\xc0\'@\xc0\x97\x03U\xa6k\x1d@\xcav\xe2\xa6\xff\xa4$@\x1ct<@~\x91!@\xa1\x9eE\xfeS5"@'
tbsS'rna_I'
p41
g3
(g4
(I0
tS'b'
tRp42
(I1
(I6
tg7
I00
S'\x00\x00\x00.b\xf5\xa3A\x00\x00\x00\x08)"\x99A\x00\x00\x00\xf0\x10Q\x94A\x00\x00\x00\x00\x00\x00\x00\x00\xa4p=\n\x98x7A\x00\x00\x00\x00\x00\x00\x00\x00'
tbsS'main.windLoads.mu'
p43
F1.8099999999999999e-05
sS'fairlead_support_outer_diameter'
p44
g9
(g10
S'\x9a\x99\x99\x99\x99\x99\xb9?'
tRp45
sS'offset_bulkhead_thickness'
p46
g3
(g4
(I0
tS'b'
tRp47
(I1
(I6
tg7
I00
S'\x9a\x99\x99\x99\x99\x99\xa9?\x9a\x99\x99\x99\x99\x99\xa9?\x00\x00\x00\x00\x00\x00\x00\x00\x00\x00\x00\x00\x00\x00\x00\x00\x00\x00\x00\x00\x00\x00\x00\x00\x9a\x99\x99\x99\x99\x99\xa9?'
tbsS'shell_mass_factor'
p48
F1
sS'main_pontoon_attach_upper'
p49
g9
(g10
S'\x19\x9d+\xceG\xac\xed?'
tRp50
sS'rna_mass'
p51
F523770.4590506992
sS'tower_buckling_length'
p52
F30
sS'Hs'
p53
F10.800000000000001
sS'main_freeboard'
p54
g9
(g10
S'P:-7q\xfd=@'
tRp55
sS'Rhub'
p56
F2.2999999999999998
sS'material_density'
p57
F7850
sS'tower_outfitting_factor'
p58
F1.0700000000000001
sS'tower_outer_diameter'
p59
g3
(g4
(I0
tS'b'
tRp60
(I1
(I6
tg7
I00
S'\x00\x00\x00\x00\x00\x00"@\x00\x00\x00\x00\x00\x00"@\x9a\x99\x99\x99\x99\x99 @\xa4p=\n\xd7\xa3\x1b@\x00\x00\x00\x00\x00\x00\x16@\x00\x00\x00\x00\x00\x00\x16@'
tbsS'anchor_type'
p61
S'suctionpile'
p62
sS'G'
F79300000000
sS'fairlead_location'
p63
g9
(g10
S'\xa4\x055\x80\xaf/\xcc?'
tRp64
sS'max_offset'
p65
F100
sS'max_survival_heel'
p66
F15
sS'main_stiffener_flange_thickness'
p67
g3
(g4
(I0
tS'b'
tRp68
(I1
(I5
tg21
I00
S'L:\xc5\x84\x08>\\?p\x92\xcd\r\xc8W\xdc?\xe6\xac\xaf\x8aq`\xba?y\x90Xh\xa5\xb0\xab?\xf4\xd9\x03\x1b\x11\xb2\xca?'
tbsS'permanent_ballast_density'
p69
F4492
sS'z0'
p70
F0
sS'Uc'
p71
F0
sS'material_cost_rate'
p72
F1.1000000000000001
sS'pontoon_wall_thickness'
p73
g9
(g10
S'\xfa\xf5 |\x836\x91?'
tRp74
sS'number_of_offset_columns'
p75
I3
sS'radius_to_offset_column'
p76
g9
(g10
S'\xbb$U\xc6h\xeaJ@'
tRp77
sS'tower_section_height'
p78
g3
(g4
(I0
tS'b'
tRp79
(I1
(I5
tg7
I00
S'\x00\x00\x00\x00\x00\x00$@\x00\x10\xaeG\xe1z\x84?\xc3\xf5(\\\x8fBJ@\xcc\xcc\xcc\xcc\xcc\x8cJ@\x00)\\\x8f\xc2\xf5\n@'
tbsS'main_buoyancy_tank_location'
p80
g9
(g10
S'\xfc\x1c^\xd0A\xf0\xf2>'
tRp81
sS'cm'
p82
F2
sS'main.waveLoads.mu'
p83
F0.00088999999999999995
sS'mooring_diameter'
p84
g9
(g10
S'\xf8\xfb+\xc5\xca\xb8\xcd?'
tRp85
sS'gamma_m'
p86
F1.1000000000000001
sS'gamma_n'
p87
F1
sS'offset_section_height'
p88
g3
(g4
(I0
tS'b'
tRp89
(I1
(I5
tg21
I00
S'*\xb8\x02\xb0\x06\x99\xee?\xbe\xe2\xc7\xf6N?\xfc?\x08\x1c\xc7\xddk\xfb2@\xac\x03\\\xf8\x8b\x1a\xd7?\xa4\xa9\xbd\xf6\xb66\x17@'
tbsS'main_bulkhead_thickness'
p90
g3
(g4
(I0
tS'b'
tRp91
(I1
(I6
tg7
I00
S'\x9a\x99\x99\x99\x99\x99\xa9?\x9a\x99\x99\x99\x99\x99\xa9?\x00\x00\x00\x00\x00\x00\x00\x00\x00\x00\x00\x00\x00\x00\x00\x00\x00\x00\x00\x00\x00\x00\x00\x00\x9a\x99\x99\x99\x99\x99\xa9?'
tbsS'yaw'
p92
F0
sS'gamma_f'
p93
F1.3500000000000001
sS'offset_freeboard'
p94
g9
(g10
S'\xbc\xc0\x1b\xbdP\xde+@'
tRp95
sS'gamma_b'
p96
F1.1000000000000001
sS'z_offset'
p97
F0
sS'ballast_cost_rate'
p98
F0.10000000000000001
sS'number_of_mooring_connections'
p99
I3
sS'offset_stiffener_web_thickness'
p100
g3
(g4
(I0
tS'b'
tRp101
(I1
(I5
tg21
I00
S'G&\xe1\x9d\x99\xa8\xdf?\xa6\xe3\x08.\xa8\xe0\xc3?.\xa2NN\x9any?\xf9\xad\xf1\xd2MbP?zA\xa5\x1f\xa4\xc8\x97?'
tbsS'mooring_line_length'
p102
g9
(g10
S'`\xb2\xed\\\x10\x80\xa6@'
tRp103
sS'outer_cross_pontoons_int'
p104
g9
(g10
S'\x00\x00\x00\x00\x00\x00\x00\x00'
tRp105
sS'water_depth'
p106
F320
sS'main_buoyancy_tank_diameter'
p107
g9
(g10
S'\x17\xd1\xc5z\xc5[\x1d@'
tRp108
sS'column_mass_factor'
p109
F1.05
sS'operational_heel'
p110
F6
sS'offset_outer_diameter'
p111
g3
(g4
(I0
tS'b'
tRp112
(I1
(I6
tg21
I00
S"\x8a\xa6-X$\xff'@\xbc\xa7Wp\x1cM:@\x10\xb91\xe8\xe0\xb6$@\xfb/?\x07 r!@\x10#\xb7w<H\x0f@\x1c\xeb75x\x87\xf9?"
tbsS'yield_stress'
p113
F345000000
sS'main_wall_thickness'
p114
g3
(g4
(I0
tS'b'
tRp115
(I1
(I5
tg6
(S'f8'
I0
I1
tRp116
(I3
S'<'
NNNI-1
I-1
I0
tbI00
S'\x1c\xe2\xa2\xedf}\xac?\xaf\xb9\x9cIip\xae?v\xb4E\xefJ\xfd\xa8?\xb9p\xbe\xdd\xde\x83\xa5?\x16A~g\x1a(\xaa?'
tbsS'connection_ratio_max'
p117
F0.25
sS'ring_mass_factor'
p118
F1
sS'upper_ring_pontoons_int'
p119
g9
(g10
S'\x00\x00\x00\x00\x00\x00\x00\x00'
tRp120
sS'main_stiffener_web_thickness'
p121
g3
(g4
(I0
tS'b'
tRp122
(I1
(I5
tg21
I00
S'\x1c\xf0zUB\xd8\xb6?\x14m\xba@\x91\xe6\xdf?Ne\x9c\xb0\xa8\xc3\xba?\\\x0b\xe5\x9e\xdd\x8d\xb0?-q\x9f\xf7\xfc\x99\xa6?'
tbsS'lower_attachment_pontoons_int'
p123
g9
(g10
S'\x00\x00\x00\x00\x00\x00\xf0?'
tRp124
sS'water_density'
p125
F1025
sS'main_buoyancy_tank_height'
p126
g9
(g10
S'2wd\x98\\\x10\xf8?'
tRp127
sS'cd_usr'
p128
Finf
sS'min_diameter_thickness_ratio'
p129
F120
sS'offset_wall_thickness'
p130
g3
(g4
(I0
tS'b'
tRp131
(I1
(I5
tg116
I00
S'hp*k}\xd4\xbb?D?8\xf04w\xc1?-\xda\x9c\xd6(\r\xa4?\xcc$\x03NC\xd3\x8e?\xc8\xcc\x91%C\xd3\x8e?'
tbsS'offset_buoyancy_tank_height'
p132
g9
(g10
S'\xde\x94\x80\xd3\xe5\x98\xf8?'
tRp133
sS'main_section_height'
p134
g3
(g4
(I0
tS'b'
tRp135
(I1
(I5
tg21
I00
S"\xac\x88\xd0\x8a\x99\xfa'@\xfe\x89\xfa\xfb\xf1\xf9\xf8?\xc4\xc3\xec\xb9\xbc|\x1b@<6<,\xcb\xd5&@\x98J:\x7fbC'@"
tbsS'Uref'
p136
F11
sS'anchor_radius'
p137
g9
(g10
S'\x05\xd9\xe3{\xef\xd7\xa5@'
tRp138
sS'rna_cg'
p139
g3
(g4
(I0
tS'b'
tRp140
(I1
(I3
tg7
I00
S'\x1e\x01\x16\xd8\xe7Z\xe3\xbf\x00\x00\x00\x00\x00\x00\x00\x00\x0e\xb4L\xd0p$\x04@'
tbsS'pontoon_outer_diameter'
p141
g9
(g10
S'\xe0\x16\xc2\xb9\x9c\x9c!@'
tRp142
sS'fairlead_support_wall_thickness'
p143
g9
(g10
S'\xfc\xa9\xf1\xd2MbP?'
tRp144
sS'fairlead_offset_from_shell'
p145
F6.0004865405187147
sS'tower_wall_thickness'
p146
g3
(g4
(I0
tS'b'
tRp147
(I1
(I5
tg116
I00
S'\x90\xebQ\xb8\x1e\x85\xd3?@\\\x8f\xc2\xf5(\xcc?\x10\x00\x00\x00\x00\x00\xc0?\xc0\xf5(\\\x8f\xc2\xb5?\x80\x1e\x85\xebQ\xb8\xae?'
tbsS'mooring_cost_rate'
p148
F1.1000000000000001
sS'painting_cost_rate'
p149
F14.4
sS'nu'
p150
F0.26000000000000001
sS'E'
F200000000000
sS'wave_period_range_low'
p151
F2
sS'main_pontoon_attach_lower'
p152
g9
(g10
S'\x1d\x1a^\xab3\xb6\xb9?'
tRp153
sS'offset_stiffener_flange_thickness'
p154
g3
(g4
(I0
tS'b'
tRp155
(I1
(I5
tg21
I00
S'\xd4\x10\xe8}4\x11\xd3?\xa2\xf0\xf5\xc4\x8a\xd5\xdf?QD\xfcF"\xa1\xcb?\xfc\xa9\xf1\xd2MbP?l\x04V\xaa4o\xc4?'
tbsS'main.windLoads.rho'
p156
F1.198
sS'beta'
p157
F0
sS'shearExp'
p158
F0.11
sS'mooring_lines_per_connection'
p159
g9
(g10
S'\x00\x00\x00\x00\x00\x00\x00@'
tRp160
sS'main_permanent_ballast_height'
p161
g9
(g10
S'\xec\xd6\xc6\x8b\xf0\xcb\x0c@'
tRp162
sS'offset_stiffener_flange_width'
p163
g3
(g4
(I0
tS'b'
tRp164
(I1
(I5
tg21
I00
S'17y\n\x8a#\xe1?\xb2/\x8emL\xc8\xa8?\\`\xc7\x8f&$\xe3?{\x14\xaeG\xe1z\x84?\xe0\x8c\xe2r>\x8a\xed?'
tbsS'offset_stiffener_spacing'
p165
g3
(g4
(I0
tS'b'
tRp166
(I1
(I5
tg21
I00
S'\xdc\xe8\xc0M\xe4\xbb\x02@\x18b\x86\xbcOv>@f\xbc;\xcf\xd1qJ@\xbe\xb27\xea\xc9/+@v(\xf2_\xc3\x8c/@'
tbsS'mooring_type'
p167
S'chain'
p168
sS'hub_height'
p169
F149
sS'upper_attachment_pontoons_int'
p170
g9
(g10
S'\x00\x00\x00\x00\x00\x00\x00\x00'
tRp171
sS'labor_cost_rate'
p172
F1
sS'offset_stiffener_web_height'
p173
g3
(g4
(I0
tS'b'
tRp174
(I1
(I5
tg21
I00
S"\xc5P\x11\xcd\x175\xc7?f\xfe '\x1b\xba\xda?\x1fY\xb9~\x856\xc1?\xae\x14\xaeG\xe1z\x84?@L\xa4\xbacK\xbc?"
tbs(lp175
(lp176
S'fairlead_location'
p177
aF0
aF1
aa(lp178
S'fairlead_support_wall_thickness'
p179
aF0.001
aF1
aa(lp180
S'fairlead_support_outer_diameter'
p181
aF0.10000000000000001
aF10
aa(lp182
S'main_freeboard'
p183
aF0
aF50
aa(lp184
S'main_section_height'
p185
aF0.10000000000000001
aF50
aa(lp186
S'main_outer_diameter'
p187
aF2.1000000000000001
aF40
aa(lp188
S'main_wall_thickness'
p189
aF0.001
aF0.5
aa(lp190
S'main_buoyancy_tank_diameter'
p191
aF0
aF50
aa(lp192
S'main_buoyancy_tank_height'
p193
aF0
aF20
aa(lp194
S'main_buoyancy_tank_location'
p195
aF0
aF1
aa(lp196
S'offset_freeboard'
p197
aF2
aF15
aa(lp198
S'offset_section_height'
p199
aF0.10000000000000001
aF50
aa(lp200
S'offset_outer_diameter'
p201
aF1.1000000000000001
aF40
aa(lp202
S'offset_wall_thickness'
p203
aF0.001
aF0.5
aa(lp204
S'offset_buoyancy_tank_diameter'
p205
aF0
aF50
aa(lp206
S'offset_buoyancy_tank_height'
p207
aF0
aF20
aa(lp208
S'offset_buoyancy_tank_location'
p209
aF0
aF1
aa(lp210
S'pontoon_outer_diameter'
p211
aF1
aF10
aa(lp212
S'pontoon_wall_thickness'
p213
aF0.01
aF1
aa(lp214
S'main_pontoon_attach_lower'
p215
aF0
aF0.5
aa(lp216
S'main_pontoon_attach_upper'
p217
aF0.5
aF1
aa(lp218
S'mooring_line_length'
p219
aF200
aF3000
aa(lp220
S'anchor_radius'
p221
aF100
aF5000
aa(lp222
S'mooring_diameter'
p223
aF0.050000000000000003
aF2
aa(lp224
S'main_permanent_ballast_height'
p225
aF0.10000000000000001
aF50
aa(lp226
S'main_stiffener_web_height'
p227
aF0.01
aF1
aa(lp228
S'main_stiffener_web_thickness'
p229
aF0.001
aF0.5
aa(lp230
S'main_stiffener_flange_width'
p231
aF0.01
aF5
aa(lp232
S'main_stiffener_flange_thickness'
p233
aF0.001
aF0.5
aa(lp234
S'main_stiffener_spacing'
p235
aF0.10000000000000001
aF100
aa(lp236
S'offset_stiffener_web_height'
p237
aF0.01
aF1
aa(lp238
S'offset_stiffener_web_thickness'
p239
aF0.001
aF0.5
aa(lp240
S'offset_stiffener_flange_width'
p241
aF0.01
aF5
aa(lp242
S'offset_stiffener_flange_thickness'
p243
aF0.001
aF0.5
aa(lp244
S'offset_stiffener_spacing'
p245
aF0.10000000000000001
aF100
aa(lp246
S'offset_permanent_ballast_height'
p247
aF0.10000000000000001
aF50
aa(lp248
S'radius_to_offset_column'
p249
aF5
aF100
aa(lp250
(lp251
S'tow.height_constraint'
p252
aF-0.01
aF0.01
aNaa(lp253
S'main.draft_margin'
p254
aNaF1
aNaa(lp255
S'off.draft_margin'
p256
aNaF1
aNaa(lp257
S'main.wave_height_freeboard_ratio'
p258
aNaF1
aNaa(lp259
S'off.wave_height_freeboard_ratio'
p260
aNaF1
aNaa(lp261
S'main_offset_spacing'
p262
aF1
aNaNaa(lp263
S'main.manufacturability'
p264
aF0
aNaNaa(lp265
S'main.weldability'
p266
aNaF0
aNaa(lp267
S'off.manufacturability'
p268
aF0
aNaNaa(lp269
S'off.weldability'
p270
aNaF0
aNaa(lp271
S'tower_transition_buffer'
p272
aF-1
aF1
aNaa(lp273
S'nacelle_transition_buffer'
p274
aF0
aNaNaa(lp275
S'offset_freeboard_heel_margin'
p276
aF0
aNaNaa(lp277
S'offset_draft_heel_margin'
p278
aF0
aNaNaa(lp279
S'axial_unity'
p280
aF0
aF1
aNaa(lp281
S'mooring_length_max'
p282
aNaF1
aNaa(lp283
S'main.flange_spacing_ratio'
p284
aNaF1
aNaa(lp285
S'main.stiffener_radius_ratio'
p286
aNaF0.5
aNaa(lp287
S'main.flange_compactness'
p288
aF1
aNaNaa(lp289
S'main.web_compactness'
p290
aF1
aNaNaa(lp291
S'main.axial_local_api'
p292
aNaF1
aNaa(lp293
S'main.axial_general_api'
p294
aNaF1
aNaa(lp295
S'main.external_local_api'
p296
aNaF1
aNaa(lp297
S'main.external_general_api'
p298
aNaF1
aNaa(lp299
S'off.flange_spacing_ratio'
p300
aNaF1
aNaa(lp301
S'off.stiffener_radius_ratio'
p302
aNaF0.5
aNaa(lp303
S'off.flange_compactness'
p304
aF1
aNaNaa(lp305
S'off.web_compactness'
p306
aF1
aNaNaa(lp307
S'off.axial_local_api'
p308
aNaF1
aNaa(lp309
S'off.axial_general_api'
p310
aNaF1
aNaa(lp311
S'off.external_local_api'
p312
aNaF1
aNaa(lp313
S'off.external_general_api'
p314
aNaF1
aNaa(lp315
S'pontoon_stress'
p316
aNaF1
aNaa(lp317
S'tower_stress'
p318
aNaF1
aNaa(lp319
S'tower_shell_buckling'
p320
aNaF1
aNaa(lp321
S'tower_global_buckling'
p322
aNaF1
aNaa(lp323
S'main_stress'
p324
aNaF1
aNaa(lp325
S'main_shell_buckling'
p326
aNaF1
aNaa(lp327
S'main_global_buckling'
p328
aNaF1
aNaa(lp329
S'offset_stress'
p330
aNaF1
aNaa(lp331
S'offset_shell_buckling'
p332
aNaF1
aNaa(lp333
S'offset_global_buckling'
p334
aNaF1
aNaa(lp335
S'variable_ballast_height_ratio'
p336
aF0
aF1
aNaa(lp337
S'variable_ballast_mass'
p338
aF0
aNaNaa(lp339
S'metacentric_height'
p340
aF0.10000000000000001
aNaNaa(lp341
S'offset_force_ratio'
p342
aNaF1
aNaa(lp343
S'heel_moment_ratio'
p344
aNaF1
aNaa(lp345
S'period_margin_low'
p346
aNaF1
aNaa(lp347
S'period_margin_high'
p348
aF1
aNaNaa(S'structural_mass'
p349
F9.9999999999999995e-07
tp350
S'SUBPLEX'
p351
t.