((dp1
S'rna_moment'
p2
cnumpy.core.multiarray
_reconstruct
p3
(cnumpy
ndarray
p4
(I0
tS'b'
tRp5
(I1
(I3
tcnumpy
dtype
p6
(S'f8'
I0
I1
tRp7
(I3
S'<'
NNNI-1
I-1
I0
tbI00
S'\xec*\xda\xf3O\xe7{A\xf8\xedw\x9a\x0e\xff\rA\xf1\x80S\xcaVvG\xc1'
tbsS'offset_permanent_ballast_height'
p8
cnumpy.core.multiarray
scalar
p9
(g6
(S'f8'
I0
I1
tRp10
(I3
S'<'
NNNI-1
I-1
I0
tbS'\xc1\x0eT\xb3\xb3\x7f\xd4?'
tRp11
sS'rna_force'
p12
g3
(g4
(I0
tS'b'
tRp13
(I1
(I3
tg7
I00
S'\xcd\xcc\xccLc\x1e@A\x00\x00\x00\x00\x00\x00\x00\x00\xc3\xf5(\xec!\xffY\xc1'
tbsS'gamma_fatigue'
p14
F1.7549999999999999
sS'loading'
p15
S'hydrostatic'
p16
sS'lower_ring_pontoons_int'
p17
g9
(g10
S'\x00\x00\x00\x00\x00\x00\x00\x00'
tRp18
sS'main_stiffener_web_height'
p19
g3
(g4
(I0
tS'b'
tRp20
(I1
(I4
tg6
(S'f8'
I0
I1
tRp21
(I3
S'<'
NNNI-1
I-1
I0
tbI00
S'\x13\x86\xfaHb\xff\xef?\x13\x86\xfaHb\xff\xef?\x13\x86\xfaHb\xff\xef?\x13\x86\xfaHb\xff\xef?'
tbsS'zref'
p22
F119
sS'outfitting_cost_rate'
p23
F1.6500000000000001
sS'offset_buoyancy_tank_location'
p24
g9
(g10
S'\xe1fg\xfa]\xce\xa4?'
tRp25
sS'main_stiffener_flange_width'
p26
g3
(g4
(I0
tS'b'
tRp27
(I1
(I4
tg21
I00
S'%&YS@\x9f\xff?%&YS@\x9f\xff?%&YS@\x9f\xff?%&YS@\x9f\xff?'
tbsS'max_taper_ratio'
p28
F0.40000000000000002
sS'main_stiffener_spacing'
p29
g3
(g4
(I0
tS'b'
tRp30
(I1
(I4
tg21
I00
S'\x91\xd3\x97\x03\xe0\x9a"@\x91\xd3\x97\x03\xe0\x9a"@\x91\xd3\x97\x03\xe0\x9a"@\x91\xd3\x97\x03\xe0\x9a"@'
tbsS'max_draft'
p31
F20
sS'T'
F9.8000000000000007
sS'bulkhead_mass_factor'
p32
F1
sS'wave_period_range_high'
p33
F20
sS'cross_attachment_pontoons_int'
p34
g9
(g10
S'\x00\x00\x00\x00\x00\x00\x00\x00'
tRp35
sS'outfitting_mass_fraction'
p36
F0.059999999999999998
sS'offset_buoyancy_tank_diameter'
p37
g9
(g10
S'\xc52p\x84\xee %@'
tRp38
sS'main_outer_diameter'
p39
g3
(g4
(I0
tS'b'
tRp40
(I1
(I5
tg6
(S'f8'
I0
I1
tRp41
(I3
S'<'
NNNI-1
I-1
I0
tbI00
S'\xd5\x85\xf0p\xd9$9@#\xc7X\x81\xee|)@h\xcb\x8f\n2<\x1d@\xae\xb3&_I\xe9$@\xf6a`\x93\xb1\xca#@'
tbsS'rna_I'
p42
g3
(g4
(I0
tS'b'
tRp43
(I1
(I6
tg7
I00
S'\x00\x00\x00.b\xf5\xa3A\x00\x00\x00\x08)"\x99A\x00\x00\x00\xf0\x10Q\x94A\x00\x00\x00\x00\x00\x00\x00\x00\xa4p=\n\x98x7A\x00\x00\x00\x00\x00\x00\x00\x00'
tbsS'main.windLoads.mu'
p44
F1.8099999999999999e-05
sS'fairlead_support_outer_diameter'
p45
g9
(g10
S'\xdd\x85\xd3\xf5\xf7\xff#@'
tRp46
sS'offset_bulkhead_thickness'
p47
g3
(g4
(I0
tS'b'
tRp48
(I1
(I5
tg21
I00
S'\x9a\x99\x99\x99\x99\x99\xa9?\x9a\x99\x99\x99\x99\x99\xa9?\x00\x00\x00\x00\x00\x00\x00\x00\x00\x00\x00\x00\x00\x00\x00\x00\x9a\x99\x99\x99\x99\x99\xa9?'
tbsS'shell_mass_factor'
p49
F1
sS'main_pontoon_attach_upper'
p50
g9
(g10
S'\xa42<\x19W\xab\xed?'
tRp51
sS'rna_mass'
p52
F449282.40530069917
sS'tower_buckling_length'
p53
F30
sS'Hs'
p54
F10.800000000000001
sS'main_freeboard'
p55
g9
(g10
S'\xa3\x91\xaf\x85s\xff=@'
tRp56
sS'Rhub'
p57
F2.2999999999999998
sS'material_density'
p58
F7850
sS'tower_outfitting_factor'
p59
F1.0700000000000001
sS'tower_outer_diameter'
p60
g3
(g4
(I0
tS'b'
tRp61
(I1
(I4
tg21
I00
S'\x00\x00\x00\x00\x00\x00"@\x00\x00\x00\x00\x00\x00\x1d@\x00\x00\x00\x00\x00\x00\x1d@\x00\x00\x00\x00\x00\x00\x16@'
tbsS'anchor_type'
p62
S'suctionpile'
p63
sS'G'
F79300000000
sS'fairlead_location'
p64
g9
(g10
S'\xcc\x01\x88\xd1\xd9\t\xcb?'
tRp65
sS'max_offset'
p66
F100
sS'max_survival_heel'
p67
F15
sS'main.waveLoads.mu'
p68
F0.00088999999999999995
sS'permanent_ballast_density'
p69
F4492
sS'z0'
p70
F0
sS'Uc'
p71
F0
sS'material_cost_rate'
p72
F1.1000000000000001
sS'pontoon_wall_thickness'
p73
g9
(g10
S'\xac\xb1\xb5o\xea\xdf\x94?'
tRp74
sS'number_of_offset_columns'
p75
I3
sS'radius_to_offset_column'
p76
g9
(g10
S'\xda\xd2\xee\xa2`\xc2J@'
tRp77
sS'tower_section_height'
p78
g3
(g4
(I0
tS'b'
tRp79
(I1
(I3
tg21
I00
S'UUUUU\xd5C@UUUUU\xd5C@UUUUU\xd5C@'
tbsS'main_buoyancy_tank_location'
p80
g9
(g10
S'A\xeaW\xf6\xe0\x9b\xf1>'
tRp81
sS'cm'
p82
F2
sS'main_stiffener_flange_thickness'
p83
g3
(g4
(I0
tS'b'
tRp84
(I1
(I4
tg21
I00
S'\xe5\xfc\x95\x02\xb5\xca\xdf?\xe5\xfc\x95\x02\xb5\xca\xdf?\xe5\xfc\x95\x02\xb5\xca\xdf?\xe5\xfc\x95\x02\xb5\xca\xdf?'
tbsS'hub_cm'
p85
g3
(g4
(I0
tS'b'
tRp86
(I1
(I3
tg21
I00
S'ffffff\x1c\xc0\x00\x00\x00\x00\x00\x00\x00\x00\x00\x00\x00\x00\x00\x00\x06@'
tbsS'mooring_diameter'
p87
g9
(g10
S'\x01\xfa\xf2mg\xc6\xd1?'
tRp88
sS'gamma_m'
p89
F1.1000000000000001
sS'gamma_n'
p90
F1
sS'offset_section_height'
p91
g3
(g4
(I0
tS'b'
tRp92
(I1
(I4
tg41
I00
S'\xa3\x9f,C\xdd\xaf\xee?\xdfw\x8f\xa3\xea\xf4\xfb?\xdf\xc9\x9f\xf8o\\3@c\x84,&\xf50\x17@'
tbsS'main_bulkhead_thickness'
p93
g3
(g4
(I0
tS'b'
tRp94
(I1
(I5
tg21
I00
S'\x9a\x99\x99\x99\x99\x99\xa9?\x9a\x99\x99\x99\x99\x99\xa9?\x00\x00\x00\x00\x00\x00\x00\x00\x00\x00\x00\x00\x00\x00\x00\x00\x9a\x99\x99\x99\x99\x99\xa9?'
tbsS'yaw'
p95
F0
sS'gamma_f'
p96
F1.3500000000000001
sS'offset_freeboard'
p97
g9
(g10
S'\x83<\x96L\xac\xdd+@'
tRp98
sS'gamma_b'
p99
F1.1000000000000001
sS'tip_position'
p100
g3
(g4
(I0
tS'b'
tRp101
(I1
(I3
tg21
I00
S'\x9c\xc4 \xb0rh\x0c\xc0\x00\x00\x00\x00\x00\x00\x00\x00\x1b/\xdd$\x06\x815@'
tbsS'z_offset'
p102
F0
sS'ballast_cost_rate'
p103
F0.10000000000000001
sS'number_of_mooring_connections'
p104
I3
sS'offset_stiffener_web_thickness'
p105
g3
(g4
(I0
tS'b'
tRp106
(I1
(I4
tg21
I00
S'\xefSTH\xb8\x8b\xdf?\xefSTH\xb8\x8b\xdf?\xefSTH\xb8\x8b\xdf?\xefSTH\xb8\x8b\xdf?'
tbsS'mooring_line_length'
p107
g9
(g10
S's\xf4)\x85\xb7\x96\xa6@'
tRp108
sS'downwind'
p109
I00
sS'outer_cross_pontoons_int'
p110
g9
(g10
S'\x00\x00\x00\x00\x00\x00\x00\x00'
tRp111
sS'water_depth'
p112
F320
sS'main_buoyancy_tank_diameter'
p113
g9
(g10
S'\xe7\xad\xc9.G\x03\x1e@'
tRp114
sS'column_mass_factor'
p115
F1.05
sS'operational_heel'
p116
F6
sS'offset_outer_diameter'
p117
g3
(g4
(I0
tS'b'
tRp118
(I1
(I5
tg41
I00
S'\xf2\x8fm`K\xd4\'@\x17oF\x96\xac\x85:@8\x84o\xa5\xa2n%@\xb5\xd3\xbc\xb9\xb4\x7f"@\x92g\x82\xb4\x15\xdc\x18@'
tbsS'yield_stress'
p119
F345000000
sS'main_wall_thickness'
p120
g3
(g4
(I0
tS'b'
tRp121
(I1
(I4
tg21
I00
S'\xb6c\x08\xfa\x88\xcf\xae?\xb6c\x08\xfa\x88\xcf\xae?\xb6c\x08\xfa\x88\xcf\xae?\xb6c\x08\xfa\x88\xcf\xae?'
tbsS'connection_ratio_max'
p122
F0.25
sS'ring_mass_factor'
p123
F1
sS'upper_ring_pontoons_int'
p124
g9
(g10
S'\x00\x00\x00\x00\x00\x00\x00\x00'
tRp125
sS'main_stiffener_web_thickness'
p126
g3
(g4
(I0
tS'b'
tRp127
(I1
(I4
tg21
I00
S'*\xd4/-_\xee\xdf?*\xd4/-_\xee\xdf?*\xd4/-_\xee\xdf?*\xd4/-_\xee\xdf?'
tbsS'lower_attachment_pontoons_int'
p128
g9
(g10
S'\x00\x00\x00\x00\x00\x00\xf0?'
tRp129
sS'water_density'
p130
F1025
sS'main_buoyancy_tank_height'
p131
g9
(g10
S'\t\xdb\x06\x00\xea-\xfe?'
tRp132
sS'cd_usr'
p133
Finf
sS'min_diameter_thickness_ratio'
p134
F120
sS'offset_wall_thickness'
p135
g3
(g4
(I0
tS'b'
tRp136
(I1
(I4
tg21
I00
S'sDR\xee\x80"\xc3?sDR\xee\x80"\xc3?sDR\xee\x80"\xc3?sDR\xee\x80"\xc3?'
tbsS'offset_buoyancy_tank_height'
p137
g9
(g10
S"\xc2\x8d\xb0\xcc\xd9'\x0b@"
tRp138
sS'main_section_height'
p139
g3
(g4
(I0
tS'b'
tRp140
(I1
(I4
tg41
I00
S"G\xbf\xae\xe7\xe6\xca'@D\xb2\xff\n\xae\xda\xf8?\xb0\x11\x01\x14E\x8d2@A\x004\x0e\x9b7'@"
tbsS'Uref'
p141
F11
sS'anchor_radius'
p142
g9
(g10
S'i\xa8\x1e<\xfc\xda\xa5@'
tRp143
sS'rna_cg'
p144
g3
(g4
(I0
tS'b'
tRp145
(I1
(I3
tg7
I00
S'\x1e\x01\x16\xd8\xe7Z\xe3\xbf\x00\x00\x00\x00\x00\x00\x00\x00\x0e\xb4L\xd0p$\x04@'
tbsS'pontoon_outer_diameter'
p146
g9
(g10
S'\xc4x\xc0\x0e\x83\xb4!@'
tRp147
sS'fairlead_support_wall_thickness'
p148
g9
(g10
S']\xb53\xfc\xa1\x1a\x93?'
tRp149
sS'fairlead_offset_from_shell'
p150
F6.0004865405187147
sS'tower_wall_thickness'
p151
g3
(g4
(I0
tS'b'
tRp152
(I1
(I3
tg21
I00
S'\x90\xebQ\xb8\x1e\x85\xd3?\x90\xebQ\xb8\x1e\x85\xd3?\x90\xebQ\xb8\x1e\x85\xd3?'
tbsS'mooring_cost_rate'
p153
F1.1000000000000001
sS'painting_cost_rate'
p154
F14.4
sS'nu'
p155
F0.26000000000000001
sS'E'
F200000000000
sS'wave_period_range_low'
p156
F2
sS'main_pontoon_attach_lower'
p157
g9
(g10
S'".0\x94\xcf\x12\xba?'
tRp158
sS'offset_stiffener_flange_thickness'
p159
g3
(g4
(I0
tS'b'
tRp160
(I1
(I4
tg21
I00
S'\x18\x8a\xb2\xa6\xd5\xc4\xdf?\x18\x8a\xb2\xa6\xd5\xc4\xdf?\x18\x8a\xb2\xa6\xd5\xc4\xdf?\x18\x8a\xb2\xa6\xd5\xc4\xdf?'
tbsS'main.windLoads.rho'
p161
F1.198
sS'beta'
p162
F0
sS'shearExp'
p163
F0.11
sS'mooring_lines_per_connection'
p164
g9
(g10
S'\x00\x00\x00\x00\x00\x00\x00@'
tRp165
sS'main_permanent_ballast_height'
p166
g9
(g10
S'\x9c\xe4\xb7zn\xaf\x11@'
tRp167
sS'offset_stiffener_flange_width'
p168
g3
(g4
(I0
tS'b'
tRp169
(I1
(I4
tg21
I00
S'a\xd2\x15\x88jR\xed?a\xd2\x15\x88jR\xed?a\xd2\x15\x88jR\xed?a\xd2\x15\x88jR\xed?'
tbsS'offset_stiffener_spacing'
p170
g3
(g4
(I0
tS'b'
tRp171
(I1
(I4
tg21
I00
S'H\xe8D\x9b\xe3\xd4\n@H\xe8D\x9b\xe3\xd4\n@H\xe8D\x9b\xe3\xd4\n@H\xe8D\x9b\xe3\xd4\n@'
tbsS'mooring_type'
p172
S'chain'
p173
sS'hub_height'
p174
F149
sS'upper_attachment_pontoons_int'
p175
g9
(g10
S'\x00\x00\x00\x00\x00\x00\x00\x00'
tRp176
sS'labor_cost_rate'
p177
F1
sS'offset_stiffener_web_height'
p178
g3
(g4
(I0
tS'b'
tRp179
(I1
(I4
tg21
I00
S'\r8u\x9dWd\xda?\r8u\x9dWd\xda?\r8u\x9dWd\xda?\r8u\x9dWd\xda?'
tbs(lp180
(lp181
S'fairlead_location'
p182
aF0
aF1
aa(lp183
S'fairlead_support_wall_thickness'
p184
aF0.001
aF1
aa(lp185
S'fairlead_support_outer_diameter'
p186
aF0.10000000000000001
aF10
aa(lp187
S'main_freeboard'
p188
aF0
aF50
aa(lp189
S'main_section_height'
p190
aF0.10000000000000001
aF50
aa(lp191
S'main_outer_diameter'
p192
aF2.1000000000000001
aF40
aa(lp193
S'main_wall_thickness'
p194
aF0.001
aF0.5
aa(lp195
S'main_buoyancy_tank_diameter'
p196
aF0
aF50
aa(lp197
S'main_buoyancy_tank_height'
p198
aF0
aF20
aa(lp199
S'main_buoyancy_tank_location'
p200
aF0
aF1
aa(lp201
S'offset_freeboard'
p202
aF2
aF15
aa(lp203
S'offset_section_height'
p204
aF0.10000000000000001
aF50
aa(lp205
S'offset_outer_diameter'
p206
aF1.1000000000000001
aF40
aa(lp207
S'offset_wall_thickness'
p208
aF0.001
aF0.5
aa(lp209
S'offset_buoyancy_tank_diameter'
p210
aF0
aF50
aa(lp211
S'offset_buoyancy_tank_height'
p212
aF0
aF20
aa(lp213
S'offset_buoyancy_tank_location'
p214
aF0
aF1
aa(lp215
S'pontoon_outer_diameter'
p216
aF1
aF10
aa(lp217
S'pontoon_wall_thickness'
p218
aF0.01
aF1
aa(lp219
S'main_pontoon_attach_lower'
p220
aF0
aF0.5
aa(lp221
S'main_pontoon_attach_upper'
p222
aF0.5
aF1
aa(lp223
S'mooring_line_length'
p224
aF200
aF3000
aa(lp225
S'anchor_radius'
p226
aF100
aF5000
aa(lp227
S'mooring_diameter'
p228
aF0.050000000000000003
aF2
aa(lp229
S'main_permanent_ballast_height'
p230
aF0.10000000000000001
aF50
aa(lp231
S'main_stiffener_web_height'
p232
aF0.01
aF1
aa(lp233
S'main_stiffener_web_thickness'
p234
aF0.001
aF0.5
aa(lp235
S'main_stiffener_flange_width'
p236
aF0.01
aF5
aa(lp237
S'main_stiffener_flange_thickness'
p238
aF0.001
aF0.5
aa(lp239
S'main_stiffener_spacing'
p240
aF0.10000000000000001
aF100
aa(lp241
S'offset_stiffener_web_height'
p242
aF0.01
aF1
aa(lp243
S'offset_stiffener_web_thickness'
p244
aF0.001
aF0.5
aa(lp245
S'offset_stiffener_flange_width'
p246
aF0.01
aF5
aa(lp247
S'offset_stiffener_flange_thickness'
p248
aF0.001
aF0.5
aa(lp249
S'offset_stiffener_spacing'
p250
aF0.10000000000000001
aF100
aa(lp251
S'offset_permanent_ballast_height'
p252
aF0.10000000000000001
aF50
aa(lp253
S'radius_to_offset_column'
p254
aF5
aF100
aa(lp255
(lp256
S'tow.height_constraint'
p257
aF-0.01
aF0.01
aNaa(lp258
S'main.draft'
p259
aF0
aF20
aNaa(lp260
S'off.draft'
p261
aF0
aF20
aNaa(lp262
S'main.draft_margin'
p263
aF0
aF1
aNaa(lp264
S'off.draft_margin'
p265
aF0
aF1
aNaa(lp266
S'main.wave_height_freeboard_ratio'
p267
aNaF1
aNaa(lp268
S'off.wave_height_freeboard_ratio'
p269
aNaF1
aNaa(lp270
S'main_offset_spacing'
p271
aF1
aNaNaa(lp272
S'main.manufacturability'
p273
aF0
aNaNaa(lp274
S'main.weldability'
p275
aNaF0
aNaa(lp276
S'off.manufacturability'
p277
aF0
aNaNaa(lp278
S'off.weldability'
p279
aNaF0
aNaa(lp280
S'tower_transition_buffer'
p281
aF-1
aF1
aNaa(lp282
S'nacelle_transition_buffer'
p283
aF0
aNaNaa(lp284
S'offset_freeboard_heel_margin'
p285
aF0
aNaNaa(lp286
S'offset_draft_heel_margin'
p287
aF0
aF20
aNaa(lp288
S'axial_unity'
p289
aF0
aF1
aNaa(lp290
S'mooring_length_max'
p291
aNaF1
aNaa(lp292
S'main.flange_spacing_ratio'
p293
aNaF1
aNaa(lp294
S'main.stiffener_radius_ratio'
p295
aNaF0.5
aNaa(lp296
S'main.flange_compactness'
p297
aF1
aNaNaa(lp298
S'main.web_compactness'
p299
aF1
aNaNaa(lp300
S'main.axial_local_api'
p301
aNaF1
aNaa(lp302
S'main.axial_general_api'
p303
aNaF1
aNaa(lp304
S'main.external_local_api'
p305
aNaF1
aNaa(lp306
S'main.external_general_api'
p307
aNaF1
aNaa(lp308
S'off.flange_spacing_ratio'
p309
aNaF1
aNaa(lp310
S'off.stiffener_radius_ratio'
p311
aNaF0.5
aNaa(lp312
S'off.flange_compactness'
p313
aF1
aNaNaa(lp314
S'off.web_compactness'
p315
aF1
aNaNaa(lp316
S'off.axial_local_api'
p317
aNaF1
aNaa(lp318
S'off.axial_general_api'
p319
aNaF1
aNaa(lp320
S'off.external_local_api'
p321
aNaF1
aNaa(lp322
S'off.external_general_api'
p323
aNaF1
aNaa(lp324
S'pontoon_stress'
p325
aNaF1
aNaa(lp326
S'tower_stress'
p327
aNaF1
aNaa(lp328
S'tower_shell_buckling'
p329
aNaF1
aNaa(lp330
S'tower_global_buckling'
p331
aNaF1
aNaa(lp332
S'main_stress'
p333
aNaF1
aNaa(lp334
S'main_shell_buckling'
p335
aNaF1
aNaa(lp336
S'main_global_buckling'
p337
aNaF1
aNaa(lp338
S'offset_stress'
p339
aNaF1
aNaa(lp340
S'offset_shell_buckling'
p341
aNaF1
aNaa(lp342
S'offset_global_buckling'
p343
aNaF1
aNaa(lp344
S'variable_ballast_height_ratio'
p345
aF0
aF1
aNaa(lp346
S'variable_ballast_mass'
p347
aF0
aNaNaa(lp348
S'metacentric_height'
p349
aF0.10000000000000001
aNaNaa(lp350
S'offset_force_ratio'
p351
aNaF1
aNaa(lp352
S'heel_moment_ratio'
p353
aNaF1
aNaa(lp354
S'period_margin_low'
p355
aNaF1
aNaa(lp356
S'period_margin_high'
p357
aF1
aNaNaa(S'structural_mass'
p358
F9.9999999999999995e-07
tp359
S'NM'
p360
t.