((dp1
S'rna_moment'
p2
cnumpy.core.multiarray
_reconstruct
p3
(cnumpy
ndarray
p4
(I0
tS'b'
tRp5
(I1
(I3
tcnumpy
dtype
p6
(S'f8'
I0
I1
tRp7
(I3
S'<'
NNNI-1
I-1
I0
tbI00
S'\xec*\xda\xf3O\xe7{A\xf8\xedw\x9a\x0e\xff\rA\xf1\x80S\xcaVvG\xc1'
tbsS'offset_permanent_ballast_height'
p8
cnumpy.core.multiarray
scalar
p9
(g6
(S'f8'
I0
I1
tRp10
(I3
S'<'
NNNI-1
I-1
I0
tbS'\xc1\x0eT\xb3\xb3\x7f\xd4?'
tRp11
sS'rna_force'
p12
g3
(g4
(I0
tS'b'
tRp13
(I1
(I3
tg7
I00
S'\xcd\xcc\xccLc\x1e@A\x00\x00\x00\x00\x00\x00\x00\x00\xc3\xf5(\xec!\xffY\xc1'
tbsS'gamma_fatigue'
p14
F1.7549999999999999
sS'loading'
p15
S'hydrostatic'
p16
sS'lower_ring_pontoons_int'
p17
g9
(g10
S'\x00\x00\x00\x00\x00\x00\x00\x00'
tRp18
sS'tapered_col_cost_rate'
p19
F4720
sS'main_stiffener_web_height'
p20
g3
(g4
(I0
tS'b'
tRp21
(I1
(I5
tg6
(S'f8'
I0
I1
tRp22
(I3
S'<'
NNNI-1
I-1
I0
tbI00
S'\x01I@\xc5\x02\x88\xdd?\x13\x86\xfaHb\xff\xef?\x91\xbcrl+f\xd1?nq\x7fn\x12\x8b\xe3?%\xe2-\xb8\xcec\x86?'
tbsS'zref'
p23
F119
sS'outfitting_cost_rate'
p24
F6980
sS'offset_buoyancy_tank_location'
p25
g9
(g10
S'\xe1fg\xfa]\xce\xa4?'
tRp26
sS'main_stiffener_flange_width'
p27
g3
(g4
(I0
tS'b'
tRp28
(I1
(I5
tg22
I00
S'Ye\xa0\xd8\xcaA\xb1?\xa8,\x0c\xd0\xa4\xe8\xd6?%&YS@\x9f\xff?^\xdf\x0fvzP\xf0?\x851^\xa3Z\xdb\xde?'
tbsS'max_taper_ratio'
p29
F0.40000000000000002
sS'tower_outfitting_factor'
p30
F1.0700000000000001
sS'max_draft'
p31
F20
sS'T'
F9.8000000000000007
sS'bulkhead_mass_factor'
p32
F1
sS'wave_period_range_high'
p33
F20
sS'cross_attachment_pontoons_int'
p34
g9
(g10
S'\x00\x00\x00\x00\x00\x00\x00\x00'
tRp35
sS'outfitting_mass_fraction'
p36
F0.059999999999999998
sS'offset_buoyancy_tank_diameter'
p37
g9
(g10
S'\xc52p\x84\xee %@'
tRp38
sS'main_outer_diameter'
p39
g3
(g4
(I0
tS'b'
tRp40
(I1
(I6
tg22
I00
S'\xd5\x85\xf0p\xd9$9@#\xc7X\x81\xee|)@h\xcb\x8f\n2<\x1d@\xae\xb3&_I\xe9$@\xeb\xc5\x9a\x95R\xbd!@\xf6a`\x93\xb1\xca#@'
tbsS'rna_I'
p41
g3
(g4
(I0
tS'b'
tRp42
(I1
(I6
tg7
I00
S'\x00\x00\x00.b\xf5\xa3A\x00\x00\x00\x08)"\x99A\x00\x00\x00\xf0\x10Q\x94A\x00\x00\x00\x00\x00\x00\x00\x00\xa4p=\n\x98x7A\x00\x00\x00\x00\x00\x00\x00\x00'
tbsS'main.windLoads.mu'
p43
F1.8099999999999999e-05
sS'fairlead_support_outer_diameter'
p44
g9
(g10
S'\xdd\x85\xd3\xf5\xf7\xff#@'
tRp45
sS'offset_bulkhead_thickness'
p46
g3
(g4
(I0
tS'b'
tRp47
(I1
(I6
tg7
I00
S'\x9a\x99\x99\x99\x99\x99\xa9?\x9a\x99\x99\x99\x99\x99\xa9?\x00\x00\x00\x00\x00\x00\x00\x00\x00\x00\x00\x00\x00\x00\x00\x00\x00\x00\x00\x00\x00\x00\x00\x00\x9a\x99\x99\x99\x99\x99\xa9?'
tbsS'shell_mass_factor'
p48
F1
sS'main_pontoon_attach_upper'
p49
g9
(g10
S'\xa42<\x19W\xab\xed?'
tRp50
sS'rna_mass'
p51
F449282.40530069917
sS'tower_buckling_length'
p52
F30
sS'Hs'
p53
F10.800000000000001
sS'main_freeboard'
p54
g9
(g10
S'\xa3\x91\xaf\x85s\xff=@'
tRp55
sS'Rhub'
p56
F2.2999999999999998
sS'material_density'
p57
F7850
sS'main_stiffener_spacing'
p58
g3
(g4
(I0
tS'b'
tRp59
(I1
(I5
tg22
I00
S'tl\x8b!\xd1`%@\x91\xd3\x97\x03\xe0\x9a"@\x81\xd6\x8f"\xb5,.@>\xc12j\xf7\xe50@3\xb1\xc0Q\xd0\x7f:@'
tbsS'tower_outer_diameter'
p60
g3
(g4
(I0
tS'b'
tRp61
(I1
(I6
tg7
I00
S'\x00\x00\x00\x00\x00\x00"@\x00\x00\x00\x00\x00\x00"@\x9a\x99\x99\x99\x99\x99 @\xa4p=\n\xd7\xa3\x1b@\x00\x00\x00\x00\x00\x00\x16@\x00\x00\x00\x00\x00\x00\x16@'
tbsS'anchor_type'
p62
S'suctionpile'
p63
sS'G'
F79300000000
sS'fairlead_location'
p64
g9
(g10
S'\xcc\x01\x88\xd1\xd9\t\xcb?'
tRp65
sS'max_offset'
p66
F100
sS'max_survival_heel'
p67
F15
sS'main_stiffener_flange_thickness'
p68
g3
(g4
(I0
tS'b'
tRp69
(I1
(I5
tg22
I00
S'\x03:\xa3{3\xb4\xb1?\xc8\xeb\xd6\x95\xb40\xd7?iA\x94\x8d\xcd\x17\xc2?\xe5\xfc\x95\x02\xb5\xca\xdf?\xde\xcaFE\xeb\xb6\xc8?'
tbsS'permanent_ballast_density'
p70
F4492
sS'z0'
p71
F0
sS'Uc'
p72
F0
sS'offset_stiffener_web_thickness'
p73
g3
(g4
(I0
tS'b'
tRp74
(I1
(I5
tg22
I00
S'\xefSTH\xb8\x8b\xdf?>u-\xde\xdd\x12\xc4?+\xbf\xa2\t\x1fux?\xb6tE\x00\x93\x1el?\xc3\xf0\x02\xf4\xe7\xd9\x97?'
tbsS'pontoon_wall_thickness'
p75
g9
(g10
S'\xac\xb1\xb5o\xea\xdf\x94?'
tRp76
sS'number_of_offset_columns'
p77
I3
sS'radius_to_offset_column'
p78
g9
(g10
S'\xda\xd2\xee\xa2`\xc2J@'
tRp79
sS'tower_section_height'
p80
g3
(g4
(I0
tS'b'
tRp81
(I1
(I5
tg7
I00
S'\x00\x00\x00\x00\x00\x00$@\x00\x10\xaeG\xe1z\x84?\xc3\xf5(\\\x8fBJ@\xcc\xcc\xcc\xcc\xcc\x8cJ@\x00)\\\x8f\xc2\xf5\n@'
tbsS'main_buoyancy_tank_location'
p82
g9
(g10
S'A\xeaW\xf6\xe0\x9b\xf1>'
tRp83
sS'cm'
p84
F2
sS'main.waveLoads.mu'
p85
F0.00088999999999999995
sS'mooring_diameter'
p86
g9
(g10
S'\x01\xfa\xf2mg\xc6\xd1?'
tRp87
sS'gamma_m'
p88
F1.1000000000000001
sS'gamma_n'
p89
F1
sS'offset_section_height'
p90
g3
(g4
(I0
tS'b'
tRp91
(I1
(I5
tg22
I00
S'\xa3\x9f,C\xdd\xaf\xee?\xdfw\x8f\xa3\xea\xf4\xfb?\x0c\xe1\xfd\x8b\xae\xfb2@\xdb4z([0\xd8?c\x84,&\xf50\x17@'
tbsS'main_bulkhead_thickness'
p92
g3
(g4
(I0
tS'b'
tRp93
(I1
(I6
tg7
I00
S'\x9a\x99\x99\x99\x99\x99\xa9?\x9a\x99\x99\x99\x99\x99\xa9?\x00\x00\x00\x00\x00\x00\x00\x00\x00\x00\x00\x00\x00\x00\x00\x00\x00\x00\x00\x00\x00\x00\x00\x00\x9a\x99\x99\x99\x99\x99\xa9?'
tbsS'yaw'
p94
F0
sS'gamma_f'
p95
F1.3500000000000001
sS'offset_freeboard'
p96
g9
(g10
S'\x83<\x96L\xac\xdd+@'
tRp97
sS'gamma_b'
p98
F1.1000000000000001
sS'z_offset'
p99
F0
sS'ballast_cost_rate'
p100
F100
sS'number_of_mooring_connections'
p101
I3
sS'mooring_line_length'
p102
g9
(g10
S's\xf4)\x85\xb7\x96\xa6@'
tRp103
sS'outer_cross_pontoons_int'
p104
g9
(g10
S'\x00\x00\x00\x00\x00\x00\x00\x00'
tRp105
sS'water_depth'
p106
F320
sS'main_buoyancy_tank_diameter'
p107
g9
(g10
S'\xe7\xad\xc9.G\x03\x1e@'
tRp108
sS'column_mass_factor'
p109
F1.05
sS'operational_heel'
p110
F6
sS'offset_outer_diameter'
p111
g3
(g4
(I0
tS'b'
tRp112
(I1
(I6
tg22
I00
S'\xf2\x8fm`K\xd4\'@\x17oF\x96\xac\x85:@8\x84o\xa5\xa2n%@\xb5\xd3\xbc\xb9\xb4\x7f"@\xe5\n\x0edau\x1a@\x92g\x82\xb4\x15\xdc\x18@'
tbsS'yield_stress'
p113
F345000000
sS'main_wall_thickness'
p114
g3
(g4
(I0
tS'b'
tRp115
(I1
(I6
tg22
I00
S'!\xe9\x1e\x9bfT\xaa?\xde\x18\x8a\xc9?E\xaf?\x8f\xae\x86*\xd2Y\xae?\xd7Qx1\xef^\xa4?s\xf2\xb6p\x99\xb8\xa6?QG\xfa\x85\x9d\xb8\xad?'
tbsS'connection_ratio_max'
p116
F0.25
sS'ring_mass_factor'
p117
F1
sS'upper_ring_pontoons_int'
p118
g9
(g10
S'\x00\x00\x00\x00\x00\x00\x00\x00'
tRp119
sS'main_stiffener_web_thickness'
p120
g3
(g4
(I0
tS'b'
tRp121
(I1
(I5
tg22
I00
S'\x9f\x0cr\xe0\xa1\xe6\xb6?*\xd4/-_\xee\xdf?Q\xc4F\xdf\xe2\xe7\xc5?\x8a\xdf\x078\xd1q\xc1?\x7f\xcfIU\xd5s\xac?'
tbsS'lower_attachment_pontoons_int'
p122
g9
(g10
S'\x00\x00\x00\x00\x00\x00\xf0?'
tRp123
sS'water_density'
p124
F1025
sS'main_buoyancy_tank_height'
p125
g9
(g10
S'\t\xdb\x06\x00\xea-\xfe?'
tRp126
sS'cd_usr'
p127
Finf
sS'min_diameter_thickness_ratio'
p128
F120
sS'offset_wall_thickness'
p129
g3
(g4
(I0
tS'b'
tRp130
(I1
(I6
tg22
I00
S'h#i\xa2\xb7[\xb9?2\xf7o\x0b&\x97\xc9?\x83b2p+\xe2\xb4?\x0b1\xd4\xa0\xd7\xeb\x95?o\x07\xb4\x18\xc1N\xa6?O\xf8|\x81\x13Yq?'
tbsS'offset_buoyancy_tank_height'
p131
g9
(g10
S"\xc2\x8d\xb0\xcc\xd9'\x0b@"
tRp132
sS'main_section_height'
p133
g3
(g4
(I0
tS'b'
tRp134
(I1
(I5
tg22
I00
S"G\xbf\xae\xe7\xe6\xca'@D\xb2\xff\n\xae\xda\xf8?cTu\x12}a\x1b@/y\xc7\x9e\xcbi'@A\x004\x0e\x9b7'@"
tbsS'Uref'
p135
F11
sS'anchor_radius'
p136
g9
(g10
S'i\xa8\x1e<\xfc\xda\xa5@'
tRp137
sS'rna_cg'
p138
g3
(g4
(I0
tS'b'
tRp139
(I1
(I3
tg7
I00
S'\x1e\x01\x16\xd8\xe7Z\xe3\xbf\x00\x00\x00\x00\x00\x00\x00\x00\x0e\xb4L\xd0p$\x04@'
tbsS'pontoon_outer_diameter'
p140
g9
(g10
S'\xc4x\xc0\x0e\x83\xb4!@'
tRp141
sS'fairlead_support_wall_thickness'
p142
g9
(g10
S']\xb53\xfc\xa1\x1a\x93?'
tRp143
sS'fairlead_offset_from_shell'
p144
F6.0004865405187147
sS'tower_wall_thickness'
p145
g3
(g4
(I0
tS'b'
tRp146
(I1
(I6
tg7
I00
S'\xe0\xa3p=\n\xd7\xd3?@33333\xd3?\x00R\xb8\x1e\x85\xeb\xc1?@\\\x8f\xc2\xf5(\xbc?\x80\x1e\x85\xebQ\xb8\xae?\x80\x1e\x85\xebQ\xb8\xae?'
tbsS'mooring_cost_rate'
p147
F1.1000000000000001
sS'nu'
p148
F0.26000000000000001
sS'E'
F200000000000
sS'wave_period_range_low'
p149
F2
sS'main_pontoon_attach_lower'
p150
g9
(g10
S'".0\x94\xcf\x12\xba?'
tRp151
sS'offset_stiffener_flange_thickness'
p152
g3
(g4
(I0
tS'b'
tRp153
(I1
(I5
tg22
I00
S'cs&\x8e;p\xd3?\x18\x8a\xb2\xa6\xd5\xc4\xdf?\x97SH#\x84\x18\xcc?\xcd/\nr\xc5@\xc4?\x8fQ\xc9\x08\x89=\xc4?'
tbsS'main.windLoads.rho'
p154
F1.198
sS'beta'
p155
F0
sS'shearExp'
p156
F0.11
sS'mooring_lines_per_connection'
p157
g9
(g10
S'\x00\x00\x00\x00\x00\x00\x00@'
tRp158
sS'main_permanent_ballast_height'
p159
g9
(g10
S'\x9c\xe4\xb7zn\xaf\x11@'
tRp160
sS'offset_stiffener_flange_width'
p161
g3
(g4
(I0
tS'b'
tRp162
(I1
(I5
tg22
I00
S'\x18\xb1^\xf7\xb5\x1d\xe1?6\xbf\xa0 \xea\x95\xa8?\xbf\x88\xd9\xfd$\xd3\xd8?\x8e\t\xda;\x96\x8a\xc5?a\xd2\x15\x88jR\xed?'
tbsS'offset_stiffener_spacing'
p163
g3
(g4
(I0
tS'b'
tRp164
(I1
(I5
tg22
I00
S'H\xe8D\x9b\xe3\xd4\n@\x05\xde\xb1\x0e\xe0D>@\r\xb1\x06\x91:\xf6J@@\xd9\xe8F\xb3\x05*@CC\xc4P\x90\xd1.@'
tbsS'mooring_type'
p165
S'chain'
p166
sS'hub_height'
p167
F149
sS'upper_attachment_pontoons_int'
p168
g9
(g10
S'\x00\x00\x00\x00\x00\x00\x00\x00'
tRp169
sS'offset_stiffener_web_height'
p170
g3
(g4
(I0
tS'b'
tRp171
(I1
(I5
tg22
I00
S'E\xe8n\xd2\xf2,\xc7?\r8u\x9dWd\xda?\xb0oXS"$\xc1?\\\xfc\xd7\x8aK\x14\xb2?\x0bRK\xb9\x1c\x7f\xbc?'
tbsS'pontoon_cost_rate'
p172
F6.25
s(lp173
(lp174
S'fairlead_location'
p175
aF0
aF1
aa(lp176
S'fairlead_support_wall_thickness'
p177
aF0.001
aF1
aa(lp178
S'fairlead_support_outer_diameter'
p179
aF0.10000000000000001
aF10
aa(lp180
S'main_freeboard'
p181
aF0
aF50
aa(lp182
S'main_section_height'
p183
aF0.10000000000000001
aF50
aa(lp184
S'main_outer_diameter'
p185
aF2.1000000000000001
aF40
aa(lp186
S'main_wall_thickness'
p187
aF0.001
aF0.5
aa(lp188
S'main_buoyancy_tank_diameter'
p189
aF0
aF50
aa(lp190
S'main_buoyancy_tank_height'
p191
aF0
aF20
aa(lp192
S'main_buoyancy_tank_location'
p193
aF0
aF1
aa(lp194
S'offset_freeboard'
p195
aF2
aF15
aa(lp196
S'offset_section_height'
p197
aF0.10000000000000001
aF50
aa(lp198
S'offset_outer_diameter'
p199
aF1.1000000000000001
aF40
aa(lp200
S'offset_wall_thickness'
p201
aF0.001
aF0.5
aa(lp202
S'offset_buoyancy_tank_diameter'
p203
aF0
aF50
aa(lp204
S'offset_buoyancy_tank_height'
p205
aF0
aF20
aa(lp206
S'offset_buoyancy_tank_location'
p207
aF0
aF1
aa(lp208
S'pontoon_outer_diameter'
p209
aF1
aF10
aa(lp210
S'pontoon_wall_thickness'
p211
aF0.01
aF1
aa(lp212
S'main_pontoon_attach_lower'
p213
aF0
aF0.5
aa(lp214
S'main_pontoon_attach_upper'
p215
aF0.5
aF1
aa(lp216
S'mooring_line_length'
p217
aF200
aF3000
aa(lp218
S'anchor_radius'
p219
aF100
aF5000
aa(lp220
S'mooring_diameter'
p221
aF0.050000000000000003
aF2
aa(lp222
S'main_permanent_ballast_height'
p223
aF0.10000000000000001
aF50
aa(lp224
S'main_stiffener_web_height'
p225
aF0.01
aF1
aa(lp226
S'main_stiffener_web_thickness'
p227
aF0.001
aF0.5
aa(lp228
S'main_stiffener_flange_width'
p229
aF0.01
aF5
aa(lp230
S'main_stiffener_flange_thickness'
p231
aF0.001
aF0.5
aa(lp232
S'main_stiffener_spacing'
p233
aF0.10000000000000001
aF100
aa(lp234
S'offset_stiffener_web_height'
p235
aF0.01
aF1
aa(lp236
S'offset_stiffener_web_thickness'
p237
aF0.001
aF0.5
aa(lp238
S'offset_stiffener_flange_width'
p239
aF0.01
aF5
aa(lp240
S'offset_stiffener_flange_thickness'
p241
aF0.001
aF0.5
aa(lp242
S'offset_stiffener_spacing'
p243
aF0.10000000000000001
aF100
aa(lp244
S'offset_permanent_ballast_height'
p245
aF0.10000000000000001
aF50
aa(lp246
S'radius_to_offset_column'
p247
aF5
aF100
aa(lp248
(lp249
S'tow.height_constraint'
p250
aF-0.01
aF0.01
aNaa(lp251
S'main.draft'
p252
aF0
aF20
aNaa(lp253
S'off.draft'
p254
aF0
aF20
aNaa(lp255
S'main.draft_margin'
p256
aF0
aF1
aNaa(lp257
S'off.draft_margin'
p258
aF0
aF1
aNaa(lp259
S'main.wave_height_freeboard_ratio'
p260
aNaF1
aNaa(lp261
S'off.wave_height_freeboard_ratio'
p262
aNaF1
aNaa(lp263
S'main_offset_spacing'
p264
aF1
aNaNaa(lp265
S'main.manufacturability'
p266
aF0
aNaNaa(lp267
S'main.weldability'
p268
aNaF0
aNaa(lp269
S'off.manufacturability'
p270
aF0
aNaNaa(lp271
S'off.weldability'
p272
aNaF0
aNaa(lp273
S'tower_transition_buffer'
p274
aF-1
aF1
aNaa(lp275
S'nacelle_transition_buffer'
p276
aF0
aNaNaa(lp277
S'offset_freeboard_heel_margin'
p278
aF0
aNaNaa(lp279
S'offset_draft_heel_margin'
p280
aF0
aF20
aNaa(lp281
S'axial_unity'
p282
aF0
aF1
aNaa(lp283
S'mooring_length_max'
p284
aNaF1
aNaa(lp285
S'main.flange_spacing_ratio'
p286
aNaF1
aNaa(lp287
S'main.stiffener_radius_ratio'
p288
aNaF0.5
aNaa(lp289
S'main.flange_compactness'
p290
aF1
aNaNaa(lp291
S'main.web_compactness'
p292
aF1
aNaNaa(lp293
S'main.axial_local_api'
p294
aNaF1
aNaa(lp295
S'main.axial_general_api'
p296
aNaF1
aNaa(lp297
S'main.external_local_api'
p298
aNaF1
aNaa(lp299
S'main.external_general_api'
p300
aNaF1
aNaa(lp301
S'off.flange_spacing_ratio'
p302
aNaF1
aNaa(lp303
S'off.stiffener_radius_ratio'
p304
aNaF0.5
aNaa(lp305
S'off.flange_compactness'
p306
aF1
aNaNaa(lp307
S'off.web_compactness'
p308
aF1
aNaNaa(lp309
S'off.axial_local_api'
p310
aNaF1
aNaa(lp311
S'off.axial_general_api'
p312
aNaF1
aNaa(lp313
S'off.external_local_api'
p314
aNaF1
aNaa(lp315
S'off.external_general_api'
p316
aNaF1
aNaa(lp317
S'pontoon_stress'
p318
aNaF1
aNaa(lp319
S'tower_stress'
p320
aNaF1
aNaa(lp321
S'tower_shell_buckling'
p322
aNaF1
aNaa(lp323
S'tower_global_buckling'
p324
aNaF1
aNaa(lp325
S'main_stress'
p326
aNaF1
aNaa(lp327
S'main_shell_buckling'
p328
aNaF1
aNaa(lp329
S'main_global_buckling'
p330
aNaF1
aNaa(lp331
S'offset_stress'
p332
aNaF1
aNaa(lp333
S'offset_shell_buckling'
p334
aNaF1
aNaa(lp335
S'offset_global_buckling'
p336
aNaF1
aNaa(lp337
S'variable_ballast_height_ratio'
p338
aF0
aF1
aNaa(lp339
S'variable_ballast_mass'
p340
aF0
aNaNaa(lp341
S'metacentric_height'
p342
aF0.10000000000000001
aNaNaa(lp343
S'offset_force_ratio'
p344
aNaF1
aNaa(lp345
S'heel_moment_ratio'
p346
aNaF1
aNaa(lp347
S'period_margin_low'
p348
aNaF1
aNaa(lp349
S'period_margin_high'
p350
aF1
aNaNaa(S'structural_mass'
p351
F9.9999999999999995e-07
tp352
S'NM'
p353
t.