((dp1
S'rna_moment'
p2
cnumpy.core.multiarray
_reconstruct
p3
(cnumpy
ndarray
p4
(I0
tS'b'
tRp5
(I1
(I3
tcnumpy
dtype
p6
(S'f8'
I0
I1
tRp7
(I3
S'<'
NNNI-1
I-1
I0
tbI00
S'\xec*\xda\xf3O\xe7{A\xf8\xedw\x9a\x0e\xff\rA\xf1\x80S\xcaVvG\xc1'
tbsS'offset_permanent_ballast_height'
p8
cnumpy.core.multiarray
scalar
p9
(g6
(S'f8'
I0
I1
tRp10
(I3
S'<'
NNNI-1
I-1
I0
tbS'|\xbe+\x0c\xce}\xd4?'
tRp11
sS'rna_force'
p12
g3
(g4
(I0
tS'b'
tRp13
(I1
(I3
tg7
I00
S'\xcd\xcc\xccLc\x1e@A\x00\x00\x00\x00\x00\x00\x00\x00\xc3\xf5(\xec!\xffY\xc1'
tbsS'gamma_fatigue'
p14
F1.7549999999999999
sS'loading'
p15
S'hydrostatic'
p16
sS'lower_ring_pontoons_int'
p17
g9
(g10
S'\x00\x00\x00\x00\x00\x00\x00\x00'
tRp18
sS'tapered_col_cost_rate'
p19
F4720
sS'main_stiffener_web_height'
p20
g3
(g4
(I0
tS'b'
tRp21
(I1
(I5
tg6
(S'f8'
I0
I1
tRp22
(I3
S'<'
NNNI-1
I-1
I0
tbI00
S'\xc0b\xc3\xf5Z\x8b\xdd?bs\xdb\xbcK\xff\xef?\x08\x8f?+4E\xd1?]\xf9g\xd2\x07a\xe3?\x86\xcc\xf5F\x07s\x86?'
tbsS'zref'
p23
F119
sS'outfitting_cost_rate'
p24
F6980
sS'offset_buoyancy_tank_location'
p25
g9
(g10
S'\x9a\x8d*\xe8\xd3\xae\xa4?'
tRp26
sS'main_stiffener_flange_width'
p27
g3
(g4
(I0
tS'b'
tRp28
(I1
(I5
tg22
I00
S'\x1c\x883w\x97\xea\xb0?FIS\xc9\x15\x01\xd7?R\xd4\x0f\x8a\xe1g\xff?\xd1-s:o(\xf0?a\xa3\x87]M\xda\xde?'
tbsS'max_taper_ratio'
p29
F0.40000000000000002
sS'tower_outfitting_factor'
p30
F1.0700000000000001
sS'max_draft'
p31
F20
sS'T'
F9.8000000000000007
sS'bulkhead_mass_factor'
p32
F1
sS'wave_period_range_high'
p33
F20
sS'cross_attachment_pontoons_int'
p34
g9
(g10
S'\x00\x00\x00\x00\x00\x00\x00\x00'
tRp35
sS'outfitting_mass_fraction'
p36
F0.059999999999999998
sS'offset_buoyancy_tank_diameter'
p37
g9
(g10
S";\xe9q\xd8l'%@"
tRp38
sS'main_outer_diameter'
p39
g3
(g4
(I0
tS'b'
tRp40
(I1
(I6
tg22
I00
S'\xdb<W$\xbc49@\x9d\x8bD7G\x93(@\x7f\xfc\xe5\x85lI\x1d@\t\xb3\xa0pK\xcc$@{m\xb9\xa6\xd1\xcb!@\xa1!"|\xdf\xb2#@'
tbsS'rna_I'
p41
g3
(g4
(I0
tS'b'
tRp42
(I1
(I6
tg7
I00
S'\x00\x00\x00.b\xf5\xa3A\x00\x00\x00\x08)"\x99A\x00\x00\x00\xf0\x10Q\x94A\x00\x00\x00\x00\x00\x00\x00\x00\xa4p=\n\x98x7A\x00\x00\x00\x00\x00\x00\x00\x00'
tbsS'main.windLoads.mu'
p43
F1.8099999999999999e-05
sS'fairlead_support_outer_diameter'
p44
g9
(g10
S'\xea\x02\x13?\xf8\xff#@'
tRp45
sS'offset_bulkhead_thickness'
p46
g3
(g4
(I0
tS'b'
tRp47
(I1
(I6
tg7
I00
S'\x9a\x99\x99\x99\x99\x99\xa9?\x9a\x99\x99\x99\x99\x99\xa9?\x00\x00\x00\x00\x00\x00\x00\x00\x00\x00\x00\x00\x00\x00\x00\x00\x00\x00\x00\x00\x00\x00\x00\x00\x9a\x99\x99\x99\x99\x99\xa9?'
tbsS'mooring_max_offset'
p48
F100
sS'shell_mass_factor'
p49
F1
sS'main_pontoon_attach_upper'
p50
g9
(g10
S'\x15\x87V\x1b\xad\xb3\xed?'
tRp51
sS'rna_mass'
p52
F627696.90530069917
sS'tower_buckling_length'
p53
F30
sS'Hs'
p54
F10.800000000000001
sS'main_freeboard'
p55
g9
(g10
S'\xfc\x05jMx\x00>@'
tRp56
sS'Rhub'
p57
F2.2999999999999998
sS'material_density'
p58
F7850
sS'main_stiffener_spacing'
p59
g3
(g4
(I0
tS'b'
tRp60
(I1
(I5
tg22
I00
S'\x89\xc5\xbdm\x983%@\xefv7\x93H\x94"@\xe16c\xe0\xddP-@\x8d\x1etm\xe4\xc90@\xf8\xbf\xfcL\xac\xad:@'
tbsS'tower_outer_diameter'
p61
g3
(g4
(I0
tS'b'
tRp62
(I1
(I6
tg7
I00
S'\x00\x00\x00\x00\x00\x00"@\x00\x00\x00\x00\x00\x00"@\x9a\x99\x99\x99\x99\x99 @\xa4p=\n\xd7\xa3\x1b@\x00\x00\x00\x00\x00\x00\x16@\x00\x00\x00\x00\x00\x00\x16@'
tbsS'anchor_type'
p63
S'suctionpile'
p64
sS'G'
F79300000000
sS'fairlead_location'
p65
g9
(g10
S'48?\xab\xf0\x8e\xcb?'
tRp66
sS'max_offset'
p67
F100
sS'max_survival_heel'
p68
F15
sS'main_stiffener_flange_thickness'
p69
g3
(g4
(I0
tS'b'
tRp70
(I1
(I5
tg22
I00
S'7\x8f\xfa\xeb\xfe\xdc\xb1?\xb7\x10/u\xe2\x15\xd7?\x84b\xc3s\x1d\xee\xc1?\xc7uo\x19h\xdd\xdf?(\xf2\xc5\xd1X\x99\xc8?'
tbsS'permanent_ballast_density'
p71
F4492
sS'z0'
p72
F0
sS'Uc'
p73
F0
sS'offset_stiffener_web_thickness'
p74
g3
(g4
(I0
tS'b'
tRp75
(I1
(I5
tg22
I00
S"R\xfc\xa05I\x8f\xdf?c0~Y\x0b\x15\xc4?\xb4!\xbcm\xd2ix?C\x97\x0bJ'/l?H\xa6\xd1\xb4\xb0\xdc\x97?"
tbsS'pontoon_wall_thickness'
p76
g9
(g10
S'\x9e\xb6Xy\x14\x16\x95?'
tRp77
sS'number_of_offset_columns'
p78
I3
sS'radius_to_offset_column'
p79
g9
(g10
S'\xeb(a\x04\xd0\xdfJ@'
tRp80
sS'tower_section_height'
p81
g3
(g4
(I0
tS'b'
tRp82
(I1
(I5
tg7
I00
S'\x00\x00\x00\x00\x00\x00$@\x00\x10\xaeG\xe1z\x84?\xc3\xf5(\\\x8fBJ@\xcc\xcc\xcc\xcc\xcc\x8cJ@\x00)\\\x8f\xc2\xf5\n@'
tbsS'main_buoyancy_tank_location'
p83
g9
(g10
S'2\x9f^h\xca\x96\xf1>'
tRp84
sS'cm'
p85
F2
sS'main.waveLoads.mu'
p86
F0.00088999999999999995
sS'mooring_diameter'
p87
g9
(g10
S'\x85\xa6\xb9\xc9\xca\xc2\xd1?'
tRp88
sS'gamma_m'
p89
F1.1000000000000001
sS'gamma_n'
p90
F1
sS'offset_section_height'
p91
g3
(g4
(I0
tS'b'
tRp92
(I1
(I5
tg22
I00
S'\xa7f\xc3\x91P\xb7\xee?2\xafd\xc6\xae\xfe\xfb?\x80^\xe4\xce\xfd\xfe2@S\xc1403\x12\xd8?\x82v\xaf\xd0\xdf<\x17@'
tbsS'main_bulkhead_thickness'
p93
g3
(g4
(I0
tS'b'
tRp94
(I1
(I6
tg7
I00
S'\x9a\x99\x99\x99\x99\x99\xa9?\x9a\x99\x99\x99\x99\x99\xa9?\x00\x00\x00\x00\x00\x00\x00\x00\x00\x00\x00\x00\x00\x00\x00\x00\x00\x00\x00\x00\x00\x00\x00\x00\x9a\x99\x99\x99\x99\x99\xa9?'
tbsS'yaw'
p95
F0
sS'gamma_f'
p96
F1.3500000000000001
sS'offset_freeboard'
p97
g9
(g10
S'\x82\xc8\xd0\xbc\xfa\xdf+@'
tRp98
sS'gamma_b'
p99
F1.1000000000000001
sS'z_offset'
p100
F0
sS'ballast_cost_rate'
p101
F100
sS'number_of_mooring_connections'
p102
I3
sS'mooring_line_length'
p103
g9
(g10
S'S\xee\xa27E\x97\xa6@'
tRp104
sS'outer_cross_pontoons_int'
p105
g9
(g10
S'\x00\x00\x00\x00\x00\x00\x00\x00'
tRp106
sS'water_depth'
p107
F320
sS'main_buoyancy_tank_diameter'
p108
g9
(g10
S'\xd6._\xf0\xf4\x1f\x1e@'
tRp109
sS'column_mass_factor'
p110
F1.05
sS'operational_heel'
p111
F6
sS'offset_outer_diameter'
p112
g3
(g4
(I0
tS'b'
tRp113
(I1
(I6
tg22
I00
S'\x08J\x1f\x11\xda\xcf\'@\xfayT"t\x81:@\x1a#\t\x1d\x1es%@\x1dC\xf0!V\x84"@/\x0fe>F\x91\x1a@\xd1&\xbd^\xc6\xe5\x18@'
tbsS'yield_stress'
p114
F345000000
sS'main_wall_thickness'
p115
g3
(g4
(I0
tS'b'
tRp116
(I1
(I6
tg22
I00
S'E\xef\xff\r\x87m\xaa?\xf7\x8c\xc6I\xd9G\xaf?@\xaaC0\xf3<\xae?\xcb\x08\x95\xcatV\xa4?\xe1\xfa\x81\xab\x00\xe0\xa6?\xa0\xaf\x8e3%\xdd\xad?'
tbsS'connection_ratio_max'
p117
F0.25
sS'ring_mass_factor'
p118
F1
sS'upper_ring_pontoons_int'
p119
g9
(g10
S'\x00\x00\x00\x00\x00\x00\x00\x00'
tRp120
sS'main_stiffener_web_thickness'
p121
g3
(g4
(I0
tS'b'
tRp122
(I1
(I5
tg22
I00
S'\xe8\xbf\xea\xf8s\xeb\xb6?\xaf\xe5]\x03\x0e\xf2\xdf?!\xabN\xd0.\x17\xc6?T\xd3K\xd6Q}\xc1?\x9d\xacM%(T\xac?'
tbsS'lower_attachment_pontoons_int'
p123
g9
(g10
S'\x00\x00\x00\x00\x00\x00\xf0?'
tRp124
sS'water_density'
p125
F1025
sS'main_buoyancy_tank_height'
p126
g9
(g10
S'\xc9\x0f\n\xf8\x97\xea\xfd?'
tRp127
sS'cd_usr'
p128
Finf
sS'min_diameter_thickness_ratio'
p129
F120
sS'offset_wall_thickness'
p130
g3
(g4
(I0
tS'b'
tRp131
(I1
(I6
tg22
I00
S'\xfd4\xb5pDd\xb9?\x17PUzlZ\xc9?\x90\xfbl<\xe5\x14\xb4?~\xd0e+n\n\x96?\x1d\xd9B\xe2\xb1k\xa6?\xea=\x9f<\x99\x16q?'
tbsS'offset_buoyancy_tank_height'
p132
g9
(g10
S'\x85Q[\xd08$\x0b@'
tRp133
sS'main_section_height'
p134
g3
(g4
(I0
tS'b'
tRp135
(I1
(I5
tg22
I00
S"n\x02\x04\x96\xcd\xa1'@Q\x0e\xfdyb\xef\xf8?8\x82\xb8\xe4\x92Y\x1b@m\xec\xcdi\xc6m'@\xf7X\x98b\xa44'@"
tbsS'Uref'
p136
F11
sS'anchor_radius'
p137
g9
(g10
S'3\xe4-\x18\xc4\xd9\xa5@'
tRp138
sS'rna_cg'
p139
g3
(g4
(I0
tS'b'
tRp140
(I1
(I3
tg7
I00
S'\x1e\x01\x16\xd8\xe7Z\xe3\xbf\x00\x00\x00\x00\x00\x00\x00\x00\x0e\xb4L\xd0p$\x04@'
tbsS'pontoon_outer_diameter'
p141
g9
(g10
S'[\xba\x11Kz\xbb!@'
tRp142
sS'fairlead_support_wall_thickness'
p143
g9
(g10
S'\xf3\xbe\xe6)\xe3+\x93?'
tRp144
sS'fairlead_offset_from_shell'
p145
F6.0004865405187147
sS'tower_wall_thickness'
p146
g3
(g4
(I0
tS'b'
tRp147
(I1
(I6
tg7
I00
S'\xe0\xa3p=\n\xd7\xd3?@33333\xd3?\x00R\xb8\x1e\x85\xeb\xc1?@\\\x8f\xc2\xf5(\xbc?\x80\x1e\x85\xebQ\xb8\xae?\x80\x1e\x85\xebQ\xb8\xae?'
tbsS'mooring_cost_rate'
p148
F1.1000000000000001
sS'nu'
p149
F0.26000000000000001
sS'E'
F200000000000
sS'wave_period_range_low'
p150
F2
sS'main_pontoon_attach_lower'
p151
g9
(g10
S'\x13\xec\xa5\x0f\xf6G\xba?'
tRp152
sS'offset_stiffener_flange_thickness'
p153
g3
(g4
(I0
tS'b'
tRp154
(I1
(I5
tg22
I00
S'[]\x08nBH\xd3?vGN\x80\xe4\xbb\xdf?\xc2\x06\x0c\x85\xb8\x18\xcc?+%\xd8\xe4\x10C\xc4?)/\xa9\x9e\xe0\x07\xc4?'
tbsS'main.windLoads.rho'
p155
F1.198
sS'beta'
p156
F0
sS'shearExp'
p157
F0.11
sS'mooring_lines_per_connection'
p158
g9
(g10
S'\x00\x00\x00\x00\x00\x00\x00@'
tRp159
sS'main_permanent_ballast_height'
p160
g9
(g10
S'\xc5\x97@\xc0_\xd0\x11@'
tRp161
sS'offset_stiffener_flange_width'
p162
g3
(g4
(I0
tS'b'
tRp163
(I1
(I5
tg22
I00
S"\xed\xc13\x13'\x19\xe1?&\xb1-\xe1\xe7\x97\xa8?\xbf\\\xb7\xb5X\x05\xd9?\xa2\xd1\x0cQT\x83\xc5?/C\xf1 \xc6A\xed?"
tbsS'offset_stiffener_spacing'
p164
g3
(g4
(I0
tS'b'
tRp165
(I1
(I5
tg22
I00
S'\r6F\xd6\xf6\xea\n@\xdb0\x9e(\xa7S>@\xae*\r\x19\x01\tK@\x94sw\x7f\xe2\x18*@\t\x1c\x00\xbaX\x00/@'
tbsS'mooring_type'
p166
S'chain'
p167
sS'hub_height'
p168
F149
sS'upper_attachment_pontoons_int'
p169
g9
(g10
S'\x00\x00\x00\x00\x00\x00\x00\x00'
tRp170
sS'offset_stiffener_web_height'
p171
g3
(g4
(I0
tS'b'
tRp172
(I1
(I5
tg22
I00
S'\x86\x16\x91\x14\xcb\x10\xc7?5\xcd6\x08\xe5B\xda?n\x19 \x9d\xae\x08\xc1?6\x1e\xca,\xe8\xfd\xb1?\xd6lx\xf0dT\xbc?'
tbsS'pontoon_cost_rate'
p173
F6.25
s(lp174
(lp175
S'fairlead_location'
p176
aF0
aF1
aa(lp177
S'fairlead_support_wall_thickness'
p178
aF0.001
aF1
aa(lp179
S'fairlead_support_outer_diameter'
p180
aF0.10000000000000001
aF10
aa(lp181
S'main_freeboard'
p182
aF0
aF50
aa(lp183
S'main_section_height'
p184
aF0.10000000000000001
aF50
aa(lp185
S'main_outer_diameter'
p186
aF2.1000000000000001
aF40
aa(lp187
S'main_wall_thickness'
p188
aF0.001
aF0.5
aa(lp189
S'main_buoyancy_tank_diameter'
p190
aF0
aF50
aa(lp191
S'main_buoyancy_tank_height'
p192
aF0
aF20
aa(lp193
S'main_buoyancy_tank_location'
p194
aF0
aF1
aa(lp195
S'offset_freeboard'
p196
aF2
aF15
aa(lp197
S'offset_section_height'
p198
aF0.10000000000000001
aF50
aa(lp199
S'offset_outer_diameter'
p200
aF1.1000000000000001
aF40
aa(lp201
S'offset_wall_thickness'
p202
aF0.001
aF0.5
aa(lp203
S'offset_buoyancy_tank_diameter'
p204
aF0
aF50
aa(lp205
S'offset_buoyancy_tank_height'
p206
aF0
aF20
aa(lp207
S'offset_buoyancy_tank_location'
p208
aF0
aF1
aa(lp209
S'pontoon_outer_diameter'
p210
aF1
aF10
aa(lp211
S'pontoon_wall_thickness'
p212
aF0.01
aF1
aa(lp213
S'main_pontoon_attach_lower'
p214
aF0
aF0.5
aa(lp215
S'main_pontoon_attach_upper'
p216
aF0.5
aF1
aa(lp217
S'mooring_line_length'
p218
aF200
aF3000
aa(lp219
S'anchor_radius'
p220
aF100
aF5000
aa(lp221
S'mooring_diameter'
p222
aF0.050000000000000003
aF2
aa(lp223
S'main_permanent_ballast_height'
p224
aF0.10000000000000001
aF50
aa(lp225
S'main_stiffener_web_height'
p226
aF0.01
aF1
aa(lp227
S'main_stiffener_web_thickness'
p228
aF0.001
aF0.5
aa(lp229
S'main_stiffener_flange_width'
p230
aF0.01
aF5
aa(lp231
S'main_stiffener_flange_thickness'
p232
aF0.001
aF0.5
aa(lp233
S'main_stiffener_spacing'
p234
aF0.10000000000000001
aF100
aa(lp235
S'offset_stiffener_web_height'
p236
aF0.01
aF1
aa(lp237
S'offset_stiffener_web_thickness'
p238
aF0.001
aF0.5
aa(lp239
S'offset_stiffener_flange_width'
p240
aF0.01
aF5
aa(lp241
S'offset_stiffener_flange_thickness'
p242
aF0.001
aF0.5
aa(lp243
S'offset_stiffener_spacing'
p244
aF0.10000000000000001
aF100
aa(lp245
S'offset_permanent_ballast_height'
p246
aF0.10000000000000001
aF50
aa(lp247
S'radius_to_offset_column'
p248
aF5
aF100
aa(lp249
(lp250
S'tow.height_constraint'
p251
aF-0.01
aF0.01
aNaa(lp252
S'main.draft'
p253
aF0
aF20
aNaa(lp254
S'off.draft'
p255
aF0
aF20
aNaa(lp256
S'main.draft_margin'
p257
aF0
aF1
aNaa(lp258
S'off.draft_margin'
p259
aF0
aF1
aNaa(lp260
S'main.wave_height_freeboard_ratio'
p261
aNaF1
aNaa(lp262
S'off.wave_height_freeboard_ratio'
p263
aNaF1
aNaa(lp264
S'main_offset_spacing'
p265
aF1
aNaNaa(lp266
S'main.manufacturability'
p267
aF0
aNaNaa(lp268
S'main.weldability'
p269
aNaF0
aNaa(lp270
S'off.manufacturability'
p271
aF0
aNaNaa(lp272
S'off.weldability'
p273
aNaF0
aNaa(lp274
S'tower_transition_buffer'
p275
aF-1
aF1
aNaa(lp276
S'nacelle_transition_buffer'
p277
aF0
aNaNaa(lp278
S'offset_freeboard_heel_margin'
p279
aF0
aNaNaa(lp280
S'offset_draft_heel_margin'
p281
aF0
aF20
aNaa(lp282
S'axial_unity'
p283
aF0
aF1
aNaa(lp284
S'mooring_length_max'
p285
aNaF1
aNaa(lp286
S'main.flange_spacing_ratio'
p287
aNaF1
aNaa(lp288
S'main.stiffener_radius_ratio'
p289
aNaF0.5
aNaa(lp290
S'main.flange_compactness'
p291
aF1
aNaNaa(lp292
S'main.web_compactness'
p293
aF1
aNaNaa(lp294
S'main.axial_local_api'
p295
aNaF1
aNaa(lp296
S'main.axial_general_api'
p297
aNaF1
aNaa(lp298
S'main.external_local_api'
p299
aNaF1
aNaa(lp300
S'main.external_general_api'
p301
aNaF1
aNaa(lp302
S'off.flange_spacing_ratio'
p303
aNaF1
aNaa(lp304
S'off.stiffener_radius_ratio'
p305
aNaF0.5
aNaa(lp306
S'off.flange_compactness'
p307
aF1
aNaNaa(lp308
S'off.web_compactness'
p309
aF1
aNaNaa(lp310
S'off.axial_local_api'
p311
aNaF1
aNaa(lp312
S'off.axial_general_api'
p313
aNaF1
aNaa(lp314
S'off.external_local_api'
p315
aNaF1
aNaa(lp316
S'off.external_general_api'
p317
aNaF1
aNaa(lp318
S'pontoon_stress'
p319
aNaF1
aNaa(lp320
S'tower_stress'
p321
aNaF1
aNaa(lp322
S'tower_shell_buckling'
p323
aNaF1
aNaa(lp324
S'tower_global_buckling'
p325
aNaF1
aNaa(lp326
S'main_stress'
p327
aNaF1
aNaa(lp328
S'main_shell_buckling'
p329
aNaF1
aNaa(lp330
S'main_global_buckling'
p331
aNaF1
aNaa(lp332
S'offset_stress'
p333
aNaF1
aNaa(lp334
S'offset_shell_buckling'
p335
aNaF1
aNaa(lp336
S'offset_global_buckling'
p337
aNaF1
aNaa(lp338
S'variable_ballast_height_ratio'
p339
aF0
aF1
aNaa(lp340
S'variable_ballast_mass'
p341
aF0
aNaNaa(lp342
S'metacentric_height'
p343
aF0.10000000000000001
aNaNaa(lp344
S'offset_force_ratio'
p345
aNaF1
aNaa(lp346
S'heel_moment_ratio'
p347
aNaF1
aNaa(lp348
S'period_margin_low'
p349
aNaF1
aNaa(lp350
S'period_margin_high'
p351
aF1
aNaNaa(S'structural_mass'
p352
F9.9999999999999995e-07
tp353
S'NM'
p354
t.