((dp1
S'rna_moment'
p2
cnumpy.core.multiarray
_reconstruct
p3
(cnumpy
ndarray
p4
(I0
tS'b'
tRp5
(I1
(I3
tcnumpy
dtype
p6
(S'f8'
I0
I1
tRp7
(I3
S'<'
NNNI-1
I-1
I0
tbI00
S'\xec*\xda\xf3O\xe7{A\xf8\xedw\x9a\x0e\xff\rA\xf1\x80S\xcaVvG\xc1'
tbsS'base.windLoads.rho'
p8
F1.198
sS'auxiliary_section_height'
p9
g3
(g4
(I0
tS'b'
tRp10
(I1
(I5
tg6
(S'f8'
I0
I1
tRp11
(I3
S'<'
NNNI-1
I-1
I0
tbI00
S'\xa7f\xc3\x91P\xb7\xee?2\xafd\xc6\xae\xfe\xfb?\x80^\xe4\xce\xfd\xfe2@S\xc1403\x12\xd8?\x82v\xaf\xd0\xdf<\x17@'
tbsS'rna_force'
p12
g3
(g4
(I0
tS'b'
tRp13
(I1
(I3
tg7
I00
S'\xcd\xcc\xccLc\x1e@A\x00\x00\x00\x00\x00\x00\x00\x00\xc3\xf5(\xec!\xffY\xc1'
tbsS'auxiliary_permanent_ballast_height'
p14
cnumpy.core.multiarray
scalar
p15
(g6
(S'f8'
I0
I1
tRp16
(I3
S'<'
NNNI-1
I-1
I0
tbS'|\xbe+\x0c\xce}\xd4?'
tRp17
sS'auxiliary_stiffener_flange_thickness'
p18
g3
(g4
(I0
tS'b'
tRp19
(I1
(I5
tg11
I00
S'[]\x08nBH\xd3?vGN\x80\xe4\xbb\xdf?\xc2\x06\x0c\x85\xb8\x18\xcc?+%\xd8\xe4\x10C\xc4?)/\xa9\x9e\xe0\x07\xc4?'
tbsS'gamma_fatigue'
p20
F1.7549999999999999
sS'loading'
p21
S'hydrostatic'
p22
sS'lower_ring_pontoons_int'
p23
g15
(g16
S'\x00\x00\x00\x00\x00\x00\x00\x00'
tRp24
sS'tapered_col_cost_rate'
p25
F4720
sS'base_pontoon_attach_lower'
p26
g15
(g16
S'\x13\xec\xa5\x0f\xf6G\xba?'
tRp27
sS'zref'
p28
F119
sS'outfitting_cost_rate'
p29
F6980
sS'base.windLoads.mu'
p30
F1.8099999999999999e-05
sS'auxiliary_outer_diameter'
p31
g3
(g4
(I0
tS'b'
tRp32
(I1
(I6
tg11
I00
S'\x08J\x1f\x11\xda\xcf\'@\xfayT"t\x81:@\x1a#\t\x1d\x1es%@\x1dC\xf0!V\x84"@/\x0fe>F\x91\x1a@\xd1&\xbd^\xc6\xe5\x18@'
tbsS'max_taper_ratio'
p33
F0.40000000000000002
sS'fairlead_support_wall_thickness'
p34
g15
(g16
S'\xf3\xbe\xe6)\xe3+\x93?'
tRp35
sS'T'
F9.8000000000000007
sS'bulkhead_mass_factor'
p36
F1
sS'base_ballast_heave_box_diameter'
p37
g15
(g16
S'\xd6._\xf0\xf4\x1f\x1e@'
tRp38
sS'wave_period_range_high'
p39
F20
sS'cross_attachment_pontoons_int'
p40
g15
(g16
S'\x00\x00\x00\x00\x00\x00\x00\x00'
tRp41
sS'outfitting_mass_fraction'
p42
F0.059999999999999998
sS'auxiliary_stiffener_flange_width'
p43
g3
(g4
(I0
tS'b'
tRp44
(I1
(I5
tg11
I00
S"\xed\xc13\x13'\x19\xe1?&\xb1-\xe1\xe7\x97\xa8?\xbf\\\xb7\xb5X\x05\xd9?\xa2\xd1\x0cQT\x83\xc5?/C\xf1 \xc6A\xed?"
tbsS'rna_I'
p45
g3
(g4
(I0
tS'b'
tRp46
(I1
(I6
tg7
I00
S'\x00\x00\x00.b\xf5\xa3A\x00\x00\x00\x08)"\x99A\x00\x00\x00\xf0\x10Q\x94A\x00\x00\x00\x00\x00\x00\x00\x00\xa4p=\n\x98x7A\x00\x00\x00\x00\x00\x00\x00\x00'
tbsS'base_stiffener_web_thickness'
p47
g3
(g4
(I0
tS'b'
tRp48
(I1
(I5
tg11
I00
S'\xe8\xbf\xea\xf8s\xeb\xb6?\xaf\xe5]\x03\x0e\xf2\xdf?!\xabN\xd0.\x17\xc6?T\xd3K\xd6Q}\xc1?\x9d\xacM%(T\xac?'
tbsS'fairlead_support_outer_diameter'
p49
g15
(g16
S'\xea\x02\x13?\xf8\xff#@'
tRp50
sS'mooring_max_offset'
p51
F100
sS'auxiliary_bulkhead_thickness'
p52
g3
(g4
(I0
tS'b'
tRp53
(I1
(I6
tg7
I00
S'\x9a\x99\x99\x99\x99\x99\xa9?\x9a\x99\x99\x99\x99\x99\xa9?\x00\x00\x00\x00\x00\x00\x00\x00\x00\x00\x00\x00\x00\x00\x00\x00\x00\x00\x00\x00\x00\x00\x00\x00\x9a\x99\x99\x99\x99\x99\xa9?'
tbsS'mooring_operational_heel'
p54
F6
sS'shell_mass_factor'
p55
F1
sS'rna_mass'
p56
F627696.90530069917
sS'tower_buckling_length'
p57
F30
sS'Hs'
p58
F10.800000000000001
sS'tower_outfitting_factor'
p59
F1.0700000000000001
sS'tower_outer_diameter'
p60
g3
(g4
(I0
tS'b'
tRp61
(I1
(I6
tg7
I00
S'\x00\x00\x00\x00\x00\x00"@\x00\x00\x00\x00\x00\x00"@\x9a\x99\x99\x99\x99\x99 @\xa4p=\n\xd7\xa3\x1b@\x00\x00\x00\x00\x00\x00\x16@\x00\x00\x00\x00\x00\x00\x16@'
tbsS'anchor_type'
p62
S'suctionpile'
p63
sS'G'
F79300000000
sS'radius_to_auxiliary_column'
p64
g15
(g16
S'\xeb(a\x04\xd0\xdfJ@'
tRp65
sS'base_bulkhead_thickness'
p66
g3
(g4
(I0
tS'b'
tRp67
(I1
(I6
tg7
I00
S'\x9a\x99\x99\x99\x99\x99\xa9?\x9a\x99\x99\x99\x99\x99\xa9?\x00\x00\x00\x00\x00\x00\x00\x00\x00\x00\x00\x00\x00\x00\x00\x00\x00\x00\x00\x00\x00\x00\x00\x00\x9a\x99\x99\x99\x99\x99\xa9?'
tbsS'permanent_ballast_density'
p68
F4492
sS'z0'
p69
F0
sS'Uc'
p70
F0
sS'base_stiffener_flange_width'
p71
g3
(g4
(I0
tS'b'
tRp72
(I1
(I5
tg11
I00
S'\x1c\x883w\x97\xea\xb0?FIS\xc9\x15\x01\xd7?R\xd4\x0f\x8a\xe1g\xff?\xd1-s:o(\xf0?a\xa3\x87]M\xda\xde?'
tbsS'base_outer_diameter'
p73
g3
(g4
(I0
tS'b'
tRp74
(I1
(I6
tg11
I00
S'\xdb<W$\xbc49@\x9d\x8bD7G\x93(@\x7f\xfc\xe5\x85lI\x1d@\t\xb3\xa0pK\xcc$@{m\xb9\xa6\xd1\xcb!@\xa1!"|\xdf\xb2#@'
tbsS'pontoon_wall_thickness'
p75
g15
(g16
S'\x9e\xb6Xy\x14\x16\x95?'
tRp76
sS'auxiliary_ballast_heave_box_location'
p77
g15
(g16
S'\x9a\x8d*\xe8\xd3\xae\xa4?'
tRp78
sS'fairlead'
p79
g15
(g16
S'\xb1\xfc\xb9\x04\x86\xcb\x1f@'
tRp80
sS'tower_section_height'
p81
g3
(g4
(I0
tS'b'
tRp82
(I1
(I5
tg7
I00
S'\x00\x00\x00\x00\x00\x00$@\x00\x10\xaeG\xe1z\x84?\xc3\xf5(\\\x8fBJ@\xcc\xcc\xcc\xcc\xcc\x8cJ@\x00)\\\x8f\xc2\xf5\n@'
tbsS'cm'
p83
F2
sS'auxiliary_stiffener_web_thickness'
p84
g3
(g4
(I0
tS'b'
tRp85
(I1
(I5
tg11
I00
S"R\xfc\xa05I\x8f\xdf?c0~Y\x0b\x15\xc4?\xb4!\xbcm\xd2ix?C\x97\x0bJ'/l?H\xa6\xd1\xb4\xb0\xdc\x97?"
tbsS'base_ballast_heave_box_location'
p86
g15
(g16
S'2\x9f^h\xca\x96\xf1>'
tRp87
sS'auxiliary_ballast_heave_box_height'
p88
g15
(g16
S'\x85Q[\xd08$\x0b@'
tRp89
sS'mooring_diameter'
p90
g15
(g16
S'\x85\xa6\xb9\xc9\xca\xc2\xd1?'
tRp91
sS'gamma_m'
p92
F1.1000000000000001
sS'gamma_n'
p93
F1
sS'auxiliary_freeboard'
p94
g15
(g16
S'\x82\xc8\xd0\xbc\xfa\xdf+@'
tRp95
sS'yaw'
p96
F0
sS'gamma_f'
p97
F1.3500000000000001
sS'auxiliary_ballast_heave_box_diameter'
p98
g15
(g16
S";\xe9q\xd8l'%@"
tRp99
sS'gamma_b'
p100
F1.1000000000000001
sS'base_freeboard'
p101
g15
(g16
S'\xfc\x05jMx\x00>@'
tRp102
sS'z_offset'
p103
F0
sS'ballast_cost_rate'
p104
F100
sS'auxiliary_wall_thickness'
p105
g3
(g4
(I0
tS'b'
tRp106
(I1
(I6
tg11
I00
S'\xfd4\xb5pDd\xb9?\x17PUzlZ\xc9?\x90\xfbl<\xe5\x14\xb4?~\xd0e+n\n\x96?\x1d\xd9B\xe2\xb1k\xa6?\xea=\x9f<\x99\x16q?'
tbsS'number_of_mooring_connections'
p107
I3
sS'base_permanent_ballast_height'
p108
g15
(g16
S'\xc5\x97@\xc0_\xd0\x11@'
tRp109
sS'mooring_line_length'
p110
g15
(g16
S'S\xee\xa27E\x97\xa6@'
tRp111
sS'outer_cross_pontoons_int'
p112
g15
(g16
S'\x00\x00\x00\x00\x00\x00\x00\x00'
tRp113
sS'water_depth'
p114
F320
sS'base_stiffener_web_height'
p115
g3
(g4
(I0
tS'b'
tRp116
(I1
(I5
tg11
I00
S'\xc0b\xc3\xf5Z\x8b\xdd?bs\xdb\xbcK\xff\xef?\x08\x8f?+4E\xd1?]\xf9g\xd2\x07a\xe3?\x86\xcc\xf5F\x07s\x86?'
tbsS'column_mass_factor'
p117
F1.05
sS'auxiliary_stiffener_spacing'
p118
g3
(g4
(I0
tS'b'
tRp119
(I1
(I5
tg11
I00
S'\r6F\xd6\xf6\xea\n@\xdb0\x9e(\xa7S>@\xae*\r\x19\x01\tK@\x94sw\x7f\xe2\x18*@\t\x1c\x00\xbaX\x00/@'
tbsS'yield_stress'
p120
F345000000
sS'base.waveLoads.mu'
p121
F0.00088999999999999995
sS'material_density'
p122
F7850
sS'connection_ratio_max'
p123
F0.25
sS'ring_mass_factor'
p124
F1
sS'upper_ring_pontoons_int'
p125
g15
(g16
S'\x00\x00\x00\x00\x00\x00\x00\x00'
tRp126
sS'number_of_auxiliary_columns'
p127
I3
sS'base_stiffener_flange_thickness'
p128
g3
(g4
(I0
tS'b'
tRp129
(I1
(I5
tg11
I00
S'7\x8f\xfa\xeb\xfe\xdc\xb1?\xb7\x10/u\xe2\x15\xd7?\x84b\xc3s\x1d\xee\xc1?\xc7uo\x19h\xdd\xdf?(\xf2\xc5\xd1X\x99\xc8?'
tbsS'base_ballast_heave_box_height'
p130
g15
(g16
S'\xc9\x0f\n\xf8\x97\xea\xfd?'
tRp131
sS'lower_attachment_pontoons_int'
p132
g15
(g16
S'\x00\x00\x00\x00\x00\x00\xf0?'
tRp133
sS'water_density'
p134
F1025
sS'cd_usr'
p135
Finf
sS'min_diameter_thickness_ratio'
p136
F120
sS'base_section_height'
p137
g3
(g4
(I0
tS'b'
tRp138
(I1
(I5
tg11
I00
S"n\x02\x04\x96\xcd\xa1'@Q\x0e\xfdyb\xef\xf8?8\x82\xb8\xe4\x92Y\x1b@m\xec\xcdi\xc6m'@\xf7X\x98b\xa44'@"
tbsS'Uref'
p139
F11
sS'anchor_radius'
p140
g15
(g16
S'3\xe4-\x18\xc4\xd9\xa5@'
tRp141
sS'base_pontoon_attach_upper'
p142
g15
(g16
S'\x15\x87V\x1b\xad\xb3\xed?'
tRp143
sS'rna_cg'
p144
g3
(g4
(I0
tS'b'
tRp145
(I1
(I3
tg7
I00
S'\x1e\x01\x16\xd8\xe7Z\xe3\xbf\x00\x00\x00\x00\x00\x00\x00\x00\x0e\xb4L\xd0p$\x04@'
tbsS'pontoon_outer_diameter'
p146
g15
(g16
S'[\xba\x11Kz\xbb!@'
tRp147
sS'base_stiffener_spacing'
p148
g3
(g4
(I0
tS'b'
tRp149
(I1
(I5
tg11
I00
S'\x89\xc5\xbdm\x983%@\xefv7\x93H\x94"@\xe16c\xe0\xddP-@\x8d\x1etm\xe4\xc90@\xf8\xbf\xfcL\xac\xad:@'
tbsS'fairlead_offset_from_shell'
p150
F6.0004865405187147
sS'tower_wall_thickness'
p151
g3
(g4
(I0
tS'b'
tRp152
(I1
(I6
tg7
I00
S'\xe0\xa3p=\n\xd7\xd3?@33333\xd3?\x00R\xb8\x1e\x85\xeb\xc1?@\\\x8f\xc2\xf5(\xbc?\x80\x1e\x85\xebQ\xb8\xae?\x80\x1e\x85\xebQ\xb8\xae?'
tbsS'mooring_cost_rate'
p153
F1.1000000000000001
sS'base_wall_thickness'
p154
g3
(g4
(I0
tS'b'
tRp155
(I1
(I6
tg11
I00
S'E\xef\xff\r\x87m\xaa?\xf7\x8c\xc6I\xd9G\xaf?@\xaaC0\xf3<\xae?\xcb\x08\x95\xcatV\xa4?\xe1\xfa\x81\xab\x00\xe0\xa6?\xa0\xaf\x8e3%\xdd\xad?'
tbsS'nu'
p156
F0.26000000000000001
sS'E'
F200000000000
sS'wave_period_range_low'
p157
F2
sS'max_survival_heel'
p158
F15
sS'auxiliary_stiffener_web_height'
p159
g3
(g4
(I0
tS'b'
tRp160
(I1
(I5
tg11
I00
S'\x86\x16\x91\x14\xcb\x10\xc7?5\xcd6\x08\xe5B\xda?n\x19 \x9d\xae\x08\xc1?6\x1e\xca,\xe8\xfd\xb1?\xd6lx\xf0dT\xbc?'
tbsS'beta'
p161
F0
sS'shearExp'
p162
F0.11
sS'mooring_lines_per_connection'
p163
g15
(g16
S'\x00\x00\x00\x00\x00\x00\x00@'
tRp164
sS'sg.Rhub'
p165
F2.2999999999999998
sS'mooring_type'
p166
S'chain'
p167
sS'hub_height'
p168
F149
sS'upper_attachment_pontoons_int'
p169
g15
(g16
S'\x00\x00\x00\x00\x00\x00\x00\x00'
tRp170
sS'pontoon_cost_rate'
p171
F6.25
s(lp172
(lp173
g79
aF0
aF20
aa(lp174
g34
aF0.001
aF1
aa(lp175
g49
aF0.10000000000000001
aF10
aa(lp176
g101
aF0
aF50
aa(lp177
g137
aF0.10000000000000001
aF50
aa(lp178
g73
aF2.1000000000000001
aF40
aa(lp179
g154
aF0.001
aF0.5
aa(lp180
g37
aF0
aF50
aa(lp181
g130
aF0
aF20
aa(lp182
g86
aF0
aF1
aa(lp183
g94
aF2
aF15
aa(lp184
g9
aF0.10000000000000001
aF50
aa(lp185
g31
aF1.1000000000000001
aF40
aa(lp186
g105
aF0.001
aF0.5
aa(lp187
g98
aF0
aF50
aa(lp188
g88
aF0
aF20
aa(lp189
g77
aF0
aF1
aa(lp190
g146
aF1
aF10
aa(lp191
g75
aF0.01
aF1
aa(lp192
g26
aF0
aF0.5
aa(lp193
g142
aF0.5
aF1
aa(lp194
g110
aF200
aF3000
aa(lp195
g140
aF100
aF5000
aa(lp196
g90
aF0.050000000000000003
aF2
aa(lp197
g108
aF0.10000000000000001
aF50
aa(lp198
g115
aF0.01
aF1
aa(lp199
g47
aF0.001
aF0.5
aa(lp200
g71
aF0.01
aF5
aa(lp201
g128
aF0.001
aF0.5
aa(lp202
g148
aF0.10000000000000001
aF100
aa(lp203
g159
aF0.01
aF1
aa(lp204
g84
aF0.001
aF0.5
aa(lp205
g43
aF0.01
aF5
aa(lp206
g18
aF0.001
aF0.5
aa(lp207
g118
aF0.10000000000000001
aF100
aa(lp208
g14
aF0.10000000000000001
aF50
aa(lp209
g64
aF5
aF100
aa(lp210
(lp211
S'tow.height_constraint'
p212
aF-0.01
aF0.01
aNaa(lp213
S'base.draft'
p214
aF0
aF20
aNaa(lp215
S'aux.draft'
p216
aF0
aF20
aNaa(lp217
S'base.draft_depth_ratio'
p218
aNaF0.90000000000000002
aNaa(lp219
S'aux.draft_depth_ratio'
p220
aNaF0.90000000000000002
aNaa(lp221
S'base.wave_height_freeboard_ratio'
p222
aNaF1
aNaa(lp223
S'aux.wave_height_freeboard_ratio'
p224
aNaF1
aNaa(lp225
S'aux.fairlead_draft_ratio'
p226
aF0
aF20
aNaa(lp227
S'sg.base_auxiliary_spacing'
p228
aF1
aNaNaa(lp229
S'base.manufacturability'
p230
aF0
aNaNaa(lp231
S'base.weldability'
p232
aNaF0
aNaa(lp233
S'aux.manufacturability'
p234
aF0
aNaNaa(lp235
S'aux.weldability'
p236
aNaF0
aNaa(lp237
S'sg.tower_transition_buffer'
p238
aF-1
aF1
aNaa(lp239
S'sg.nacelle_transition_buffer'
p240
aF0
aNaNaa(lp241
S'sg.auxiliary_freeboard_heel_margin'
p242
aF0
aNaNaa(lp243
S'sg.auxiliary_draft_heel_margin'
p244
aF0
aF20
aNaa(lp245
S'mm.axial_unity'
p246
aF0
aF1
aNaa(lp247
S'mm.mooring_length_max'
p248
aNaF1
aNaa(lp249
S'base.flange_spacing_ratio'
p250
aNaF1
aNaa(lp251
S'base.stiffener_radius_ratio'
p252
aNaF0.5
aNaa(lp253
S'base.flange_compactness'
p254
aF1
aNaNaa(lp255
S'base.web_compactness'
p256
aF1
aNaNaa(lp257
S'base.axial_local_api'
p258
aNaF1
aNaa(lp259
S'base.axial_general_api'
p260
aNaF1
aNaa(lp261
S'base.external_local_api'
p262
aNaF1
aNaa(lp263
S'base.external_general_api'
p264
aNaF1
aNaa(lp265
S'aux.flange_spacing_ratio'
p266
aNaF1
aNaa(lp267
S'aux.stiffener_radius_ratio'
p268
aNaF0.5
aNaa(lp269
S'aux.flange_compactness'
p270
aF1
aNaNaa(lp271
S'aux.web_compactness'
p272
aF1
aNaNaa(lp273
S'aux.axial_local_api'
p274
aNaF1
aNaa(lp275
S'aux.axial_general_api'
p276
aNaF1
aNaa(lp277
S'aux.external_local_api'
p278
aNaF1
aNaa(lp279
S'aux.external_general_api'
p280
aNaF1
aNaa(lp281
S'load.pontoon_stress'
p282
aNaF1
aNaa(lp283
S'load.tower_stress'
p284
aNaF1
aNaa(lp285
S'load.tower_shell_buckling'
p286
aNaF1
aNaa(lp287
S'load.tower_global_buckling'
p288
aNaF1
aNaa(lp289
S'load.base_column_stress'
p290
aNaF1
aNaa(lp291
S'load.base_column_shell_buckling'
p292
aNaF1
aNaa(lp293
S'load.base_column_global_buckling'
p294
aNaF1
aNaa(lp295
S'load.auxiliary_column_stress'
p296
aNaF1
aNaa(lp297
S'load.auxiliary_column_shell_buckling'
p298
aNaF1
aNaa(lp299
S'load.auxiliary_column_global_buckling'
p300
aNaF1
aNaa(lp301
S'subs.variable_ballast_height_ratio'
p302
aF0
aF1
aNaa(lp303
S'subs.variable_ballast_mass'
p304
aF0
aNaNaa(lp305
S'subs.metacentric_height'
p306
aF0.10000000000000001
aNaNaa(lp307
S'subs.offset_force_ratio'
p308
aNaF1
aNaa(lp309
S'subs.heel_moment_ratio'
p310
aNaF1
aNaa(lp311
S'subs.period_margin_low'
p312
aNaF1
aNaa(lp313
S'subs.period_margin_high'
p314
aF1
aNaNaa(S'load.structural_mass'
p315
F9.9999999999999995e-07
tp316
S'NM'
p317
t.