((dp1
S'rna_moment'
p2
cnumpy.core.multiarray
_reconstruct
p3
(cnumpy
ndarray
p4
(I0
tS'b'
tRp5
(I1
(I3
tcnumpy
dtype
p6
(S'f8'
I0
I1
tRp7
(I3
S'<'
NNNI-1
I-1
I0
tbI00
S'\xec*\xda\xf3O\xe7{A\xf8\xedw\x9a\x0e\xff\rA\xf1\x80S\xcaVvG\xc1'
tbsS'offset_permanent_ballast_height'
p8
cnumpy.core.multiarray
scalar
p9
(g6
(S'f8'
I0
I1
tRp10
(I3
S'<'
NNNI-1
I-1
I0
tbS'\x88\xd9^P\xaf;\xd4?'
tRp11
sS'rna_force'
p12
g3
(g4
(I0
tS'b'
tRp13
(I1
(I3
tg7
I00
S'\xcd\xcc\xccLc\x1e@A\x00\x00\x00\x00\x00\x00\x00\x00\xc3\xf5(\xec!\xffY\xc1'
tbsS'gamma_fatigue'
p14
F1.7549999999999999
sS'loading'
p15
S'hydrostatic'
p16
sS'lower_ring_pontoons_int'
p17
g9
(g10
S'\x00\x00\x00\x00\x00\x00\x00\x00'
tRp18
sS'tapered_col_cost_rate'
p19
F4720
sS'main_stiffener_web_height'
p20
g3
(g4
(I0
tS'b'
tRp21
(I1
(I5
tg6
(S'f8'
I0
I1
tRp22
(I3
S'<'
NNNI-1
I-1
I0
tbI00
S'\xd2%\x1fT<\x10\xdd?R\xf6G2y\xff\xef?50YX\xeb\x18\xd1?\xdf\xbe \x1f\xd8\x81\xe3?2\xeava\x8b\xc9\x86?'
tbsS'zref'
p23
F119
sS'outfitting_cost_rate'
p24
F6980
sS'offset_buoyancy_tank_location'
p25
g9
(g10
S'\xad\x14\xc2%A\xd6\xa4?'
tRp26
sS'main_stiffener_flange_width'
p27
g3
(g4
(I0
tS'b'
tRp28
(I1
(I5
tg22
I00
S'\xaa[y\xb0\xb1\xa4\xb0?K\xa6\xc9\x93j\x1d\xd7?\x84\xe0\xa0T\x0c\xe7\xfe?\x9e`\xd2\xb9\xec\xc6\xef?]\xd8\x8f/\xac\xd6\xde?'
tbsS'max_taper_ratio'
p29
F0.40000000000000002
sS'tower_outfitting_factor'
p30
F1.0700000000000001
sS'max_draft'
p31
F20
sS'T'
F9.8000000000000007
sS'bulkhead_mass_factor'
p32
F1
sS'wave_period_range_high'
p33
F20
sS'cross_attachment_pontoons_int'
p34
g9
(g10
S'\x00\x00\x00\x00\x00\x00\x00\x00'
tRp35
sS'outfitting_mass_fraction'
p36
F0.059999999999999998
sS'offset_buoyancy_tank_diameter'
p37
g9
(g10
S"l\x93\xc3\x9f\xe1'%@"
tRp38
sS'main_outer_diameter'
p39
g3
(g4
(I0
tS'b'
tRp40
(I1
(I6
tg22
I00
S'_QG7qF9@\xb3\x19;=b\xfb(@\x8a\xcd(K\xc2~\x1d@G;\xdf\xd8W\xa8$@/\xa33\x83\xdd\xa9!@\xf8\x03\x82\xf7\xcc\xb4#@'
tbsS'rna_I'
p41
g3
(g4
(I0
tS'b'
tRp42
(I1
(I6
tg7
I00
S'\x00\x00\x00.b\xf5\xa3A\x00\x00\x00\x08)"\x99A\x00\x00\x00\xf0\x10Q\x94A\x00\x00\x00\x00\x00\x00\x00\x00\xa4p=\n\x98x7A\x00\x00\x00\x00\x00\x00\x00\x00'
tbsS'main.windLoads.mu'
p43
F1.8099999999999999e-05
sS'fairlead_support_outer_diameter'
p44
g9
(g10
S'\xa3\x81\x94\xf8\xf1\xff#@'
tRp45
sS'offset_bulkhead_thickness'
p46
g3
(g4
(I0
tS'b'
tRp47
(I1
(I6
tg7
I00
S'\x9a\x99\x99\x99\x99\x99\xa9?\x9a\x99\x99\x99\x99\x99\xa9?\x00\x00\x00\x00\x00\x00\x00\x00\x00\x00\x00\x00\x00\x00\x00\x00\x00\x00\x00\x00\x00\x00\x00\x00\x9a\x99\x99\x99\x99\x99\xa9?'
tbsS'mooring_max_offset'
p48
F100
sS'shell_mass_factor'
p49
F1
sS'main_pontoon_attach_upper'
p50
g9
(g10
S'oK\xa3!\x9d\x8a\xed?'
tRp51
sS'rna_mass'
p52
F449282.40530069917
sS'tower_buckling_length'
p53
F30
sS'Hs'
p54
F10.800000000000001
sS'main_freeboard'
p55
g9
(g10
S'\rg\x0bg\xc9\xff=@'
tRp56
sS'Rhub'
p57
F2.2999999999999998
sS'material_density'
p58
F7850
sS'main_stiffener_spacing'
p59
g3
(g4
(I0
tS'b'
tRp60
(I1
(I5
tg22
I00
S'\xd0\xbe\x8dM\x9c&%@\xa6\xab\xf7,\x1f~"@\xa8m\xb4\xfa\xa0/-@L\xdf|\xc0\x8d\x950@\xc9\xd8\xa6\xd9\x1e\xad:@'
tbsS'tower_outer_diameter'
p61
g3
(g4
(I0
tS'b'
tRp62
(I1
(I6
tg7
I00
S'\x00\x00\x00\x00\x00\x00"@\x00\x00\x00\x00\x00\x00"@\x9a\x99\x99\x99\x99\x99 @\xa4p=\n\xd7\xa3\x1b@\x00\x00\x00\x00\x00\x00\x16@\x00\x00\x00\x00\x00\x00\x16@'
tbsS'anchor_type'
p63
S'suctionpile'
p64
sS'G'
F79300000000
sS'fairlead_location'
p65
g9
(g10
S'\x05/\xec<N\xda\xcb?'
tRp66
sS'max_offset'
p67
F100
sS'max_survival_heel'
p68
F15
sS'main_stiffener_flange_thickness'
p69
g3
(g4
(I0
tS'b'
tRp70
(I1
(I5
tg22
I00
S'\xe2\xf8\xb0Y\xd6\x9c\xb1?\x8cI~\x9c:l\xd7?\xeb\x9f\xbd\x0c\xd2\xcd\xc1?\xe5\x84\x8cn%\xe3\xdf?\xcax\xfe\xed\xda\n\xc8?'
tbsS'permanent_ballast_density'
p71
F4492
sS'z0'
p72
F0
sS'Uc'
p73
F0
sS'offset_stiffener_web_thickness'
p74
g3
(g4
(I0
tS'b'
tRp75
(I1
(I5
tg22
I00
S'\xca\xb9\x8e\x87\x97\xa5\xdf?\xc0\x82~\x0f\xec\xdc\xc3?\x7f\xe4(\xb1Zqx?\x9ba(\xb6\xca\xbek?\x97\x9a$ P\xca\x97?'
tbsS'pontoon_wall_thickness'
p76
g9
(g10
S'\xf9\x8f\x00\x94\xd3i\x94?'
tRp77
sS'number_of_offset_columns'
p78
I3
sS'radius_to_offset_column'
p79
g9
(g10
S'wc,4z\xe8J@'
tRp80
sS'tower_section_height'
p81
g3
(g4
(I0
tS'b'
tRp82
(I1
(I5
tg7
I00
S'\x00\x00\x00\x00\x00\x00$@\x00\x10\xaeG\xe1z\x84?\xc3\xf5(\\\x8fBJ@\xcc\xcc\xcc\xcc\xcc\x8cJ@\x00)\\\x8f\xc2\xf5\n@'
tbsS'main_buoyancy_tank_location'
p83
g9
(g10
S'{u\x1b\xcc5/\xf1>'
tRp84
sS'cm'
p85
F2
sS'main.waveLoads.mu'
p86
F0.00088999999999999995
sS'mooring_diameter'
p87
g9
(g10
S'_\\\xe9\x0ba\xb4\xd1?'
tRp88
sS'gamma_m'
p89
F1.1000000000000001
sS'gamma_n'
p90
F1
sS'offset_section_height'
p91
g3
(g4
(I0
tS'b'
tRp92
(I1
(I5
tg22
I00
S'\xd4\x9b\xe6\xd6\xa9\xa1\xee?"u?.\x85<\xfc?%zX\x01\x1c\xfb2@\x7f4\xabUc\x0c\xd8?ei4\x99]5\x17@'
tbsS'main_bulkhead_thickness'
p93
g3
(g4
(I0
tS'b'
tRp94
(I1
(I6
tg7
I00
S'\x9a\x99\x99\x99\x99\x99\xa9?\x9a\x99\x99\x99\x99\x99\xa9?\x00\x00\x00\x00\x00\x00\x00\x00\x00\x00\x00\x00\x00\x00\x00\x00\x00\x00\x00\x00\x00\x00\x00\x00\x9a\x99\x99\x99\x99\x99\xa9?'
tbsS'yaw'
p95
F0
sS'gamma_f'
p96
F1.3500000000000001
sS'offset_freeboard'
p97
g9
(g10
S'\xe1\xf1%\xa2\xc1\xe4+@'
tRp98
sS'gamma_b'
p99
F1.1000000000000001
sS'z_offset'
p100
F0
sS'ballast_cost_rate'
p101
F100
sS'number_of_mooring_connections'
p102
I3
sS'mooring_line_length'
p103
g9
(g10
S'A\xdbP\xcb\xb4\x98\xa6@'
tRp104
sS'outer_cross_pontoons_int'
p105
g9
(g10
S'\x00\x00\x00\x00\x00\x00\x00\x00'
tRp106
sS'water_depth'
p107
F320
sS'main_buoyancy_tank_diameter'
p108
g9
(g10
S'\xd7\x10X\xcf\xbe7\x1d@'
tRp109
sS'column_mass_factor'
p110
F1.05
sS'operational_heel'
p111
F6
sS'offset_outer_diameter'
p112
g3
(g4
(I0
tS'b'
tRp113
(I1
(I6
tg22
I00
S'\xe2\x82\xd2(\xfe\x07(@1\x12\x19\x924w:@\x0c\xa1\x0bnh\x86%@\x01\x11\xcb\x14\x11\x93"@[\xe2*\xacn\x08\x1b@\xd7\x95\x86s\x81\xd2\x18@'
tbsS'yield_stress'
p114
F345000000
sS'main_wall_thickness'
p115
g3
(g4
(I0
tS'b'
tRp116
(I1
(I6
tg22
I00
S'f\xd3\xf5\x94\xd1\x1f\xaa?6fA\x00\x0e\xa4\xaf?\x8b\x859\x1cI\x92\xae?\x18c\xa1\x85\x8cK\xa4?(\xcab4)\xf4\xa6?l\xf5%`&"\xae?'
tbsS'connection_ratio_max'
p117
F0.25
sS'ring_mass_factor'
p118
F1
sS'upper_ring_pontoons_int'
p119
g9
(g10
S'\x00\x00\x00\x00\x00\x00\x00\x00'
tRp120
sS'main_stiffener_web_thickness'
p121
g3
(g4
(I0
tS'b'
tRp122
(I1
(I5
tg22
I00
S'\xc7\xe5n\xd6\xda\x10\xb7?\x87\x1d\xcd\x89\xe8\xea\xdf?*<\x83\xa3\x10\x8d\xc5?\xbc\x11|\xb3\xeeG\xc1?r\xe3\xca\xbbW=\xac?'
tbsS'lower_attachment_pontoons_int'
p123
g9
(g10
S'\x00\x00\x00\x00\x00\x00\xf0?'
tRp124
sS'water_density'
p125
F1025
sS'main_buoyancy_tank_height'
p126
g9
(g10
S'vTs9\x0eM\xfe?'
tRp127
sS'cd_usr'
p128
Finf
sS'min_diameter_thickness_ratio'
p129
F120
sS'offset_wall_thickness'
p130
g3
(g4
(I0
tS'b'
tRp131
(I1
(I6
tg22
I00
S'+\xbd\x9e\xba\xa4\x93\xb9?X\xdc%j\xa3-\xc9?\x99\x18\x0e\\\x01\x13\xb4?\x1e\xa8\xf8\xcc\x1b\x1e\x96?\xe03\xe3\x15\xd9+\xa6?N\xddi\x11\xb94q?'
tbsS'offset_buoyancy_tank_height'
p132
g9
(g10
S'\x81\xbacDio\x0b@'
tRp133
sS'main_section_height'
p134
g3
(g4
(I0
tS'b'
tRp135
(I1
(I5
tg22
I00
S"\xff\x97#\x06\xa7\xfd'@\t n?w\xa8\xf8?\xa5[\x08\xf3]\x8b\x1b@\xd1\t\xe8\xf0\x8ab'@\xb9\x8a/\xd8oG'@"
tbsS'Uref'
p136
F11
sS'anchor_radius'
p137
g9
(g10
S'\xe3\xd7k\x84\x7f\xd9\xa5@'
tRp138
sS'rna_cg'
p139
g3
(g4
(I0
tS'b'
tRp140
(I1
(I3
tg7
I00
S'\x1e\x01\x16\xd8\xe7Z\xe3\xbf\x00\x00\x00\x00\x00\x00\x00\x00\x0e\xb4L\xd0p$\x04@'
tbsS'pontoon_outer_diameter'
p141
g9
(g10
S'\xcc\x9f%\x95\xf7\xcb!@'
tRp142
sS'fairlead_support_wall_thickness'
p143
g9
(g10
S'E#\xd0g\xad\xf1\x92?'
tRp144
sS'fairlead_offset_from_shell'
p145
F6.0004865405187147
sS'tower_wall_thickness'
p146
g3
(g4
(I0
tS'b'
tRp147
(I1
(I6
tg7
I00
S'\xe0\xa3p=\n\xd7\xd3?@33333\xd3?\x00R\xb8\x1e\x85\xeb\xc1?@\\\x8f\xc2\xf5(\xbc?\x80\x1e\x85\xebQ\xb8\xae?\x80\x1e\x85\xebQ\xb8\xae?'
tbsS'mooring_cost_rate'
p148
F1.1000000000000001
sS'nu'
p149
F0.26000000000000001
sS'E'
F200000000000
sS'wave_period_range_low'
p150
F2
sS'main_pontoon_attach_lower'
p151
g9
(g10
S'\xf2g\x9fkD\xe1\xb9?'
tRp152
sS'offset_stiffener_flange_thickness'
p153
g3
(g4
(I0
tS'b'
tRp154
(I1
(I5
tg22
I00
S'\x07*\x07\x88\xc6\xfe\xd2?9\x1bx1\x85\xd2\xdf?\x0e\x8d4\xc1\xa9\x8f\xcb?\x7f\xda\x03\xa5w\x01\xc4?w3\x13f\x12q\xc4?'
tbsS'main.windLoads.rho'
p155
F1.198
sS'beta'
p156
F0
sS'shearExp'
p157
F0.11
sS'mooring_lines_per_connection'
p158
g9
(g10
S'\x00\x00\x00\x00\x00\x00\x00@'
tRp159
sS'main_permanent_ballast_height'
p160
g9
(g10
S'\xf3P\xa2\xcec\xc4\x13@'
tRp161
sS'offset_stiffener_flange_width'
p162
g3
(g4
(I0
tS'b'
tRp163
(I1
(I5
tg22
I00
S'\x96\xbf\x18W\xdf\x1f\xe1?\xe2\x127R(\xc4\xa8?N{\x99\xd4\xed\xdf\xd8?\xd3LB\xd1\x84,\xc5?V\xd1\xad^\xb6\x8a\xed?'
tbsS'offset_stiffener_spacing'
p164
g3
(g4
(I0
tS'b'
tRp165
(I1
(I5
tg22
I00
S';\xbb\x9f+3\x03\x0b@\xd8\xe8\x14d\xccv>@H\xb8&\x02\x8bHJ@\x14\xbe\x9b\xea\x0c\xff)@q\xb9V\xc7\xe7v/@'
tbsS'mooring_type'
p166
S'chain'
p167
sS'hub_height'
p168
F149
sS'upper_attachment_pontoons_int'
p169
g9
(g10
S'\x00\x00\x00\x00\x00\x00\x00\x00'
tRp170
sS'offset_stiffener_web_height'
p171
g3
(g4
(I0
tS'b'
tRp172
(I1
(I5
tg22
I00
S'\xe0\x879\x1f\x97 \xc7?\xff\xa7\x1e\x1b\x94\x9f\xda?:@\x16\xc6v\xd0\xc0?\x92\xfa\x0c\xde\x8e\xa5\xb1?\x10\xcc\x86\xfc\xae\xfd\xbb?'
tbsS'pontoon_cost_rate'
p173
F6.25
s(lp174
(lp175
S'fairlead_location'
p176
aF0
aF1
aa(lp177
S'fairlead_support_wall_thickness'
p178
aF0.001
aF1
aa(lp179
S'fairlead_support_outer_diameter'
p180
aF0.10000000000000001
aF10
aa(lp181
S'main_freeboard'
p182
aF0
aF50
aa(lp183
S'main_section_height'
p184
aF0.10000000000000001
aF50
aa(lp185
S'main_outer_diameter'
p186
aF2.1000000000000001
aF40
aa(lp187
S'main_wall_thickness'
p188
aF0.001
aF0.5
aa(lp189
S'main_buoyancy_tank_diameter'
p190
aF0
aF50
aa(lp191
S'main_buoyancy_tank_height'
p192
aF0
aF20
aa(lp193
S'main_buoyancy_tank_location'
p194
aF0
aF1
aa(lp195
S'offset_freeboard'
p196
aF2
aF15
aa(lp197
S'offset_section_height'
p198
aF0.10000000000000001
aF50
aa(lp199
S'offset_outer_diameter'
p200
aF1.1000000000000001
aF40
aa(lp201
S'offset_wall_thickness'
p202
aF0.001
aF0.5
aa(lp203
S'offset_buoyancy_tank_diameter'
p204
aF0
aF50
aa(lp205
S'offset_buoyancy_tank_height'
p206
aF0
aF20
aa(lp207
S'offset_buoyancy_tank_location'
p208
aF0
aF1
aa(lp209
S'pontoon_outer_diameter'
p210
aF1
aF10
aa(lp211
S'pontoon_wall_thickness'
p212
aF0.01
aF1
aa(lp213
S'main_pontoon_attach_lower'
p214
aF0
aF0.5
aa(lp215
S'main_pontoon_attach_upper'
p216
aF0.5
aF1
aa(lp217
S'mooring_line_length'
p218
aF200
aF3000
aa(lp219
S'anchor_radius'
p220
aF100
aF5000
aa(lp221
S'mooring_diameter'
p222
aF0.050000000000000003
aF2
aa(lp223
S'main_permanent_ballast_height'
p224
aF0.10000000000000001
aF50
aa(lp225
S'main_stiffener_web_height'
p226
aF0.01
aF1
aa(lp227
S'main_stiffener_web_thickness'
p228
aF0.001
aF0.5
aa(lp229
S'main_stiffener_flange_width'
p230
aF0.01
aF5
aa(lp231
S'main_stiffener_flange_thickness'
p232
aF0.001
aF0.5
aa(lp233
S'main_stiffener_spacing'
p234
aF0.10000000000000001
aF100
aa(lp235
S'offset_stiffener_web_height'
p236
aF0.01
aF1
aa(lp237
S'offset_stiffener_web_thickness'
p238
aF0.001
aF0.5
aa(lp239
S'offset_stiffener_flange_width'
p240
aF0.01
aF5
aa(lp241
S'offset_stiffener_flange_thickness'
p242
aF0.001
aF0.5
aa(lp243
S'offset_stiffener_spacing'
p244
aF0.10000000000000001
aF100
aa(lp245
S'offset_permanent_ballast_height'
p246
aF0.10000000000000001
aF50
aa(lp247
S'radius_to_offset_column'
p248
aF5
aF100
aa(lp249
(lp250
S'tow.height_constraint'
p251
aF-0.01
aF0.01
aNaa(lp252
S'main.draft'
p253
aF0
aF20
aNaa(lp254
S'off.draft'
p255
aF0
aF20
aNaa(lp256
S'main.draft_margin'
p257
aF0
aF1
aNaa(lp258
S'off.draft_margin'
p259
aF0
aF1
aNaa(lp260
S'main.wave_height_freeboard_ratio'
p261
aNaF1
aNaa(lp262
S'off.wave_height_freeboard_ratio'
p263
aNaF1
aNaa(lp264
S'main_offset_spacing'
p265
aF1
aNaNaa(lp266
S'main.manufacturability'
p267
aF0
aNaNaa(lp268
S'main.weldability'
p269
aNaF0
aNaa(lp270
S'off.manufacturability'
p271
aF0
aNaNaa(lp272
S'off.weldability'
p273
aNaF0
aNaa(lp274
S'tower_transition_buffer'
p275
aF-1
aF1
aNaa(lp276
S'nacelle_transition_buffer'
p277
aF0
aNaNaa(lp278
S'offset_freeboard_heel_margin'
p279
aF0
aNaNaa(lp280
S'offset_draft_heel_margin'
p281
aF0
aF20
aNaa(lp282
S'axial_unity'
p283
aF0
aF1
aNaa(lp284
S'mooring_length_max'
p285
aNaF1
aNaa(lp286
S'main.flange_spacing_ratio'
p287
aNaF1
aNaa(lp288
S'main.stiffener_radius_ratio'
p289
aNaF0.5
aNaa(lp290
S'main.flange_compactness'
p291
aF1
aNaNaa(lp292
S'main.web_compactness'
p293
aF1
aNaNaa(lp294
S'main.axial_local_api'
p295
aNaF1
aNaa(lp296
S'main.axial_general_api'
p297
aNaF1
aNaa(lp298
S'main.external_local_api'
p299
aNaF1
aNaa(lp300
S'main.external_general_api'
p301
aNaF1
aNaa(lp302
S'off.flange_spacing_ratio'
p303
aNaF1
aNaa(lp304
S'off.stiffener_radius_ratio'
p305
aNaF0.5
aNaa(lp306
S'off.flange_compactness'
p307
aF1
aNaNaa(lp308
S'off.web_compactness'
p309
aF1
aNaNaa(lp310
S'off.axial_local_api'
p311
aNaF1
aNaa(lp312
S'off.axial_general_api'
p313
aNaF1
aNaa(lp314
S'off.external_local_api'
p315
aNaF1
aNaa(lp316
S'off.external_general_api'
p317
aNaF1
aNaa(lp318
S'pontoon_stress'
p319
aNaF1
aNaa(lp320
S'tower_stress'
p321
aNaF1
aNaa(lp322
S'tower_shell_buckling'
p323
aNaF1
aNaa(lp324
S'tower_global_buckling'
p325
aNaF1
aNaa(lp326
S'main_stress'
p327
aNaF1
aNaa(lp328
S'main_shell_buckling'
p329
aNaF1
aNaa(lp330
S'main_global_buckling'
p331
aNaF1
aNaa(lp332
S'offset_stress'
p333
aNaF1
aNaa(lp334
S'offset_shell_buckling'
p335
aNaF1
aNaa(lp336
S'offset_global_buckling'
p337
aNaF1
aNaa(lp338
S'variable_ballast_height_ratio'
p339
aF0
aF1
aNaa(lp340
S'variable_ballast_mass'
p341
aF0
aNaNaa(lp342
S'metacentric_height'
p343
aF0.10000000000000001
aNaNaa(lp344
S'offset_force_ratio'
p345
aNaF1
aNaa(lp346
S'heel_moment_ratio'
p347
aNaF1
aNaa(lp348
S'period_margin_low'
p349
aNaF1
aNaa(lp350
S'period_margin_high'
p351
aF1
aNaNaa(S'structural_mass'
p352
F9.9999999999999995e-07
tp353
S'NM'
p354
t.