((dp1
S'groutSpreadDR'
p2
F3000
sS'generator_mass'
p3
F16699.849999999999
sS'turbine_profitMultiplier'
p4
F0
sS'prepGripperJack'
p5
F8
sS'tpCover'
p6
F1.5
sS'main_stiffener_flange_width'
p7
cnumpy.core.multiarray
_reconstruct
p8
(cnumpy
ndarray
p9
(I0
tS'b'
tRp10
(I1
(I5
tcnumpy
dtype
p11
(S'f8'
I0
I1
tRp12
(I3
S'<'
NNNI-1
I-1
I0
tbI00
S'\xf7@\xf9g\xd7@\xb1?]\x044\xbf\x01\xe6\xd6?\xae\x0b\x98\xf9,\x9b\xff?\xfbP\x8a\xb6\x03K\xf0?\xa4\xb1\x83\xa1e\xdf\xde?'
tbsS'cross_attachment_pontoons_int'
p13
cnumpy.core.multiarray
scalar
p14
(g11
(S'f8'
I0
I1
tRp15
(I3
S'<'
NNNI-1
I-1
I0
tbS'\x00\x00\x00\x00\x00\x00\x00\x00'
tRp16
sS'faaPlan'
p17
F10000
sS'main_section_height'
p18
g8
(g9
(I0
tS'b'
tRp19
(I1
(I5
tg12
I00
S"\xfa+\xdd\xbf\x0b\xc7'@D\x1f\xefT\x15\xcf\xf8?y\x91@\xc4aY\x1b@\xe6\xb3z\x1b}c'@\x80\xd4\xfcz\xf84'@"
tbsS'transformer_mass'
p20
F1000
sS'otherAncillary'
p21
F3000000
sS'precurve_tip'
p22
F0
sS'jtransCR'
p23
F4500
sS'offset_buoyancy_tank_diameter'
p24
g14
(g15
S'\xc0\xe0\xe8k\x7f#%@'
tRp25
sS'medVoltSG'
p26
F500000
sS'generator_mass_cost_coeff'
p27
F17.43
sS'jpileL'
p28
F47.5
sS'plantComm'
p29
F0.01
sS'subsLoad'
p30
F60
sS'jpileD'
p31
F1.6000000000000001
sS'capital_cost_year_4'
p32
F0
sS'main_bearing_mass'
p33
F4865.7049999999999
sS'main_freeboard'
p34
g14
(g15
S'\xe2\xa0\x18SU\xff=@'
tRp35
sS'capital_cost_year_5'
p36
F0
sS'material_density'
p37
F7850
sS'dynCabFac'
p38
F2
sS'cab1CurrRating'
p39
F300
sS'crane600DR'
p40
F5000
sS'ring_mass_factor'
p41
F1
sS'arrVoltage'
p42
F33
sS'elec_connec_cost_esc'
p43
F1.5
sS'gearbox_mass'
p44
F30237.599999999999
sS'construction_insurance'
p45
F0.01
sS'cab2SubsInterCR'
p46
F19815
sS'tax_rate'
p47
F0.40000000000000002
sS'presweep_in'
p48
g8
(g9
(I0
tS'b'
tRp49
(I1
(I5
tg11
(S'f8'
I0
I1
tRp50
(I3
S'<'
NNNI-1
I-1
I0
tbI00
S'\x00\x00\x00\x00\x00\x00\x00\x00\x00\x00\x00\x00\x00\x00\x00\x00\x00\x00\x00\x00\x00\x00\x00\x00\x00\x00\x00\x00\x00\x00\x00\x00\x00\x00\x00\x00\x00\x00\x00\x00'
tbsS'permanent_ballast_density'
p51
F4492
sS'expCabLoad'
p52
F24
sS'groutSpreadMob'
p53
F1000000
sS'machine_rating'
p54
F10000000
sS'socEconStudyMet'
p55
F500000
sS'cleanWatAct402'
p56
F100000
sS'mpvRentalDR'
p57
F72000
sS'distAtoS'
p58
F90
sS'cover_mass'
p59
F1000
sS'lower_attachment_pontoons_int'
p60
g14
(g15
S'\x00\x00\x00\x00\x00\x00\xf0?'
tRp61
sS'usecd'
p62
I01
sS'radius_to_offset_column'
p63
g14
(g15
S'\xfd\xa1\x9e\x8f\x80\xd3J@'
tRp64
sS'surfLayRate'
p65
F375
sS'physResStudyProj'
p66
F500000
sS'seaSpreadDR'
p67
F165000
sS'z_offset'
p68
F0
sS'prepAA'
p69
F168
sS'number_of_mooring_connections'
p70
I3
sS'offset_stiffener_web_thickness'
p71
g8
(g9
(I0
tS'b'
tRp72
(I1
(I5
tg12
I00
S'\xb8K\x81b\r\x88\xdf?\x06{\x1dh\xe8\x14\xc4?w\x94\x9f\xf0\xb6rx?I,\x99\xac\xb4\x17l?|\x89\xa9\x92:\xd8\x97?'
tbsS'dynamic_amplication_tip_deflection'
p73
F1.3500000000000001
sS'arrCab1Mass'
p74
F20.384
sS'turbine_assemblyCostMultiplier'
p75
F0
sS'turbInstallMethod'
p76
I0
sS'tower_assemblyCostMultiplier'
p77
F0
sS'column_mass_factor'
p78
F1.05
sS'offset_outer_diameter'
p79
g8
(g9
(I0
tS'b'
tRp80
(I1
(I6
tg12
I00
S';l\x91)\x1f\xdb\'@6\\\\\xe9\xb0\x85:@\xd0\xf5k\xef(n%@\x88n\x8b\xb8\xfd\x7f"@\n9\x18\xd4)p\x1a@\xb8\xb5\xba\xe3\x0b\xe1\x18@'
tbsS'yield_stress'
p81
F345000000
sS'rstar_damage'
p82
g8
(g9
(I0
tS'b'
tRp83
(I1
(I51
tg50
I00
S'\x00\x00\x00\x00\x00\x00\x00\x00{\x14\xaeG\xe1z\x94?{\x14\xaeG\xe1z\xa4?\xb8\x1e\x85\xebQ\xb8\xae?{\x14\xaeG\xe1z\xb4?\x9a\x99\x99\x99\x99\x99\xb9?\xb8\x1e\x85\xebQ\xb8\xbe?\xecQ\xb8\x1e\x85\xeb\xc1?{\x14\xaeG\xe1z\xc4?\n\xd7\xa3p=\n\xc7?\x9a\x99\x99\x99\x99\x99\xc9?)\\\x8f\xc2\xf5(\xcc?\xb8\x1e\x85\xebQ\xb8\xce?\xa4p=\n\xd7\xa3\xd0?\xecQ\xb8\x1e\x85\xeb\xd1?333333\xd3?{\x14\xaeG\xe1z\xd4?\xc3\xf5(\\\x8f\xc2\xd5?\n\xd7\xa3p=\n\xd7?R\xb8\x1e\x85\xebQ\xd8?\x9a\x99\x99\x99\x99\x99\xd9?\xe1z\x14\xaeG\xe1\xda?)\\\x8f\xc2\xf5(\xdc?q=\n\xd7\xa3p\xdd?\xb8\x1e\x85\xebQ\xb8\xde?\x00\x00\x00\x00\x00\x00\xe0?\xa4p=\n\xd7\xa3\xe0?H\xe1z\x14\xaeG\xe1?\xecQ\xb8\x1e\x85\xeb\xe1?\x8f\xc2\xf5(\\\x8f\xe2?333333\xe3?\xd7\xa3p=\n\xd7\xe3?{\x14\xaeG\xe1z\xe4?\x1f\x85\xebQ\xb8\x1e\xe5?\xc3\xf5(\\\x8f\xc2\xe5?gfffff\xe6?\n\xd7\xa3p=\n\xe7?\xaeG\xe1z\x14\xae\xe7?R\xb8\x1e\x85\xebQ\xe8?\xf6(\\\x8f\xc2\xf5\xe8?\x9a\x99\x99\x99\x99\x99\xe9?>\n\xd7\xa3p=\xea?\xe1z\x14\xaeG\xe1\xea?\x85\xebQ\xb8\x1e\x85\xeb?)\\\x8f\xc2\xf5(\xec?\xcd\xcc\xcc\xcc\xcc\xcc\xec?q=\n\xd7\xa3p\xed?\x15\xaeG\xe1z\x14\xee?\xb8\x1e\x85\xebQ\xb8\xee?\\\x8f\xc2\xf5(\\\xef?\x00\x00\x00\x00\x00\x00\xf0?'
tbsS'precone'
p84
F4
sS'nacelle_transportMultiplier'
p85
F0
sS'Mxb_damage'
p86
g8
(g9
(I0
tS'b'
tRp87
(I1
(I51
tg50
I00
S'\x11\xea-\x81\x99\x97q=\x11\xea-\x81\x99\x97q=\x11\xea-\x81\x99\x97q=\x11\xea-\x81\x99\x97q=\x11\xea-\x81\x99\x97q=\x11\xea-\x81\x99\x97q=\x11\xea-\x81\x99\x97q=\x11\xea-\x81\x99\x97q=\x11\xea-\x81\x99\x97q=\x11\xea-\x81\x99\x97q=\x11\xea-\x81\x99\x97q=\x11\xea-\x81\x99\x97q=\x11\xea-\x81\x99\x97q=\x11\xea-\x81\x99\x97q=\x11\xea-\x81\x99\x97q=\x11\xea-\x81\x99\x97q=\x11\xea-\x81\x99\x97q=\x11\xea-\x81\x99\x97q=\x11\xea-\x81\x99\x97q=\x11\xea-\x81\x99\x97q=\x11\xea-\x81\x99\x97q=\x11\xea-\x81\x99\x97q=\x11\xea-\x81\x99\x97q=\x11\xea-\x81\x99\x97q=\x11\xea-\x81\x99\x97q=\x11\xea-\x81\x99\x97q=\x11\xea-\x81\x99\x97q=\x11\xea-\x81\x99\x97q=\x11\xea-\x81\x99\x97q=\x11\xea-\x81\x99\x97q=\x11\xea-\x81\x99\x97q=\x11\xea-\x81\x99\x97q=\x11\xea-\x81\x99\x97q=\x11\xea-\x81\x99\x97q=\x11\xea-\x81\x99\x97q=\x11\xea-\x81\x99\x97q=\x11\xea-\x81\x99\x97q=\x11\xea-\x81\x99\x97q=\x11\xea-\x81\x99\x97q=\x11\xea-\x81\x99\x97q=\x11\xea-\x81\x99\x97q=\x11\xea-\x81\x99\x97q=\x11\xea-\x81\x99\x97q=\x11\xea-\x81\x99\x97q=\x11\xea-\x81\x99\x97q=\x11\xea-\x81\x99\x97q=\x11\xea-\x81\x99\x97q=\x11\xea-\x81\x99\x97q=\x11\xea-\x81\x99\x97q=\x11\xea-\x81\x99\x97q=\x11\xea-\x81\x99\x97q='
tbsS'mooring_diameter'
p88
g14
(g15
S'f\xd2\xeb\x86L\xc5\xd1?'
tRp89
sS'hub_mass'
p90
F105520
sS'cab1CR'
p91
F185.88900000000001
sS'cd_usr'
p92
Finf
sS'main_buoyancy_tank_height'
p93
g14
(g15
S"v\xdf6c\x1e'\xfe?"
tRp94
sS'buryDepth'
p95
F2
sS'nac_I'
p96
g8
(g9
(I0
tS'b'
tRp97
(I1
(I6
tg50
I00
S'\x00\x00\x00`\xb4[\\A\x00\x00\x00\x8e\x82\ngA\x00\x00\x00\x8e\x82\ngA\x00\x00\x00\x00\x00\x00\x00\x00\x00\x00\x00\x00\x00\x00\x00\x00\x00\x00\x00\x00\x00\x00\x00\x00'
tbsS'monoFasten'
p98
F12
sS'tilt'
p99
F6
sS'nSector'
p100
I4
sS'offset_buoyancy_tank_location'
p101
g14
(g15
S'\xfe\x00\xd4\x88\xd7\xd1\xa4?'
tRp102
sS'tower_wall_thickness'
p103
g8
(g9
(I0
tS'b'
tRp104
(I1
(I6
tg11
(S'f8'
I0
I1
tRp105
(I3
S'<'
NNNI-1
I-1
I0
tbI00
S'\xe0\xa3p=\n\xd7\xd3?@33333\xd3?\x00R\xb8\x1e\x85\xeb\xc1?@\\\x8f\xc2\xf5(\xbc?\x80\x1e\x85\xebQ\xb8\xae?\x80\x1e\x85\xebQ\xb8\xae?'
tbsS'offshore'
p106
I01
sS'substructure'
p107
I3
sS'interest_during_construction'
p108
F0.080000000000000002
sS'offset_stiffener_flange_thickness'
p109
g8
(g9
(I0
tS'b'
tRp110
(I1
(I5
tg12
I00
S">W\x02G\x05t\xd3?}\xeb\x06\x08\xb6\xc4\xdf?f\xf4\x98\x19\xf3\x10\xcc?\x88'\xef\xd1\x9aB\xc4?\x0e\x1f\xf2\xa3\xb0:\xc4?"
tbsS'placeMP'
p111
F3
sS'hubFraction'
p112
F0.023784901758014475
sS'feedStudy'
p113
F10000000
sS'preFEEDStudy'
p114
F5000000
sS'cableOptimizer'
p115
I00
sS'platforms_mass_cost_coeff'
p116
F8.6999999999999993
sS'hvac_mass_cost_coeff'
p117
F163.94999999999999
sS'upper_attachment_pontoons_int'
p118
g14
(g15
S'\x00\x00\x00\x00\x00\x00\x00\x00'
tRp119
sS'nepaEisMet'
p120
F2000000
sS'pontoon_cost_rate'
p121
F6.25
sS'yaw_mass_cost_coeff'
p122
F11.01
sS'subsTopFab'
p123
F14500
sS'dummy_mass'
p124
F9.9999999999999998e-13
sS'elec_connec_machine_rating_cost_coeff'
p125
F40
sS'fixed_charge_rate'
p126
F0.12
sS'water_viscosity'
p127
F0.00088999999999999995
sS'spMoorCon'
p128
F20
sS'wind_reference_height'
p129
F119
sS'outfitting_cost_rate'
p130
F6980
sS'air_viscosity'
p131
F1.8099999999999999e-05
sS'shape_parameter'
p132
F0
sS'prepSemi'
p133
F12
sS'prepTow'
p134
F12
sS'control_Vout'
p135
F25
sS'max_taper_ratio'
p136
F0.40000000000000002
sS'hub_profitMultiplier'
p137
F0
sS'tower_overheadCostMultiplier'
p138
F0
sS'platforms_mass'
p139
F1000
sS'socEconStudyProj'
p140
F200000
sS'gust_stddev'
p141
I3
sS'boltRotor'
p142
F7
sS'wave_period_range_high'
p143
F20
sS'vs_electronics_mass'
p144
F1000
sS'inspectClear'
p145
F2
sS'teT_in'
p146
g8
(g9
(I0
tS'b'
tRp147
(I1
(I5
tg50
I00
S'\xf4(\xfb\x97\x18\x81\xa5?\xad\xb1B\x13!\x8a\xb0?\xaf\xbf\xedj\xe1\xd6\xab?Y\xc3\xb4`\x17}\x90?\xe24"\xc9\xe3Gl?'
tbsS'morison_mass_coefficient'
p148
F2
sS'seaSpreadMob'
p149
F4500000
sS'wind_bottom_height'
p150
F0
sS'wave_period_range_low'
p151
F2
sS'stateLease'
p152
F250000
sS'offset_permanent_ballast_height'
p153
g14
(g15
S'\xf5^\xce5\xd9}\xd4?'
tRp154
sS'ssMoorCheck'
p155
F12
sS'main_stiffener_spacing'
p156
g8
(g9
(I0
tS'b'
tRp157
(I1
(I5
tg12
I00
S'\x95\xe4\xe2\xf0\xdd`%@Y\x913\xb7\xc1\x99"@\x04M+\xc8\xcc0.@`j\xf9b\xd5\xe50@\xf0|8\x10?z:@'
tbsS'tower_outer_diameter'
p158
g8
(g9
(I0
tS'b'
tRp159
(I1
(I6
tg105
I00
S'\x00\x00\x00\x00\x00\x00"@\x00\x00\x00\x00\x00\x00"@\x9a\x99\x99\x99\x99\x99 @\xa4p=\n\xd7\xa3\x1b@\x00\x00\x00\x00\x00\x00\x16@\x00\x00\x00\x00\x00\x00\x16@'
tbsS'conOpPlan'
p160
F1000000
sS'outfitting_mass_fraction'
p161
F0.059999999999999998
sS'capital_cost_year_2'
p162
F0.10000000000000001
sS'capital_cost_year_3'
p163
F0.10000000000000001
sS'capital_cost_year_0'
p164
F0.20000000000000001
sS'capital_cost_year_1'
p165
F0.59999999999999998
sS'G'
F79300000000
sS'fairlead_location'
p166
g14
(g15
S'\xa2\x15I\x9a \n\xcb?'
tRp167
sS'max_offset'
p168
F100
sS'control_minOmega'
p169
F6
sS'prepGripperMono'
p170
F1.5
sS'cabTerm'
p171
F5.5
sS'workSpace'
p172
F2000000
sS'main_bulkhead_thickness'
p173
g8
(g9
(I0
tS'b'
tRp174
(I1
(I6
tg105
I00
S'\x9a\x99\x99\x99\x99\x99\xa9?\x9a\x99\x99\x99\x99\x99\xa9?\x00\x00\x00\x00\x00\x00\x00\x00\x00\x00\x00\x00\x00\x00\x00\x00\x00\x00\x00\x00\x00\x00\x00\x00\x9a\x99\x99\x99\x99\x99\xa9?'
tbsS'vesselPosMono'
p175
F3
sS'boltBlade1'
p176
F3.5
sS'groutTP'
p177
F8
sS'boltBlade2'
p178
F3.5
sS'wind_beta'
p179
F0
sS'landConstruct'
p180
F7
sS'subsJackCR'
p181
F6250
sS'tiploss'
p182
I01
sS'hub_overheadCostMultiplier'
p183
F0
sS'control_pitch'
p184
F0
sS'azimuth_extreme'
p185
F0
sS'prepSpar'
p186
F18
sS'number_install_seasons'
p187
F1
sS'transformer_mass_cost_coeff'
p188
F26.5
sS'turbine_class'
p189
I0
sS'distInterCon'
p190
F3
sS'rivsnHarbsAct'
p191
F100000
sS'navStudyMet'
p192
F500000
sS'jackFasten'
p193
F20
sS'coastZoneManAct'
p194
F100000
sS'distPtoA'
p195
F90
sS'saPlan'
p196
F500000
sS'nCrane1000'
p197
F0
sS'bioResStudyMet'
p198
F1500000
sS'procurement_contingency'
p199
F0.050000000000000003
sS'jpileCR'
p200
F2250
sS'metTowCR'
p201
F11518
sS'jlatticeCR'
p202
F4680
sS'outer_cross_pontoons_int'
p203
g14
(g15
S'\x00\x00\x00\x00\x00\x00\x00\x00'
tRp204
sS'water_depth'
p205
F320
sS'control_tsr'
p206
F10.58
sS'VfactorPC'
p207
F0.69999999999999996
sS'levJack'
p208
F24
sS'pwrFac'
p209
F0.94999999999999996
sS'placeJack'
p210
F12
sS'upper_ring_pontoons_int'
p211
g14
(g15
S'\x00\x00\x00\x00\x00\x00\x00\x00'
tRp212
sS'main_stiffener_web_thickness'
p213
g8
(g9
(I0
tS'b'
tRp214
(I1
(I5
tg12
I00
S'\x13I\xc8\x15)\xe7\xb6?\x9d\x03\x99\r\xab\xee\xdf?\xb7+@\x98,\xdf\xc5?\x87f\x11\xed(p\xc1?~\xdc\x8a\xce+y\xac?'
tbsS'endSpecAct'
p215
F500000
sS'AEP_loss_factor'
p216
F1
sS'prepHamJack'
p217
F2
sS'water_density'
p218
F1025
sS'arrayX'
p219
F9
sS'expSubsInterCR'
p220
F57500
sS'min_diameter_thickness_ratio'
p221
F120
sS'offset_wall_thickness'
p222
g8
(g9
(I0
tS'b'
tRp223
(I1
(I6
tg12
I00
S'\xde \x87{\xefc\xb9?6\xb9\x93\x9a\xaa\x8b\xc9?en \x85\x94\xe7\xb4?\xad\x87\xfe\n)\xea\x95?\xcb6\xedW*O\xa6?\x85\x98\xa3\xd2>Pq?'
tbsS'blade_mass_cost_coeff'
p224
F13.08
sS'turbFasten'
p225
F8
sS'hub_transportMultiplier'
p226
F0
sS'pitch_system_mass_cost_coeff'
p227
F22.91
sS'upendSpar'
p228
F36
sS'hub_I'
p229
g8
(g9
(I0
tS'b'
tRp230
(I1
(I6
tg50
I00
S'\x9eV\xe4\xeaZ\xe2\x13AGl\x9d\xa5\xf1\xda\x08AGl\x9d\xa5\xf1\xda\x08A\x00\x00\x00\x00\x00\x00\x00\x00\x00\x00\x00\x00\x00\x00\x00\x00\x00\x00\x00\x00\x00\x00\x00\x00'
tbsS'expCurrRating'
p231
F530
sS'turbulence_class'
p232
I1
sS'cover_mass_cost_coeff'
p233
F7.6100000000000003
sS'main_pontoon_attach_lower'
p234
g14
(g15
S'Bx\x10\xda\xe1\x11\xba?'
tRp235
sS'entranceExitRate'
p236
F0.52500000000000002
sS'lss_mass_cost_coeff'
p237
F12.6
sS'exCabFac'
p238
F0.10000000000000001
sS'moorSurvey'
p239
F4
sS'hub_height'
p240
F149
sS'offset_stiffener_web_height'
p241
g8
(g9
(I0
tS'b'
tRp242
(I1
(I5
tg12
I00
S'\xa58\xfe\xe3a2\xc7?\xb6S\xed\xbdNd\xda?\xc8\x86\xd4\xbe\xf0!\xc1?\x80\x9a\x96"\xe9\x10\xb2?\xde\xa0\x8b\xb6\x03s\xbc?'
tbsS'cabPullIn'
p243
F5.5
sS'craneMobDemob'
p244
F150000
sS'bladeLength'
p245
F96.700000000000003
sS'placeTop'
p246
F24
sS'discount_rate'
p247
F0.070000000000000007
sS'presweep_tip'
p248
F0
sS'gamma_fatigue'
p249
F1.7550000000000001
sS'tower_transportMultiplier'
p250
F0
sS'mptCR'
p251
F12500
sS'winchDR'
p252
F1000
sS'instScour'
p253
F6
sS'r_max_chord'
p254
g14
(g15
S'\x9b\xe6\x1d\xa7\xe8H\xce?'
tRp255
sS'ssMoorCon'
p256
F22
sS'bioResStudyProj'
p257
F500000
sS'placeTemplate'
p258
F4
sS'elecWork'
p259
F25000
sS'compRacks'
p260
F1000000
sS'distShore'
p261
F90
sS'bulkhead_mass_factor'
p262
F1
sS'elecCont'
p263
F0.29999999999999999
sS'cabSurveyCR'
p264
F240
sS'ssHeaveCR'
p265
F6250
sS'highVoltSG'
p266
F950000
sS'pitch_system_mass'
p267
F17004
sS'main_outer_diameter'
p268
g8
(g9
(I0
tS'b'
tRp269
(I1
(I6
tg12
I00
S"=\xec\xbd\xa3:*9@n\x1b^\xd09\xbc(@\x12'n\xd0\xfe<\x1d@<\xf6s-\x03\xea$@\x8b T\x976\xba!@\x0f-5S_\xc8#@"
tbsS'nacelleL'
p270
F-inf
sS'cab2TurbInterCR'
p271
F8615
sS'hamRate'
p272
F20
sS'nacelle_overheadCostMultiplier'
p273
F0
sS'crane1000DR'
p274
F8000
sS'nacelle_profitMultiplier'
p275
F0
sS'nacelleW'
p276
F-inf
sS'main_pontoon_attach_upper'
p277
g14
(g15
S'\xbbn^\xc2\xe4\xa4\xed?'
tRp278
sS'tower_buckling_length'
p279
F30
sS'substructCont'
p280
F0.29999999999999999
sS'control_Vin'
p281
F4
sS'turbCont'
p282
F0.29999999999999999
sS'wave_period'
p283
F9.8000000000000007
sS'prepHamMono'
p284
F2
sS'wakerotation'
p285
I01
sS'tower_profitMultiplier'
p286
F0
sS'main_stiffener_flange_thickness'
p287
g8
(g9
(I0
tS'b'
tRp288
(I1
(I5
tg12
I00
S'\x96Y\xf5\x05\x12\xb8\xb1?\xb0|\xcfJ\xbf&\xd7?\xa8\x99\x123\xca\x14\xc2?\xac\xc9\xa9tL\xcb\xdf?[h#/:\xb8\xc8?'
tbsS'nepaEisProj'
p289
F5000000
sS'pontoon_wall_thickness'
p290
g14
(g15
S'g\x9a\x88\x99\x0e\xdb\x94?'
tRp291
sS'cabDrillCR'
p292
F3200
sS'physResStudyMet'
p293
F1500000
sS'main_buoyancy_tank_location'
p294
g14
(g15
S't\xea\x15\x999\xa0\xf1>'
tRp295
sS'strain_ult_spar'
p296
F0.01
sS'expCabCR'
p297
F495.411
sS'base_hardware_cost_coeff'
p298
F0.69999999999999996
sS'annual_opex'
p299
F700000
sS'hub_cm'
p300
g8
(g9
(I0
tS'b'
tRp301
(I1
(I3
tg50
I00
S'ffffff\x1c\xc0\x00\x00\x00\x00\x00\x00\x00\x00\x00\x00\x00\x00\x00\x00\x06@'
tbsS'marMamProtAct'
p302
F500000
sS'sparT_in'
p303
g8
(g9
(I0
tS'b'
tRp304
(I1
(I5
tg50
I00
S'Xh\x82\xe1[b\xa0?\xfc\x8d\xa5=\x19\xa0\xa9?\xdcC!\x10\xd0\xcc\xb5?k\xcbD\xc9\xbc\xe8\xb3?~&\x13\xd1\x020\x88?'
tbsS'backUpGen'
p305
F1000000
sS'gamma_m'
p306
F1.3
sS'gamma_n'
p307
F1
sS'number_of_offset_columns'
p308
I3
sS'yaw'
p309
F0
sS'gamma_f'
p310
F1.3500000000000001
sS'offset_freeboard'
p311
g14
(g15
S'B\x15\x86\xaf%\xdd+@'
tRp312
sS'gamma_b'
p313
F1.1000000000000001
sS'bearings_mass_cost_coeff'
p314
F6.3499999999999996
sS'pileSpreadMob'
p315
F750000
sS'ballast_cost_rate'
p316
F100
sS'yaw_mass'
p317
F11878.24
sS'number_of_turbines'
p318
I20
sS'downwind'
p319
I00
sS'spinner_mass'
p320
F1810.5
sS'main_buoyancy_tank_diameter'
p321
g14
(g15
S'\xac\xfd\xcaL\x9c\x01\x1e@'
tRp322
sS'crane_cost'
p323
F0
sS'turbine_transportMultiplier'
p324
F0
sS'ssBall'
p325
F6
sS'vesselPosTurb'
p326
F2
sS'deaFixLeng'
p327
F0
sS'wave_height'
p328
F10.800000000000001
sS'cleanWatAct404'
p329
F100000
sS'anchor'
p330
I0
sS'estEnMFac'
p331
F0.040000000000000001
sS'gearbox_mass_cost_coeff'
p332
F17.399999999999999
sS'chord_in'
p333
g8
(g9
(I0
tS'b'
tRp334
(I1
(I5
tg50
I00
S'gfffff\x12@\rnk\x0b\xcf\xab\x12@r\xe0\xd5rg\xf6\x17@t\xc8\xb4\xe7\x15\x10\x08@ \r\xe0-\x90\xa0\xb8?'
tbsS'precurve_in'
p335
g8
(g9
(I0
tS'b'
tRp336
(I1
(I5
tg50
I00
S'\x00\x00\x00\x00\x00\x00\x00\x80\x97\xcc\xb1\xbc\xab\x1e\xa0\xbf\x11\x02\xf2%Tp\xc6\xbf\xc5\xd5\x86\xdf>1\xeb\xbfU\x84\x9b\x8c*\xd3\x18\xc0'
tbsS'catLengFac'
p337
F0.040000000000000001
sS'Myb_damage'
p338
g8
(g9
(I0
tS'b'
tRp339
(I1
(I51
tg50
I00
S'\x11\xea-\x81\x99\x97q=\x11\xea-\x81\x99\x97q=\x11\xea-\x81\x99\x97q=\x11\xea-\x81\x99\x97q=\x11\xea-\x81\x99\x97q=\x11\xea-\x81\x99\x97q=\x11\xea-\x81\x99\x97q=\x11\xea-\x81\x99\x97q=\x11\xea-\x81\x99\x97q=\x11\xea-\x81\x99\x97q=\x11\xea-\x81\x99\x97q=\x11\xea-\x81\x99\x97q=\x11\xea-\x81\x99\x97q=\x11\xea-\x81\x99\x97q=\x11\xea-\x81\x99\x97q=\x11\xea-\x81\x99\x97q=\x11\xea-\x81\x99\x97q=\x11\xea-\x81\x99\x97q=\x11\xea-\x81\x99\x97q=\x11\xea-\x81\x99\x97q=\x11\xea-\x81\x99\x97q=\x11\xea-\x81\x99\x97q=\x11\xea-\x81\x99\x97q=\x11\xea-\x81\x99\x97q=\x11\xea-\x81\x99\x97q=\x11\xea-\x81\x99\x97q=\x11\xea-\x81\x99\x97q=\x11\xea-\x81\x99\x97q=\x11\xea-\x81\x99\x97q=\x11\xea-\x81\x99\x97q=\x11\xea-\x81\x99\x97q=\x11\xea-\x81\x99\x97q=\x11\xea-\x81\x99\x97q=\x11\xea-\x81\x99\x97q=\x11\xea-\x81\x99\x97q=\x11\xea-\x81\x99\x97q=\x11\xea-\x81\x99\x97q=\x11\xea-\x81\x99\x97q=\x11\xea-\x81\x99\x97q=\x11\xea-\x81\x99\x97q=\x11\xea-\x81\x99\x97q=\x11\xea-\x81\x99\x97q=\x11\xea-\x81\x99\x97q=\x11\xea-\x81\x99\x97q=\x11\xea-\x81\x99\x97q=\x11\xea-\x81\x99\x97q=\x11\xea-\x81\x99\x97q=\x11\xea-\x81\x99\x97q=\x11\xea-\x81\x99\x97q=\x11\xea-\x81\x99\x97q=\x11\xea-\x81\x99\x97q='
tbsS'offset_buoyancy_tank_height'
p340
g14
(g15
S'\xbav\xbd=v"\x0b@'
tRp341
sS'offset_stiffener_spacing'
p342
g8
(g9
(I0
tS'b'
tRp343
(I1
(I5
tg12
I00
S'\x0ej\xcaj\xc4\xd2\n@\x00Q\xfd\x1a\xaaC>@\x89\x8c\x19\xb0\xb9\xecJ@\xf8\xfc L\xdb\x03*@\x02\x0e\xca0\xc1\xce.@'
tbsS'gamma_freq'
p344
F1.1000000000000001
sS'hss_mass'
p345
F1492.45
sS'placeTP'
p346
F3
sS'nac_mass'
p347
F297506.17875000002
sS'buryRate'
p348
F125
sS'max_survival_heel'
p349
F15
sS'shearExp'
p350
F0.11
sS'outConShelfLease'
p351
F1000000
sS'addLocPerm'
p352
F200000
sS'project_lifetime'
p353
F20
sS'hvac_mass'
p354
F1000
sS'offset_stiffener_flange_width'
p355
g8
(g9
(I0
tS'b'
tRp356
(I1
(I5
tg12
I00
S'4x\x98^\xe9$\xe1?\xc9Md\xc9\xfd\x9b\xa8?\xdd\xdd~3\x8f\xd4\xd8?"\x88f\x9e\xa4\x7f\xc5?/\x8cV\x04/]\xed?'
tbsS'nCrane600'
p357
F0
sS'installStrategy'
p358
I0
sS'distPort'
p359
F90
sS'fairlead_support_wall_thickness'
p360
g14
(g15
S'X\x84\xad\xde\xe9\x19\x93?'
tRp361
sS'removeHamJack'
p362
F4
sS'mtransCR'
p363
F3230
sS'boltNacelle1'
p364
F7
sS'mpileCR'
p365
F2250
sS'boltNacelle3'
p366
F7
sS'boltNacelle2'
p367
F7
sS'hubloss'
p368
I01
sS'cab1TurbInterCR'
p369
F8410
sS'bearing_number'
p370
I2
sS'loading'
p371
S'hydrostatic'
p372
sS'lower_ring_pontoons_int'
p373
g14
(g15
S'\x00\x00\x00\x00\x00\x00\x00\x00'
tRp374
sS'main_stiffener_web_height'
p375
g8
(g9
(I0
tS'b'
tRp376
(I1
(I5
tg12
I00
S'0m\xce*w\x7f\xdd?%\xc9\xa4\xb0d\xff\xef?x\x18\xcf\x9c\xbd^\xd1?\x99\x17J\xfb\x10\x87\xe3?Z\xe8k\xac5`\x86?'
tbsS'expVoltage'
p377
F220
sS'controls_cost_base'
p378
g8
(g9
(I0
tS'b'
tRp379
(I1
(I2
tg11
(S'f8'
I0
I1
tRp380
(I3
S'<'
NNNI-1
I-1
I0
tbI00
S'\x00\x00\x00\x00\x00\x17\xe1@\x00\x00\x00\x00\x80K\xeb@'
tbsS'fairlead_offset_from_shell'
p381
F6.0004865405187147
sS'rna_weightM'
p382
I01
sS'shuntCR'
p383
F35000
sS'dockRate'
p384
F3000
sS'subsVessPos'
p385
F6
sS'civilWork'
p386
F40000
sS'towerInstallMethod'
p387
I0
sS'migBirdAct'
p388
F500000
sS'max_draft'
p389
F20
sS'theta_in'
p390
g8
(g9
(I0
tS'b'
tRp391
(I1
(I5
tg50
I00
S'\x00\x00\x00\x00\x00\x00-@9\xb4\xc8v\xbe\x9f*@L7\x89A`\xe5\x1a@<r\x8e\x14\xc5X\xa1\xbf\x84l\xe7\xfb\xa9\xf1\xa2\xbf'
tbsS'cabDrillDist'
p392
F500
sS'topAssemblyFac'
p393
F0.074999999999999997
sS'fairlead_support_outer_diameter'
p394
g14
(g15
S'{\xf8\x0c\xed\xf7\xff#@'
tRp395
sS'interConVolt'
p396
F345
sS'offset_bulkhead_thickness'
p397
g8
(g9
(I0
tS'b'
tRp398
(I1
(I6
tg105
I00
S'\x9a\x99\x99\x99\x99\x99\xa9?\x9a\x99\x99\x99\x99\x99\xa9?\x00\x00\x00\x00\x00\x00\x00\x00\x00\x00\x00\x00\x00\x00\x00\x00\x00\x00\x00\x00\x00\x00\x00\x00\x9a\x99\x99\x99\x99\x99\xa9?'
tbsS'controls_esc'
p399
F1.5
sS'm_damage'
p400
F10
sS'shell_mass_factor'
p401
F1
sS'tower_mass_cost_coeff'
p402
F3.2000000000000002
sS'nBlades'
p403
I3
sS'expCabMass'
p404
F71.900000000000006
sS'subsPileCR'
p405
F2250
sS'wharfRate'
p406
F2.75
sS'Rhub'
p407
F1.125
sS'vs_electronics_mass_cost_coeff'
p408
F26.5
sS'tower_outfitting_factor'
p409
F1.0700000000000001
sS'scourMat'
p410
F250000
sS'laydownCR'
p411
F0.25
sS'hub_assemblyCostMultiplier'
p412
F0
sS'anchor_type'
p413
S'suctionpile'
p414
sS'jlatticeA'
p415
F26
sS'drivetrainType'
p416
I0
sS'pitch_extreme'
p417
F0
sS'main_wall_thickness'
p418
g8
(g9
(I0
tS'b'
tRp419
(I1
(I6
tg12
I00
S'\x8d,#\x12\\V\xaa?\x91L\x88h\xffL\xaf?J|\xc7\x8f,W\xae?\xd9N(9\xdaa\xa4?4\xdbXS\x18\xb9\xa6?\xd0\x8f\x9d\xb7\x05\xb9\xad?'
tbsS'mean_current_speed'
p420
F0
sS'nac_cm'
p421
g8
(g9
(I0
tS'b'
tRp422
(I1
(I3
tg50
I00
S'\x85\xebQ\xb8\x1e\x85\x05@\x00\x00\x00\x00\x00\x00\x00\x00333333\x03@'
tbsS'subsTopDes'
p423
F4500000
sS'moorLoadout'
p424
F5
sS'tower_section_height'
p425
g8
(g9
(I0
tS'b'
tRp426
(I1
(I5
tg105
I00
S'\x00\x00\x00\x00\x00\x00$@\x00\x10\xaeG\xe1z\x84?\xc3\xf5(\\\x8fBJ@\xcc\xcc\xcc\xcc\xcc\x8cJ@\x00)\\\x8f\xc2\xf5\n@'
tbsS'navStudyProj'
p427
F250000
sS'buryFac'
p428
F0.10000000000000001
sS'tapered_col_cost_rate'
p429
F4720
sS'cab2CR'
p430
F202.78800000000001
sS'air_density'
p431
F1.198
sS'offset_section_height'
p432
g8
(g9
(I0
tS'b'
tRp433
(I1
(I5
tg12
I00
S' F\x01\xa3\x0c\xaf\xee?\xd2\x8cn\xb6\xb9\xf7\xfb?\x8c\xee+9\x9d\xfb2@\\\xb2#\x93g+\xd8?\xd5\x10\t\x03o2\x17@'
tbsS'strain_ult_te'
p434
F0.0050000000000000001
sS'turbine_overheadCostMultiplier'
p435
F0
sS'placePiles'
p436
F12
sS'main_permanent_ballast_height'
p437
g14
(g15
S'\xf8#e*]\xa5\x11@'
tRp438
sS'diveTeamDR'
p439
F3200
sS'arrayY'
p440
F9
sS'bedplate_mass'
p441
F93090.600000000006
sS'mooring_line_length'
p442
g14
(g15
S'&\x91\xb2\xaa\x99\x96\xa6@'
tRp443
sS'wind_reference_speed'
p444
F11
sS'control_maxOmega'
p445
F8.887659696962098
sS'crane'
p446
I00
sS'hub_mass_cost_coeff'
p447
F3.7999999999999998
sS'operational_heel'
p448
F6
sS'removeHamMono'
p449
F2
sS'connection_ratio_max'
p450
F0.25
sS'hss_mass_cost_coeff'
p451
F8.25
sS'spMoorCheck'
p452
F16
sS'spinner_mass_cost_coeff'
p453
F23
sS'pileSpreadDR'
p454
F2500
sS'lss_mass'
p455
F31257.299999999999
sS'mooring_lines_per_connection'
p456
g14
(g15
S'\x00\x00\x00\x00\x00\x00\x00@'
tRp457
sS'anchor_radius'
p458
g14
(g15
S'\xd1\xe1E\xcf\xf1\xda\xa5@'
tRp459
sS'pontoon_outer_diameter'
p460
g14
(g15
S'I\x08\xa9\x9dz\xb5!@'
tRp461
sS'moorTimeFac'
p462
F0.0050000000000000001
sS'shorePullIn'
p463
F96
sS'natHisPresAct'
p464
F250000
sS'scrapVal'
p465
F0
sS'mooring_cost_rate'
p466
F1.1000000000000001
sS'bedplate_mass_cost_coeff'
p467
F4.5
sS'nu'
p468
F0.26000000000000001
sS'arrCab2Mass'
p469
F21.853999999999999
sS'E'
F200000000000
sS'cab2CurrRating'
p470
F340
sS'boltTower'
p471
F7
sS'cabLoadout'
p472
F14
sS'subsPullIn'
p473
F48
sS'vesselPosJack'
p474
F8
sS'nacelle_assemblyCostMultiplier'
p475
F0
sS'install_contingency'
p476
F0.29999999999999999
sS'mooring_type'
p477
S'chain'
p478
sS'decomDiscRate'
p479
F0.029999999999999999
s(lp480
(lp481
S'fairlead_location'
p482
aF0
aF1
aa(lp483
S'fairlead_support_wall_thickness'
p484
aF0.001
aF1
aa(lp485
S'fairlead_support_outer_diameter'
p486
aF0.10000000000000001
aF10
aa(lp487
S'main_freeboard'
p488
aF0
aF50
aa(lp489
S'main_section_height'
p490
aF0.10000000000000001
aF50
aa(lp491
S'main_outer_diameter'
p492
aF2.1000000000000001
aF40
aa(lp493
S'main_wall_thickness'
p494
aF0.001
aF0.5
aa(lp495
S'main_buoyancy_tank_diameter'
p496
aF0
aF50
aa(lp497
S'main_buoyancy_tank_height'
p498
aF0
aF20
aa(lp499
S'main_buoyancy_tank_location'
p500
aF0
aF1
aa(lp501
S'offset_freeboard'
p502
aF2
aF15
aa(lp503
S'offset_section_height'
p504
aF0.10000000000000001
aF50
aa(lp505
S'offset_outer_diameter'
p506
aF1.1000000000000001
aF40
aa(lp507
S'offset_wall_thickness'
p508
aF0.001
aF0.5
aa(lp509
S'offset_buoyancy_tank_diameter'
p510
aF0
aF50
aa(lp511
S'offset_buoyancy_tank_height'
p512
aF0
aF20
aa(lp513
S'offset_buoyancy_tank_location'
p514
aF0
aF1
aa(lp515
S'pontoon_outer_diameter'
p516
aF1
aF10
aa(lp517
S'pontoon_wall_thickness'
p518
aF0.01
aF1
aa(lp519
S'main_pontoon_attach_lower'
p520
aF0
aF0.5
aa(lp521
S'main_pontoon_attach_upper'
p522
aF0.5
aF1
aa(lp523
S'mooring_line_length'
p524
aF200
aF3000
aa(lp525
S'anchor_radius'
p526
aF100
aF5000
aa(lp527
S'mooring_diameter'
p528
aF0.050000000000000003
aF2
aa(lp529
S'main_permanent_ballast_height'
p530
aF0.10000000000000001
aF50
aa(lp531
S'main_stiffener_web_height'
p532
aF0.01
aF1
aa(lp533
S'main_stiffener_web_thickness'
p534
aF0.001
aF0.5
aa(lp535
S'main_stiffener_flange_width'
p536
aF0.01
aF5
aa(lp537
S'main_stiffener_flange_thickness'
p538
aF0.001
aF0.5
aa(lp539
S'main_stiffener_spacing'
p540
aF0.10000000000000001
aF100
aa(lp541
S'offset_stiffener_web_height'
p542
aF0.01
aF1
aa(lp543
S'offset_stiffener_web_thickness'
p544
aF0.001
aF0.5
aa(lp545
S'offset_stiffener_flange_width'
p546
aF0.01
aF5
aa(lp547
S'offset_stiffener_flange_thickness'
p548
aF0.001
aF0.5
aa(lp549
S'offset_stiffener_spacing'
p550
aF0.10000000000000001
aF100
aa(lp551
S'offset_permanent_ballast_height'
p552
aF0.10000000000000001
aF50
aa(lp553
S'radius_to_offset_column'
p554
aF5
aF100
aa(lp555
(lp556
S'tow.height_constraint'
p557
aF-0.01
aF0.01
aNaa(lp558
S'main.draft'
p559
aF0
aF20
aNaa(lp560
S'off.draft'
p561
aF0
aF20
aNaa(lp562
S'main.draft_margin'
p563
aF0
aF1
aNaa(lp564
S'off.draft_margin'
p565
aF0
aF1
aNaa(lp566
S'main.wave_height_freeboard_ratio'
p567
aNaF1
aNaa(lp568
S'off.wave_height_freeboard_ratio'
p569
aNaF1
aNaa(lp570
S'main_offset_spacing'
p571
aF1
aNaNaa(lp572
S'main.manufacturability'
p573
aF0
aNaNaa(lp574
S'main.weldability'
p575
aNaF0
aNaa(lp576
S'off.manufacturability'
p577
aF0
aNaNaa(lp578
S'off.weldability'
p579
aNaF0
aNaa(lp580
S'tower_transition_buffer'
p581
aF-1
aF1
aNaa(lp582
S'nacelle_transition_buffer'
p583
aF0
aNaNaa(lp584
S'offset_freeboard_heel_margin'
p585
aF0
aNaNaa(lp586
S'offset_draft_heel_margin'
p587
aF0
aF20
aNaa(lp588
S'axial_unity'
p589
aF0
aF1
aNaa(lp590
S'mooring_length_max'
p591
aNaF1
aNaa(lp592
S'main.flange_spacing_ratio'
p593
aNaF1
aNaa(lp594
S'main.stiffener_radius_ratio'
p595
aNaF0.5
aNaa(lp596
S'main.flange_compactness'
p597
aF1
aNaNaa(lp598
S'main.web_compactness'
p599
aF1
aNaNaa(lp600
S'main.axial_local_api'
p601
aNaF1
aNaa(lp602
S'main.axial_general_api'
p603
aNaF1
aNaa(lp604
S'main.external_local_api'
p605
aNaF1
aNaa(lp606
S'main.external_general_api'
p607
aNaF1
aNaa(lp608
S'off.flange_spacing_ratio'
p609
aNaF1
aNaa(lp610
S'off.stiffener_radius_ratio'
p611
aNaF0.5
aNaa(lp612
S'off.flange_compactness'
p613
aF1
aNaNaa(lp614
S'off.web_compactness'
p615
aF1
aNaNaa(lp616
S'off.axial_local_api'
p617
aNaF1
aNaa(lp618
S'off.axial_general_api'
p619
aNaF1
aNaa(lp620
S'off.external_local_api'
p621
aNaF1
aNaa(lp622
S'off.external_general_api'
p623
aNaF1
aNaa(lp624
S'pontoon_stress'
p625
aNaF1
aNaa(lp626
S'tower_stress'
p627
aNaF1
aNaa(lp628
S'tower_shell_buckling'
p629
aNaF1
aNaa(lp630
S'tower_global_buckling'
p631
aNaF1
aNaa(lp632
S'main_stress'
p633
aNaF1
aNaa(lp634
S'main_shell_buckling'
p635
aNaF1
aNaa(lp636
S'main_global_buckling'
p637
aNaF1
aNaa(lp638
S'offset_stress'
p639
aNaF1
aNaa(lp640
S'offset_shell_buckling'
p641
aNaF1
aNaa(lp642
S'offset_global_buckling'
p643
aNaF1
aNaa(lp644
S'variable_ballast_height_ratio'
p645
aF0
aF1
aNaa(lp646
S'variable_ballast_mass'
p647
aF0
aNaNaa(lp648
S'metacentric_height'
p649
aF0.10000000000000001
aNaNaa(lp650
S'offset_force_ratio'
p651
aNaF1
aNaa(lp652
S'heel_moment_ratio'
p653
aNaF1
aNaa(lp654
S'period_margin_low'
p655
aNaF1
aNaa(lp656
S'period_margin_high'
p657
aF1
aNaNaa(lp658
S'Pn_margin'
p659
aNaF1
aNaa(lp660
S'P1_margin'
p661
aNaF1
aNaa(lp662
S'Pn_margin_cfem'
p663
aNaF1
aNaa(lp664
S'P1_margin_cfem'
p665
aNaF1
aNaa(lp666
S'rotor_strain_sparU'
p667
aF-1
aNaNaa(lp668
S'rotor_strain_sparL'
p669
aNaF1
aNaa(lp670
S'rotor_strain_teU'
p671
aF-1
aNaNaa(lp672
S'rotor_strain_teL'
p673
aNaF1
aNaa(lp674
S'rotor_buckling_sparU'
p675
aNaF1
aNaa(lp676
S'rotor_buckling_sparL'
p677
aNaF1
aNaa(lp678
S'rotor_buckling_teU'
p679
aNaF1
aNaa(lp680
S'rotor_buckling_teL'
p681
aNaF1
aNaa(lp682
S'rotor_damage_sparU'
p683
aNaF0
aNaa(lp684
S'rotor_damage_sparL'
p685
aNaF0
aNaa(lp686
S'rotor_damage_teU'
p687
aNaF0
aNaa(lp688
S'rotor_damage_teL'
p689
aNaF0
aNaa(lp690
S'ground_clearance'
p691
aF20
aNaNaa(S'structural_mass'
p692
F9.9999999999999995e-07
tp693
S'NM'
p694
t.