((dp1
S'generator_mass'
p2
F16699.849999999999
sS'turbine_profitMultiplier'
p3
F0
sS'prepGripperJack'
p4
F8
sS'tpCover'
p5
F1.5
sS'cross_attachment_pontoons_int'
p6
cnumpy.core.multiarray
scalar
p7
(cnumpy
dtype
p8
(S'f8'
I0
I1
tRp9
(I3
S'<'
NNNI-1
I-1
I0
tbS'\x00\x00\x00\x00\x00\x00\x00\x00'
tRp10
sS'faaPlan'
p11
F10000
sS'transformer_mass'
p12
F1000
sS'otherAncillary'
p13
F3000000
sS'precurve_tip'
p14
F0
sS'jtransCR'
p15
F4500
sS'mpileD'
p16
F0
sS'medVoltSG'
p17
F500000
sS'mpileL'
p18
F0
sS'generator_mass_cost_coeff'
p19
F17.43
sS'auxiliary_bulkhead_thickness'
p20
cnumpy.core.multiarray
_reconstruct
p21
(cnumpy
ndarray
p22
(I0
tS'b'
tRp23
(I1
(I6
tg8
(S'f8'
I0
I1
tRp24
(I3
S'<'
NNNI-1
I-1
I0
tbI00
S'\x9a\x99\x99\x99\x99\x99\xa9?\x9a\x99\x99\x99\x99\x99\xa9?\x00\x00\x00\x00\x00\x00\x00\x00\x00\x00\x00\x00\x00\x00\x00\x00\x00\x00\x00\x00\x00\x00\x00\x00\x9a\x99\x99\x99\x99\x99\xa9?'
tbsS'jpileL'
p25
F47.5
sS'plantComm'
p26
F0.01
sS'subsLoad'
p27
F60
sS'jpileD'
p28
F1.6000000000000001
sS'capital_cost_year_4'
p29
F0
sS'main_bearing_mass'
p30
F4865.7049999999999
sS'cabPullIn'
p31
F5.5
sS'material_density'
p32
F7850
sS'dynCabFac'
p33
F2
sS'cab1CurrRating'
p34
F300
sS'crane600DR'
p35
F5000
sS'arrVoltage'
p36
F33
sS'elec_connec_cost_esc'
p37
F1.5
sS'gearbox_mass'
p38
F30237.599999999999
sS'construction_insurance'
p39
F0.01
sS'cab2SubsInterCR'
p40
F19815
sS'tax_rate'
p41
F0.40000000000000002
sS'presweep_in'
p42
g21
(g22
(I0
tS'b'
tRp43
(I1
(I5
tg8
(S'f8'
I0
I1
tRp44
(I3
S'<'
NNNI-1
I-1
I0
tbI00
S'\x00\x00\x00\x00\x00\x00\x00\x00\x00\x00\x00\x00\x00\x00\x00\x00\x00\x00\x00\x00\x00\x00\x00\x00\x00\x00\x00\x00\x00\x00\x00\x00\x00\x00\x00\x00\x00\x00\x00\x00'
tbsS'permanent_ballast_density'
p45
F4492
sS'auxiliary_freeboard'
p46
g7
(g9
S'\xe1\xf1%\xa2\xc1\xe4+@'
tRp47
sS'expCabLoad'
p48
F24
sS'groutSpreadMob'
p49
F1000000
sS'machine_rating'
p50
F10000000
sS'socEconStudyMet'
p51
F500000
sS'cleanWatAct402'
p52
F100000
sS'mpvRentalDR'
p53
F72000
sS'distAtoS'
p54
F90
sS'cover_mass'
p55
F1000
sS'lower_attachment_pontoons_int'
p56
g7
(g9
S'\x00\x00\x00\x00\x00\x00\xf0?'
tRp57
sS'usecd'
p58
I01
sS'surfLayRate'
p59
F375
sS'physResStudyProj'
p60
F500000
sS'seaSpreadDR'
p61
F165000
sS'z_offset'
p62
F0
sS'prepAA'
p63
F168
sS'number_of_mooring_connections'
p64
I3
sS'dynamic_amplication_tip_deflection'
p65
F1.3500000000000001
sS'mpEmbedL'
p66
F30
sS'arrCab1Mass'
p67
F20.384
sS'turbine_assemblyCostMultiplier'
p68
F0
sS'turbInstallMethod'
p69
I0
sS'tower_assemblyCostMultiplier'
p70
F0
sS'column_mass_factor'
p71
F1.05
sS'wave_period_range_low'
p72
F2
sS'yield_stress'
p73
F345000000
sS'rstar_damage'
p74
g21
(g22
(I0
tS'b'
tRp75
(I1
(I51
tg44
I00
S'\x00\x00\x00\x00\x00\x00\x00\x00{\x14\xaeG\xe1z\x94?{\x14\xaeG\xe1z\xa4?\xb8\x1e\x85\xebQ\xb8\xae?{\x14\xaeG\xe1z\xb4?\x9a\x99\x99\x99\x99\x99\xb9?\xb8\x1e\x85\xebQ\xb8\xbe?\xecQ\xb8\x1e\x85\xeb\xc1?{\x14\xaeG\xe1z\xc4?\n\xd7\xa3p=\n\xc7?\x9a\x99\x99\x99\x99\x99\xc9?)\\\x8f\xc2\xf5(\xcc?\xb8\x1e\x85\xebQ\xb8\xce?\xa4p=\n\xd7\xa3\xd0?\xecQ\xb8\x1e\x85\xeb\xd1?333333\xd3?{\x14\xaeG\xe1z\xd4?\xc3\xf5(\\\x8f\xc2\xd5?\n\xd7\xa3p=\n\xd7?R\xb8\x1e\x85\xebQ\xd8?\x9a\x99\x99\x99\x99\x99\xd9?\xe1z\x14\xaeG\xe1\xda?)\\\x8f\xc2\xf5(\xdc?q=\n\xd7\xa3p\xdd?\xb8\x1e\x85\xebQ\xb8\xde?\x00\x00\x00\x00\x00\x00\xe0?\xa4p=\n\xd7\xa3\xe0?H\xe1z\x14\xaeG\xe1?\xecQ\xb8\x1e\x85\xeb\xe1?\x8f\xc2\xf5(\\\x8f\xe2?333333\xe3?\xd7\xa3p=\n\xd7\xe3?{\x14\xaeG\xe1z\xe4?\x1f\x85\xebQ\xb8\x1e\xe5?\xc3\xf5(\\\x8f\xc2\xe5?gfffff\xe6?\n\xd7\xa3p=\n\xe7?\xaeG\xe1z\x14\xae\xe7?R\xb8\x1e\x85\xebQ\xe8?\xf6(\\\x8f\xc2\xf5\xe8?\x9a\x99\x99\x99\x99\x99\xe9?>\n\xd7\xa3p=\xea?\xe1z\x14\xaeG\xe1\xea?\x85\xebQ\xb8\x1e\x85\xeb?)\\\x8f\xc2\xf5(\xec?\xcd\xcc\xcc\xcc\xcc\xcc\xec?q=\n\xd7\xa3p\xed?\x15\xaeG\xe1z\x14\xee?\xb8\x1e\x85\xebQ\xb8\xee?\\\x8f\xc2\xf5(\\\xef?\x00\x00\x00\x00\x00\x00\xf0?'
tbsS'precone'
p76
F4
sS'nacelle_transportMultiplier'
p77
F0
sS'Mxb_damage'
p78
g21
(g22
(I0
tS'b'
tRp79
(I1
(I51
tg44
I00
S'\x11\xea-\x81\x99\x97q=\x11\xea-\x81\x99\x97q=\x11\xea-\x81\x99\x97q=\x11\xea-\x81\x99\x97q=\x11\xea-\x81\x99\x97q=\x11\xea-\x81\x99\x97q=\x11\xea-\x81\x99\x97q=\x11\xea-\x81\x99\x97q=\x11\xea-\x81\x99\x97q=\x11\xea-\x81\x99\x97q=\x11\xea-\x81\x99\x97q=\x11\xea-\x81\x99\x97q=\x11\xea-\x81\x99\x97q=\x11\xea-\x81\x99\x97q=\x11\xea-\x81\x99\x97q=\x11\xea-\x81\x99\x97q=\x11\xea-\x81\x99\x97q=\x11\xea-\x81\x99\x97q=\x11\xea-\x81\x99\x97q=\x11\xea-\x81\x99\x97q=\x11\xea-\x81\x99\x97q=\x11\xea-\x81\x99\x97q=\x11\xea-\x81\x99\x97q=\x11\xea-\x81\x99\x97q=\x11\xea-\x81\x99\x97q=\x11\xea-\x81\x99\x97q=\x11\xea-\x81\x99\x97q=\x11\xea-\x81\x99\x97q=\x11\xea-\x81\x99\x97q=\x11\xea-\x81\x99\x97q=\x11\xea-\x81\x99\x97q=\x11\xea-\x81\x99\x97q=\x11\xea-\x81\x99\x97q=\x11\xea-\x81\x99\x97q=\x11\xea-\x81\x99\x97q=\x11\xea-\x81\x99\x97q=\x11\xea-\x81\x99\x97q=\x11\xea-\x81\x99\x97q=\x11\xea-\x81\x99\x97q=\x11\xea-\x81\x99\x97q=\x11\xea-\x81\x99\x97q=\x11\xea-\x81\x99\x97q=\x11\xea-\x81\x99\x97q=\x11\xea-\x81\x99\x97q=\x11\xea-\x81\x99\x97q=\x11\xea-\x81\x99\x97q=\x11\xea-\x81\x99\x97q=\x11\xea-\x81\x99\x97q=\x11\xea-\x81\x99\x97q=\x11\xea-\x81\x99\x97q=\x11\xea-\x81\x99\x97q='
tbsS'base_stiffener_flange_thickness'
p80
g21
(g22
(I0
tS'b'
tRp81
(I1
(I5
tg8
(S'f8'
I0
I1
tRp82
(I3
S'<'
NNNI-1
I-1
I0
tbI00
S'\xe2\xf8\xb0Y\xd6\x9c\xb1?\x8cI~\x9c:l\xd7?\xeb\x9f\xbd\x0c\xd2\xcd\xc1?\xe5\x84\x8cn%\xe3\xdf?\xcax\xfe\xed\xda\n\xc8?'
tbsS'base_ballast_heave_box_height'
p83
g7
(g9
S'vTs9\x0eM\xfe?'
tRp84
sS'mooring_diameter'
p85
g7
(g9
S'_\\\xe9\x0ba\xb4\xd1?'
tRp86
sS'hub_mass'
p87
F105520
sS'cab1CR'
p88
F185.88900000000001
sS'cd_usr'
p89
Finf
sS'base_section_height'
p90
g21
(g22
(I0
tS'b'
tRp91
(I1
(I5
tg82
I00
S"\xff\x97#\x06\xa7\xfd'@\t n?w\xa8\xf8?\xa5[\x08\xf3]\x8b\x1b@\xd1\t\xe8\xf0\x8ab'@\xb9\x8a/\xd8oG'@"
tbsS'buryDepth'
p92
F2
sS'nac_I'
p93
g21
(g22
(I0
tS'b'
tRp94
(I1
(I6
tg44
I00
S'\x00\x00\x00`\xb4[\\A\x00\x00\x00\x8e\x82\ngA\x00\x00\x00\x8e\x82\ngA\x00\x00\x00\x00\x00\x00\x00\x00\x00\x00\x00\x00\x00\x00\x00\x00\x00\x00\x00\x00\x00\x00\x00\x00'
tbsS'monoFasten'
p95
F12
sS'tilt'
p96
F6
sS'base_stiffener_spacing'
p97
g21
(g22
(I0
tS'b'
tRp98
(I1
(I5
tg82
I00
S'\xd0\xbe\x8dM\x9c&%@\xa6\xab\xf7,\x1f~"@\xa8m\xb4\xfa\xa0/-@L\xdf|\xc0\x8d\x950@\xc9\xd8\xa6\xd9\x1e\xad:@'
tbsS'nSector'
p99
I4
sS'base_outer_diameter'
p100
g21
(g22
(I0
tS'b'
tRp101
(I1
(I6
tg82
I00
S'_QG7qF9@\xb3\x19;=b\xfb(@\x8a\xcd(K\xc2~\x1d@G;\xdf\xd8W\xa8$@/\xa33\x83\xdd\xa9!@\xf8\x03\x82\xf7\xcc\xb4#@'
tbsS'tower_wall_thickness'
p102
g21
(g22
(I0
tS'b'
tRp103
(I1
(I6
tg24
I00
S'\xe0\xa3p=\n\xd7\xd3?@33333\xd3?\x00R\xb8\x1e\x85\xeb\xc1?@\\\x8f\xc2\xf5(\xbc?\x80\x1e\x85\xebQ\xb8\xae?\x80\x1e\x85\xebQ\xb8\xae?'
tbsS'offshore'
p104
I01
sS'substructure'
p105
I3
sS'interest_during_construction'
p106
F0.080000000000000002
sS'placeMP'
p107
F3
sS'hubFraction'
p108
F0.023784901758014475
sS'feedStudy'
p109
F10000000
sS'preFEEDStudy'
p110
F5000000
sS'cableOptimizer'
p111
I00
sS'platforms_mass_cost_coeff'
p112
F8.6999999999999993
sS'hvac_mass_cost_coeff'
p113
F163.94999999999999
sS'upper_attachment_pontoons_int'
p114
g7
(g9
S'\x00\x00\x00\x00\x00\x00\x00\x00'
tRp115
sS'nepaEisMet'
p116
F2000000
sS'pontoon_cost_rate'
p117
F6.25
sS'yaw_mass_cost_coeff'
p118
F11.01
sS'auxiliary_section_height'
p119
g21
(g22
(I0
tS'b'
tRp120
(I1
(I5
tg82
I00
S'\xd4\x9b\xe6\xd6\xa9\xa1\xee?"u?.\x85<\xfc?%zX\x01\x1c\xfb2@\x7f4\xabUc\x0c\xd8?ei4\x99]5\x17@'
tbsS'subsTopFab'
p121
F14500
sS'auxiliary_permanent_ballast_height'
p122
g7
(g9
S'\x88\xd9^P\xaf;\xd4?'
tRp123
sS'elec_connec_machine_rating_cost_coeff'
p124
F40
sS'fixed_charge_rate'
p125
F0.12
sS'water_viscosity'
p126
F0.00088999999999999995
sS'spMoorCon'
p127
F20
sS'wind_reference_height'
p128
F119
sS'outfitting_cost_rate'
p129
F6980
sS'air_viscosity'
p130
F1.8099999999999999e-05
sS'shape_parameter'
p131
F0
sS'prepSemi'
p132
F12
sS'prepTow'
p133
F12
sS'control_Vout'
p134
F25
sS'max_taper_ratio'
p135
F0.40000000000000002
sS'hub_profitMultiplier'
p136
F0
sS'tower_overheadCostMultiplier'
p137
F0
sS'platforms_mass'
p138
F1000
sS'socEconStudyProj'
p139
F200000
sS'gust_stddev'
p140
I3
sS'base_ballast_heave_box_diameter'
p141
g7
(g9
S'\xd7\x10X\xcf\xbe7\x1d@'
tRp142
sS'wave_period_range_high'
p143
F20
sS'vs_electronics_mass'
p144
F1000
sS'auxiliary_stiffener_flange_width'
p145
g21
(g22
(I0
tS'b'
tRp146
(I1
(I5
tg82
I00
S'\x96\xbf\x18W\xdf\x1f\xe1?\xe2\x127R(\xc4\xa8?N{\x99\xd4\xed\xdf\xd8?\xd3LB\xd1\x84,\xc5?V\xd1\xad^\xb6\x8a\xed?'
tbsS'inspectClear'
p147
F2
sS'teT_in'
p148
g21
(g22
(I0
tS'b'
tRp149
(I1
(I5
tg44
I00
S'\xf4(\xfb\x97\x18\x81\xa5?\xad\xb1B\x13!\x8a\xb0?\xaf\xbf\xedj\xe1\xd6\xab?Y\xc3\xb4`\x17}\x90?\xe24"\xc9\xe3Gl?'
tbsS'mooring_max_offset'
p150
F100
sS'morison_mass_coefficient'
p151
F2
sS'mooring_operational_heel'
p152
F6
sS'seaSpreadMob'
p153
F4500000
sS'wind_bottom_height'
p154
F0
sS'safety_factor_stress'
p155
F1.3500000000000001
sS'safety_factor_materials'
p156
F1.3
sS'stateLease'
p157
F250000
sS'ssMoorCheck'
p158
F12
sS'tower_outer_diameter'
p159
g21
(g22
(I0
tS'b'
tRp160
(I1
(I6
tg24
I00
S'\x00\x00\x00\x00\x00\x00"@\x00\x00\x00\x00\x00\x00"@\x9a\x99\x99\x99\x99\x99 @\xa4p=\n\xd7\xa3\x1b@\x00\x00\x00\x00\x00\x00\x16@\x00\x00\x00\x00\x00\x00\x16@'
tbsS'conOpPlan'
p161
F1000000
sS'outfitting_mass_fraction'
p162
F0.059999999999999998
sS'capital_cost_year_2'
p163
F0.10000000000000001
sS'capital_cost_year_3'
p164
F0.10000000000000001
sS'capital_cost_year_0'
p165
F0.20000000000000001
sS'capital_cost_year_1'
p166
F0.59999999999999998
sS'G'
F79300000000
sS'capital_cost_year_5'
p167
F0
sS'control_minOmega'
p168
F6
sS'pitch_system_mass'
p169
F17004
sS'cabTerm'
p170
F5.5
sS'workSpace'
p171
F2000000
sS'vesselPosMono'
p172
F3
sS'boltBlade1'
p173
F3.5
sS'groutTP'
p174
F8
sS'boltBlade2'
p175
F3.5
sS'wind_beta'
p176
F0
sS'landConstruct'
p177
F7
sS'subsJackCR'
p178
F6250
sS'tiploss'
p179
I01
sS'hub_overheadCostMultiplier'
p180
F0
sS'control_pitch'
p181
F0
sS'azimuth_extreme'
p182
F0
sS'prepSpar'
p183
F18
sS'number_install_seasons'
p184
F1
sS'transformer_mass_cost_coeff'
p185
F26.5
sS'turbine_class'
p186
I0
sS'distInterCon'
p187
F3
sS'rivsnHarbsAct'
p188
F100000
sS'navStudyMet'
p189
F500000
sS'jackFasten'
p190
F20
sS'coastZoneManAct'
p191
F100000
sS'distPtoA'
p192
F90
sS'auxiliary_stiffener_spacing'
p193
g21
(g22
(I0
tS'b'
tRp194
(I1
(I5
tg82
I00
S';\xbb\x9f+3\x03\x0b@\xd8\xe8\x14d\xccv>@H\xb8&\x02\x8bHJ@\x14\xbe\x9b\xea\x0c\xff)@q\xb9V\xc7\xe7v/@'
tbsS'saPlan'
p195
F500000
sS'nCrane1000'
p196
F0
sS'bioResStudyMet'
p197
F1500000
sS'procurement_contingency'
p198
F0.050000000000000003
sS'jpileCR'
p199
F2250
sS'metTowCR'
p200
F11518
sS'jlatticeCR'
p201
F4680
sS'outer_cross_pontoons_int'
p202
g7
(g9
S'\x00\x00\x00\x00\x00\x00\x00\x00'
tRp203
sS'water_depth'
p204
F320
sS'control_tsr'
p205
F10.58
sS'VfactorPC'
p206
F0.69999999999999996
sS'levJack'
p207
F24
sS'pwrFac'
p208
F0.94999999999999996
sS'placeJack'
p209
F12
sS'upper_ring_pontoons_int'
p210
g7
(g9
S'\x00\x00\x00\x00\x00\x00\x00\x00'
tRp211
sS'number_of_auxiliary_columns'
p212
I3
sS'endSpecAct'
p213
F500000
sS'AEP_loss_factor'
p214
F1
sS'prepHamJack'
p215
F2
sS'water_density'
p216
F1025
sS'arrayX'
p217
F9
sS'expSubsInterCR'
p218
F57500
sS'min_diameter_thickness_ratio'
p219
F120
sS'blade_mass_cost_coeff'
p220
F13.08
sS'turbFasten'
p221
F8
sS'hub_transportMultiplier'
p222
F0
sS'pitch_system_mass_cost_coeff'
p223
F22.91
sS'upendSpar'
p224
F36
sS'hub_I'
p225
g21
(g22
(I0
tS'b'
tRp226
(I1
(I6
tg44
I00
S'\x9eV\xe4\xeaZ\xe2\x13AGl\x9d\xa5\xf1\xda\x08AGl\x9d\xa5\xf1\xda\x08A\x00\x00\x00\x00\x00\x00\x00\x00\x00\x00\x00\x00\x00\x00\x00\x00\x00\x00\x00\x00\x00\x00\x00\x00'
tbsS'expCurrRating'
p227
F530
sS'turbulence_class'
p228
I1
sS'cover_mass_cost_coeff'
p229
F7.6100000000000003
sS'entranceExitRate'
p230
F0.52500000000000002
sS'lss_mass_cost_coeff'
p231
F12.6
sS'exCabFac'
p232
F0.10000000000000001
sS'moorSurvey'
p233
F4
sS'hub_height'
p234
F149
sS'groutSpreadDR'
p235
F3000
sS'craneMobDemob'
p236
F150000
sS'bladeLength'
p237
F96.700000000000003
sS'placeTop'
p238
F24
sS'discount_rate'
p239
F0.070000000000000007
sS'presweep_tip'
p240
F0
sS'auxiliary_stiffener_flange_thickness'
p241
g21
(g22
(I0
tS'b'
tRp242
(I1
(I5
tg82
I00
S'\x07*\x07\x88\xc6\xfe\xd2?9\x1bx1\x85\xd2\xdf?\x0e\x8d4\xc1\xa9\x8f\xcb?\x7f\xda\x03\xa5w\x01\xc4?w3\x13f\x12q\xc4?'
tbsS'tower_transportMultiplier'
p243
F0
sS'mptCR'
p244
F12500
sS'base_pontoon_attach_lower'
p245
g7
(g9
S'\xf2g\x9fkD\xe1\xb9?'
tRp246
sS'base_stiffener_web_thickness'
p247
g21
(g22
(I0
tS'b'
tRp248
(I1
(I5
tg82
I00
S'\xc7\xe5n\xd6\xda\x10\xb7?\x87\x1d\xcd\x89\xe8\xea\xdf?*<\x83\xa3\x10\x8d\xc5?\xbc\x11|\xb3\xeeG\xc1?r\xe3\xca\xbbW=\xac?'
tbsS'winchDR'
p249
F1000
sS'instScour'
p250
F6
sS'r_max_chord'
p251
g7
(g9
S'\x9b\xe6\x1d\xa7\xe8H\xce?'
tRp252
sS'ssMoorCon'
p253
F22
sS'auxiliary_outer_diameter'
p254
g21
(g22
(I0
tS'b'
tRp255
(I1
(I6
tg82
I00
S'\xe2\x82\xd2(\xfe\x07(@1\x12\x19\x924w:@\x0c\xa1\x0bnh\x86%@\x01\x11\xcb\x14\x11\x93"@[\xe2*\xacn\x08\x1b@\xd7\x95\x86s\x81\xd2\x18@'
tbsS'bioResStudyProj'
p256
F500000
sS'placeTemplate'
p257
F4
sS'elecWork'
p258
F25000
sS'compRacks'
p259
F1000000
sS'distShore'
p260
F90
sS'bulkhead_mass_factor'
p261
F1
sS'elecCont'
p262
F0.29999999999999999
sS'cabSurveyCR'
p263
F240
sS'ssHeaveCR'
p264
F6250
sS'highVoltSG'
p265
F950000
sS'prepGripperMono'
p266
F1.5
sS'nacelleL'
p267
F-inf
sS'cab2TurbInterCR'
p268
F8615
sS'hamRate'
p269
F20
sS'nacelle_overheadCostMultiplier'
p270
F0
sS'crane1000DR'
p271
F8000
sS'nacelle_profitMultiplier'
p272
F0
sS'nacelleW'
p273
F-inf
sS'dummy_mass'
p274
F9.9999999999999998e-13
sS'tower_buckling_length'
p275
F30
sS'substructCont'
p276
F0.29999999999999999
sS'control_Vin'
p277
F4
sS'turbCont'
p278
F0.29999999999999999
sS'wave_period'
p279
F9.8000000000000007
sS'safety_factor_frequency'
p280
F1.1000000000000001
sS'prepHamMono'
p281
F2
sS'wakerotation'
p282
I01
sS'tower_profitMultiplier'
p283
F0
sS'nepaEisProj'
p284
F5000000
sS'pontoon_wall_thickness'
p285
g7
(g9
S'\xf9\x8f\x00\x94\xd3i\x94?'
tRp286
sS'cabDrillCR'
p287
F3200
sS'physResStudyMet'
p288
F1500000
sS'base_bulkhead_thickness'
p289
g21
(g22
(I0
tS'b'
tRp290
(I1
(I6
tg24
I00
S'\x9a\x99\x99\x99\x99\x99\xa9?\x9a\x99\x99\x99\x99\x99\xa9?\x00\x00\x00\x00\x00\x00\x00\x00\x00\x00\x00\x00\x00\x00\x00\x00\x00\x00\x00\x00\x00\x00\x00\x00\x9a\x99\x99\x99\x99\x99\xa9?'
tbsS'strain_ult_spar'
p291
F0.01
sS'expCabCR'
p292
F495.411
sS'base_hardware_cost_coeff'
p293
F0.69999999999999996
sS'annual_opex'
p294
F700000
sS'hub_cm'
p295
g21
(g22
(I0
tS'b'
tRp296
(I1
(I3
tg44
I00
S'ffffff\x1c\xc0\x00\x00\x00\x00\x00\x00\x00\x00\x00\x00\x00\x00\x00\x00\x06@'
tbsS'marMamProtAct'
p297
F500000
sS'sparT_in'
p298
g21
(g22
(I0
tS'b'
tRp299
(I1
(I5
tg44
I00
S'Xh\x82\xe1[b\xa0?\xfc\x8d\xa5=\x19\xa0\xa9?\xdcC!\x10\xd0\xcc\xb5?k\xcbD\xc9\xbc\xe8\xb3?~&\x13\xd1\x020\x88?'
tbsS'backUpGen'
p300
F1000000
sS'laydownCR'
p301
F0.25
sS'auxiliary_ballast_heave_box_location'
p302
g7
(g9
S'\xad\x14\xc2%A\xd6\xa4?'
tRp303
sS'yaw'
p304
F0
sS'bearings_mass_cost_coeff'
p305
F6.3499999999999996
sS'pileSpreadMob'
p306
F750000
sS'ballast_cost_rate'
p307
F100
sS'yaw_mass'
p308
F11878.24
sS'number_of_turbines'
p309
I20
sS'downwind'
p310
I00
sS'spinner_mass'
p311
F1810.5
sS'crane_cost'
p312
F0
sS'turbine_transportMultiplier'
p313
F0
sS'ssBall'
p314
F6
sS'vesselPosTurb'
p315
F2
sS'ring_mass_factor'
p316
F1
sS'wave_height'
p317
F10.800000000000001
sS'cleanWatAct404'
p318
F100000
sS'anchor'
p319
I0
sS'estEnMFac'
p320
F0.040000000000000001
sS'gearbox_mass_cost_coeff'
p321
F17.399999999999999
sS'chord_in'
p322
g21
(g22
(I0
tS'b'
tRp323
(I1
(I5
tg44
I00
S'gfffff\x12@\rnk\x0b\xcf\xab\x12@r\xe0\xd5rg\xf6\x17@t\xc8\xb4\xe7\x15\x10\x08@ \r\xe0-\x90\xa0\xb8?'
tbsS'precurve_in'
p324
g21
(g22
(I0
tS'b'
tRp325
(I1
(I5
tg44
I00
S'\x00\x00\x00\x00\x00\x00\x00\x80\x97\xcc\xb1\xbc\xab\x1e\xa0\xbf\x11\x02\xf2%Tp\xc6\xbf\xc5\xd5\x86\xdf>1\xeb\xbfU\x84\x9b\x8c*\xd3\x18\xc0'
tbsS'catLengFac'
p326
F0.040000000000000001
sS'Myb_damage'
p327
g21
(g22
(I0
tS'b'
tRp328
(I1
(I51
tg44
I00
S'\x11\xea-\x81\x99\x97q=\x11\xea-\x81\x99\x97q=\x11\xea-\x81\x99\x97q=\x11\xea-\x81\x99\x97q=\x11\xea-\x81\x99\x97q=\x11\xea-\x81\x99\x97q=\x11\xea-\x81\x99\x97q=\x11\xea-\x81\x99\x97q=\x11\xea-\x81\x99\x97q=\x11\xea-\x81\x99\x97q=\x11\xea-\x81\x99\x97q=\x11\xea-\x81\x99\x97q=\x11\xea-\x81\x99\x97q=\x11\xea-\x81\x99\x97q=\x11\xea-\x81\x99\x97q=\x11\xea-\x81\x99\x97q=\x11\xea-\x81\x99\x97q=\x11\xea-\x81\x99\x97q=\x11\xea-\x81\x99\x97q=\x11\xea-\x81\x99\x97q=\x11\xea-\x81\x99\x97q=\x11\xea-\x81\x99\x97q=\x11\xea-\x81\x99\x97q=\x11\xea-\x81\x99\x97q=\x11\xea-\x81\x99\x97q=\x11\xea-\x81\x99\x97q=\x11\xea-\x81\x99\x97q=\x11\xea-\x81\x99\x97q=\x11\xea-\x81\x99\x97q=\x11\xea-\x81\x99\x97q=\x11\xea-\x81\x99\x97q=\x11\xea-\x81\x99\x97q=\x11\xea-\x81\x99\x97q=\x11\xea-\x81\x99\x97q=\x11\xea-\x81\x99\x97q=\x11\xea-\x81\x99\x97q=\x11\xea-\x81\x99\x97q=\x11\xea-\x81\x99\x97q=\x11\xea-\x81\x99\x97q=\x11\xea-\x81\x99\x97q=\x11\xea-\x81\x99\x97q=\x11\xea-\x81\x99\x97q=\x11\xea-\x81\x99\x97q=\x11\xea-\x81\x99\x97q=\x11\xea-\x81\x99\x97q=\x11\xea-\x81\x99\x97q=\x11\xea-\x81\x99\x97q=\x11\xea-\x81\x99\x97q=\x11\xea-\x81\x99\x97q=\x11\xea-\x81\x99\x97q=\x11\xea-\x81\x99\x97q='
tbsS'hss_mass'
p329
F1492.45
sS'base_wall_thickness'
p330
g21
(g22
(I0
tS'b'
tRp331
(I1
(I6
tg82
I00
S'f\xd3\xf5\x94\xd1\x1f\xaa?6fA\x00\x0e\xa4\xaf?\x8b\x859\x1cI\x92\xae?\x18c\xa1\x85\x8cK\xa4?(\xcab4)\xf4\xa6?l\xf5%`&"\xae?'
tbsS'placeTP'
p332
F3
sS'nac_mass'
p333
F223018.125
sS'buryRate'
p334
F125
sS'max_survival_heel'
p335
F15
sS'auxiliary_stiffener_web_height'
p336
g21
(g22
(I0
tS'b'
tRp337
(I1
(I5
tg82
I00
S'\xe0\x879\x1f\x97 \xc7?\xff\xa7\x1e\x1b\x94\x9f\xda?:@\x16\xc6v\xd0\xc0?\x92\xfa\x0c\xde\x8e\xa5\xb1?\x10\xcc\x86\xfc\xae\xfd\xbb?'
tbsS'shearExp'
p338
F0.11
sS'outConShelfLease'
p339
F1000000
sS'addLocPerm'
p340
F200000
sS'project_lifetime'
p341
F20
sS'hvac_mass'
p342
F1000
sS'nCrane600'
p343
F0
sS'installStrategy'
p344
I0
sS'distPort'
p345
F90
sS'removeHamJack'
p346
F4
sS'mtransCR'
p347
F3230
sS'boltNacelle1'
p348
F7
sS'mpileCR'
p349
F2250
sS'boltNacelle3'
p350
F7
sS'boltNacelle2'
p351
F7
sS'hubloss'
p352
I01
sS'cab1TurbInterCR'
p353
F8410
sS'bearing_number'
p354
I2
sS'loading'
p355
S'hydrostatic'
p356
sS'lower_ring_pontoons_int'
p357
g7
(g9
S'\x00\x00\x00\x00\x00\x00\x00\x00'
tRp358
sS'expVoltage'
p359
F220
sS'controls_cost_base'
p360
g21
(g22
(I0
tS'b'
tRp361
(I1
(I2
tg44
I00
S'\x00\x00\x00\x00\x00\x17\xe1@\x00\x00\x00\x00\x80K\xeb@'
tbsS'fairlead_offset_from_shell'
p362
F6.0004865405187147
sS'rna_weightM'
p363
I01
sS'shuntCR'
p364
F35000
sS'dockRate'
p365
F3000
sS'subsVessPos'
p366
F6
sS'civilWork'
p367
F40000
sS'towerInstallMethod'
p368
I0
sS'migBirdAct'
p369
F500000
sS'fairlead_support_wall_thickness'
p370
g7
(g9
S'E#\xd0g\xad\xf1\x92?'
tRp371
sS'safety_factor_fatigue'
p372
F1.7550000000000001
sS'theta_in'
p373
g21
(g22
(I0
tS'b'
tRp374
(I1
(I5
tg44
I00
S'\x00\x00\x00\x00\x00\x00-@9\xb4\xc8v\xbe\x9f*@L7\x89A`\xe5\x1a@<r\x8e\x14\xc5X\xa1\xbf\x84l\xe7\xfb\xa9\xf1\xa2\xbf'
tbsS'cabDrillDist'
p375
F500
sS'boltRotor'
p376
F7
sS'base_ballast_heave_box_location'
p377
g7
(g9
S'{u\x1b\xcc5/\xf1>'
tRp378
sS'topAssemblyFac'
p379
F0.074999999999999997
sS'fairlead_support_outer_diameter'
p380
g7
(g9
S'\xa3\x81\x94\xf8\xf1\xff#@'
tRp381
sS'interConVolt'
p382
F345
sS'controls_esc'
p383
F1.5
sS'safety_factor_consequence'
p384
F1
sS'shell_mass_factor'
p385
F1
sS'tower_mass_cost_coeff'
p386
F3.2000000000000002
sS'nBlades'
p387
I3
sS'expCabMass'
p388
F71.900000000000006
sS'subsPileCR'
p389
F2250
sS'wharfRate'
p390
F2.75
sS'vs_electronics_mass_cost_coeff'
p391
F26.5
sS'tower_outfitting_factor'
p392
F1.0700000000000001
sS'safety_factor_buckling'
p393
F1.1000000000000001
sS'scourMat'
p394
F250000
sS'hub_assemblyCostMultiplier'
p395
F0
sS'anchor_type'
p396
S'suctionpile'
p397
sS'jlatticeA'
p398
F26
sS'radius_to_auxiliary_column'
p399
g7
(g9
S'wc,4z\xe8J@'
tRp400
sS'auxiliary_ballast_heave_box_height'
p401
g7
(g9
S'\x81\xbacDio\x0b@'
tRp402
sS'drivetrainType'
p403
I0
sS'base_stiffener_flange_width'
p404
g21
(g22
(I0
tS'b'
tRp405
(I1
(I5
tg82
I00
S'\xaa[y\xb0\xb1\xa4\xb0?K\xa6\xc9\x93j\x1d\xd7?\x84\xe0\xa0T\x0c\xe7\xfe?\x9e`\xd2\xb9\xec\xc6\xef?]\xd8\x8f/\xac\xd6\xde?'
tbsS'pitch_extreme'
p406
F0
sS'mean_current_speed'
p407
F0
sS'nac_cm'
p408
g21
(g22
(I0
tS'b'
tRp409
(I1
(I3
tg44
I00
S'\x85\xebQ\xb8\x1e\x85\x05@\x00\x00\x00\x00\x00\x00\x00\x00333333\x03@'
tbsS'subsTopDes'
p410
F4500000
sS'moorLoadout'
p411
F5
sS'fairlead'
p412
g7
(g9
S'x\xc90i\xf3w\x1f@'
tRp413
sS'tower_section_height'
p414
g21
(g22
(I0
tS'b'
tRp415
(I1
(I5
tg24
I00
S'\x00\x00\x00\x00\x00\x00$@\x00\x10\xaeG\xe1z\x84?\xc3\xf5(\\\x8fBJ@\xcc\xcc\xcc\xcc\xcc\x8cJ@\x00)\\\x8f\xc2\xf5\n@'
tbsS'navStudyProj'
p416
F250000
sS'buryFac'
p417
F0.10000000000000001
sS'tapered_col_cost_rate'
p418
F4720
sS'auxiliary_stiffener_web_thickness'
p419
g21
(g22
(I0
tS'b'
tRp420
(I1
(I5
tg82
I00
S'\xca\xb9\x8e\x87\x97\xa5\xdf?\xc0\x82~\x0f\xec\xdc\xc3?\x7f\xe4(\xb1Zqx?\x9ba(\xb6\xca\xbek?\x97\x9a$ P\xca\x97?'
tbsS'cab2CR'
p421
F202.78800000000001
sS'air_density'
p422
F1.198
sS'strain_ult_te'
p423
F0.0050000000000000001
sS'auxiliary_ballast_heave_box_diameter'
p424
g7
(g9
S"l\x93\xc3\x9f\xe1'%@"
tRp425
sS'base_freeboard'
p426
g7
(g9
S'\rg\x0bg\xc9\xff=@'
tRp427
sS'turbine_overheadCostMultiplier'
p428
F0
sS'placePiles'
p429
F12
sS'auxiliary_wall_thickness'
p430
g21
(g22
(I0
tS'b'
tRp431
(I1
(I6
tg82
I00
S'+\xbd\x9e\xba\xa4\x93\xb9?X\xdc%j\xa3-\xc9?\x99\x18\x0e\\\x01\x13\xb4?\x1e\xa8\xf8\xcc\x1b\x1e\x96?\xe03\xe3\x15\xd9+\xa6?N\xddi\x11\xb94q?'
tbsS'diveTeamDR'
p432
F3200
sS'arrayY'
p433
F9
sS'bedplate_mass'
p434
F93090.600000000006
sS'mooring_line_length'
p435
g7
(g9
S'A\xdbP\xcb\xb4\x98\xa6@'
tRp436
sS'wind_reference_speed'
p437
F11
sS'control_maxOmega'
p438
F8.887659696962098
sS'crane'
p439
I00
sS'hub_mass_cost_coeff'
p440
F3.7999999999999998
sS'base_stiffener_web_height'
p441
g21
(g22
(I0
tS'b'
tRp442
(I1
(I5
tg82
I00
S'\xd2%\x1fT<\x10\xdd?R\xf6G2y\xff\xef?50YX\xeb\x18\xd1?\xdf\xbe \x1f\xd8\x81\xe3?2\xeava\x8b\xc9\x86?'
tbsS'base_pontoon_attach_upper'
p443
g7
(g9
S'oK\xa3!\x9d\x8a\xed?'
tRp444
sS'removeHamMono'
p445
F2
sS'connection_ratio_max'
p446
F0.25
sS'hss_mass_cost_coeff'
p447
F8.25
sS'spMoorCheck'
p448
F16
sS'spinner_mass_cost_coeff'
p449
F23
sS'pileSpreadDR'
p450
F2500
sS'lss_mass'
p451
F31257.299999999999
sS'm_damage'
p452
F10
sS'mooring_lines_per_connection'
p453
g7
(g9
S'\x00\x00\x00\x00\x00\x00\x00@'
tRp454
sS'anchor_radius'
p455
g7
(g9
S'\xe3\xd7k\x84\x7f\xd9\xa5@'
tRp456
sS'base_permanent_ballast_height'
p457
g7
(g9
S'\xf3P\xa2\xcec\xc4\x13@'
tRp458
sS'pontoon_outer_diameter'
p459
g7
(g9
S'\xcc\x9f%\x95\xf7\xcb!@'
tRp460
sS'moorTimeFac'
p461
F0.0050000000000000001
sS'shorePullIn'
p462
F96
sS'natHisPresAct'
p463
F250000
sS'scrapVal'
p464
F0
sS'mooring_cost_rate'
p465
F1.1000000000000001
sS'bedplate_mass_cost_coeff'
p466
F4.5
sS'nu'
p467
F0.26000000000000001
sS'arrCab2Mass'
p468
F21.853999999999999
sS'E'
F200000000000
sS'cab2CurrRating'
p469
F340
sS'boltTower'
p470
F7
sS'cabLoadout'
p471
F14
sS'subsPullIn'
p472
F48
sS'vesselPosJack'
p473
F8
sS'nacelle_assemblyCostMultiplier'
p474
F0
sS'install_contingency'
p475
F0.29999999999999999
sS'mooring_type'
p476
S'chain'
p477
sS'decomDiscRate'
p478
F0.029999999999999999
s(lp479
(lp480
g412
aF0
aF20
aa(lp481
g370
aF0.001
aF1
aa(lp482
g380
aF0.10000000000000001
aF10
aa(lp483
g426
aF0
aF50
aa(lp484
g90
aF0.10000000000000001
aF50
aa(lp485
g100
aF2.1000000000000001
aF40
aa(lp486
g330
aF0.001
aF0.5
aa(lp487
g141
aF0
aF50
aa(lp488
g83
aF0
aF20
aa(lp489
g377
aF0
aF1
aa(lp490
g46
aF2
aF15
aa(lp491
g119
aF0.10000000000000001
aF50
aa(lp492
g254
aF1.1000000000000001
aF40
aa(lp493
g430
aF0.001
aF0.5
aa(lp494
g424
aF0
aF50
aa(lp495
g401
aF0
aF20
aa(lp496
g302
aF0
aF1
aa(lp497
g459
aF1
aF10
aa(lp498
g285
aF0.01
aF1
aa(lp499
g245
aF0
aF0.5
aa(lp500
g443
aF0.5
aF1
aa(lp501
g435
aF200
aF3000
aa(lp502
g455
aF100
aF5000
aa(lp503
g85
aF0.050000000000000003
aF2
aa(lp504
g457
aF0.10000000000000001
aF50
aa(lp505
g441
aF0.01
aF1
aa(lp506
g247
aF0.001
aF0.5
aa(lp507
g404
aF0.01
aF5
aa(lp508
g80
aF0.001
aF0.5
aa(lp509
g97
aF0.10000000000000001
aF100
aa(lp510
g336
aF0.01
aF1
aa(lp511
g419
aF0.001
aF0.5
aa(lp512
g145
aF0.01
aF5
aa(lp513
g241
aF0.001
aF0.5
aa(lp514
g193
aF0.10000000000000001
aF100
aa(lp515
g122
aF0.10000000000000001
aF50
aa(lp516
g399
aF5
aF100
aa(lp517
(lp518
S'sm.tow.height_constraint'
p519
aF-0.01
aF0.01
aNaa(lp520
S'sm.base.draft'
p521
aF0
aF20
aNaa(lp522
S'sm.aux.draft'
p523
aF0
aF20
aNaa(lp524
S'sm.base.draft_depth_ratio'
p525
aNaF0.90000000000000002
aNaa(lp526
S'sm.aux.draft_depth_ratio'
p527
aNaF0.90000000000000002
aNaa(lp528
S'sm.base.wave_height_freeboard_ratio'
p529
aNaF1
aNaa(lp530
S'sm.aux.wave_height_freeboard_ratio'
p531
aNaF1
aNaa(lp532
S'sm.aux.fairlead_draft_ratio'
p533
aF0
aF20
aNaa(lp534
S'sm.sg.base_auxiliary_spacing'
p535
aF1
aNaNaa(lp536
S'sm.base.manufacturability'
p537
aF0
aNaNaa(lp538
S'sm.base.weldability'
p539
aNaF0
aNaa(lp540
S'sm.aux.manufacturability'
p541
aF0
aNaNaa(lp542
S'sm.aux.weldability'
p543
aNaF0
aNaa(lp544
S'sm.sg.tower_transition_buffer'
p545
aF-1
aF1
aNaa(lp546
S'sm.sg.nacelle_transition_buffer'
p547
aF0
aNaNaa(lp548
S'sm.sg.auxiliary_freeboard_heel_margin'
p549
aF0
aNaNaa(lp550
S'sm.sg.auxiliary_draft_heel_margin'
p551
aF0
aF20
aNaa(lp552
S'sm.mm.axial_unity'
p553
aF0
aF1
aNaa(lp554
S'sm.mm.mooring_length_max'
p555
aNaF1
aNaa(lp556
S'sm.base.flange_spacing_ratio'
p557
aNaF1
aNaa(lp558
S'sm.base.stiffener_radius_ratio'
p559
aNaF0.5
aNaa(lp560
S'sm.base.flange_compactness'
p561
aF1
aNaNaa(lp562
S'sm.base.web_compactness'
p563
aF1
aNaNaa(lp564
S'sm.base.axial_local_api'
p565
aNaF1
aNaa(lp566
S'sm.base.axial_general_api'
p567
aNaF1
aNaa(lp568
S'sm.base.external_local_api'
p569
aNaF1
aNaa(lp570
S'sm.base.external_general_api'
p571
aNaF1
aNaa(lp572
S'sm.aux.flange_spacing_ratio'
p573
aNaF1
aNaa(lp574
S'sm.aux.stiffener_radius_ratio'
p575
aNaF0.5
aNaa(lp576
S'sm.aux.flange_compactness'
p577
aF1
aNaNaa(lp578
S'sm.aux.web_compactness'
p579
aF1
aNaNaa(lp580
S'sm.aux.axial_local_api'
p581
aNaF1
aNaa(lp582
S'sm.aux.axial_general_api'
p583
aNaF1
aNaa(lp584
S'sm.aux.external_local_api'
p585
aNaF1
aNaa(lp586
S'sm.aux.external_general_api'
p587
aNaF1
aNaa(lp588
S'sm.load.pontoon_stress'
p589
aNaF1
aNaa(lp590
S'sm.load.tower_stress'
p591
aNaF1
aNaa(lp592
S'sm.load.tower_shell_buckling'
p593
aNaF1
aNaa(lp594
S'sm.load.tower_global_buckling'
p595
aNaF1
aNaa(lp596
S'sm.load.base_column_stress'
p597
aNaF1
aNaa(lp598
S'sm.load.base_column_shell_buckling'
p599
aNaF1
aNaa(lp600
S'sm.load.base_column_global_buckling'
p601
aNaF1
aNaa(lp602
S'sm.load.auxiliary_column_stress'
p603
aNaF1
aNaa(lp604
S'sm.load.auxiliary_column_shell_buckling'
p605
aNaF1
aNaa(lp606
S'sm.load.auxiliary_column_global_buckling'
p607
aNaF1
aNaa(lp608
S'sm.subs.variable_ballast_height_ratio'
p609
aF0
aF1
aNaa(lp610
S'sm.subs.variable_ballast_mass'
p611
aF0
aNaNaa(lp612
S'sm.subs.metacentric_height'
p613
aF0.10000000000000001
aNaNaa(lp614
S'sm.subs.offset_force_ratio'
p615
aNaF1
aNaa(lp616
S'sm.subs.heel_moment_ratio'
p617
aNaF1
aNaa(lp618
S'sm.subs.period_margin_low'
p619
aNaF1
aNaa(lp620
S'sm.subs.period_margin_high'
p621
aF1
aNaNaa(lp622
S'rotor.Pn_margin'
p623
aNaF1
aNaa(lp624
S'rotor.P1_margin'
p625
aNaF1
aNaa(lp626
S'rotor.Pn_margin_cfem'
p627
aNaF1
aNaa(lp628
S'rotor.P1_margin_cfem'
p629
aNaF1
aNaa(lp630
S'rotor.rotor_strain_sparU'
p631
aF-1
aNaNaa(lp632
S'rotor.rotor_strain_sparL'
p633
aNaF1
aNaa(lp634
S'rotor.rotor_strain_teU'
p635
aF-1
aNaNaa(lp636
S'rotor.rotor_strain_teL'
p637
aNaF1
aNaa(lp638
S'rotor.rotor_buckling_sparU'
p639
aNaF1
aNaa(lp640
S'rotor.rotor_buckling_sparL'
p641
aNaF1
aNaa(lp642
S'rotor.rotor_buckling_teU'
p643
aNaF1
aNaa(lp644
S'rotor.rotor_buckling_teL'
p645
aNaF1
aNaa(lp646
S'rotor.rotor_damage_sparU'
p647
aNaF0
aNaa(lp648
S'rotor.rotor_damage_sparL'
p649
aNaF0
aNaa(lp650
S'rotor.rotor_damage_teU'
p651
aNaF0
aNaa(lp652
S'rotor.rotor_damage_teL'
p653
aNaF0
aNaa(lp654
S'tcons.ground_clearance'
p655
aF20
aNaNaa(S'sm.load.structural_mass'
p656
F9.9999999999999995e-07
tp657
S'NM'
p658
t.