((dp1
S'groutSpreadDR'
p2
F3000
sS'generator_mass'
p3
F16699.849999999999
sS'turbine_profitMultiplier'
p4
F0
sS'prepGripperJack'
p5
F8
sS'tpCover'
p6
F1.5
sS'main_stiffener_flange_width'
p7
cnumpy.core.multiarray
_reconstruct
p8
(cnumpy
ndarray
p9
(I0
tS'b'
tRp10
(I1
(I4
tcnumpy
dtype
p11
(S'f8'
I0
I1
tRp12
(I3
S'<'
NNNI-1
I-1
I0
tbI00
S'%&YS@\x9f\xff?%&YS@\x9f\xff?%&YS@\x9f\xff?%&YS@\x9f\xff?'
tbsS'cross_attachment_pontoons_int'
p13
cnumpy.core.multiarray
scalar
p14
(g11
(S'f8'
I0
I1
tRp15
(I3
S'<'
NNNI-1
I-1
I0
tbS'\x00\x00\x00\x00\x00\x00\x00\x00'
tRp16
sS'faaPlan'
p17
F10000
sS'main_section_height'
p18
g8
(g9
(I0
tS'b'
tRp19
(I1
(I4
tg11
(S'f8'
I0
I1
tRp20
(I3
S'<'
NNNI-1
I-1
I0
tbI00
S"G\xbf\xae\xe7\xe6\xca'@D\xb2\xff\n\xae\xda\xf8?\xb0\x11\x01\x14E\x8d2@A\x004\x0e\x9b7'@"
tbsS'transformer_mass'
p21
F1000
sS'otherAncillary'
p22
F3000000
sS'precurve_tip'
p23
F0
sS'jtransCR'
p24
F4500
sS'offset_buoyancy_tank_diameter'
p25
g14
(g15
S'\xc52p\x84\xee %@'
tRp26
sS'medVoltSG'
p27
F500000
sS'generator_mass_cost_coeff'
p28
F17.43
sS'jpileL'
p29
F47.5
sS'plantComm'
p30
F0.01
sS'subsLoad'
p31
F60
sS'jpileD'
p32
F1.6000000000000001
sS'capital_cost_year_4'
p33
F0
sS'main_bearing_mass'
p34
F4865.7049999999999
sS'main_freeboard'
p35
g14
(g15
S'\xa3\x91\xaf\x85s\xff=@'
tRp36
sS'capital_cost_year_5'
p37
F0
sS'material_density'
p38
F7850
sS'dynCabFac'
p39
F2
sS'cab1CurrRating'
p40
F300
sS'crane600DR'
p41
F5000
sS'ring_mass_factor'
p42
F1
sS'arrVoltage'
p43
F33
sS'elec_connec_cost_esc'
p44
F1.5
sS'gearbox_mass'
p45
F30237.599999999999
sS'construction_insurance'
p46
F0.01
sS'cab2SubsInterCR'
p47
F19815
sS'tax_rate'
p48
F0.40000000000000002
sS'presweep_in'
p49
g8
(g9
(I0
tS'b'
tRp50
(I1
(I5
tg11
(S'f8'
I0
I1
tRp51
(I3
S'<'
NNNI-1
I-1
I0
tbI00
S'\x00\x00\x00\x00\x00\x00\x00\x00\x00\x00\x00\x00\x00\x00\x00\x00\x00\x00\x00\x00\x00\x00\x00\x00\x00\x00\x00\x00\x00\x00\x00\x00\x00\x00\x00\x00\x00\x00\x00\x00'
tbsS'permanent_ballast_density'
p52
F4492
sS'expCabLoad'
p53
F24
sS'groutSpreadMob'
p54
F1000000
sS'machine_rating'
p55
F10000000
sS'socEconStudyMet'
p56
F500000
sS'cleanWatAct402'
p57
F100000
sS'mpvRentalDR'
p58
F72000
sS'distAtoS'
p59
F90
sS'cover_mass'
p60
F1000
sS'lower_attachment_pontoons_int'
p61
g14
(g15
S'\x00\x00\x00\x00\x00\x00\xf0?'
tRp62
sS'usecd'
p63
I01
sS'radius_to_offset_column'
p64
g14
(g15
S'\xda\xd2\xee\xa2`\xc2J@'
tRp65
sS'surfLayRate'
p66
F375
sS'physResStudyProj'
p67
F500000
sS'seaSpreadDR'
p68
F165000
sS'z_offset'
p69
F0
sS'prepAA'
p70
F168
sS'number_of_mooring_connections'
p71
I3
sS'material_cost_rate'
p72
F1.1000000000000001
sS'dynamic_amplication_tip_deflection'
p73
F1.3500000000000001
sS'arrCab1Mass'
p74
F20.384
sS'turbine_assemblyCostMultiplier'
p75
F0
sS'turbInstallMethod'
p76
I0
sS'tower_assemblyCostMultiplier'
p77
F0
sS'column_mass_factor'
p78
F1.05
sS'offset_outer_diameter'
p79
g8
(g9
(I0
tS'b'
tRp80
(I1
(I5
tg20
I00
S'\xf2\x8fm`K\xd4\'@\x17oF\x96\xac\x85:@8\x84o\xa5\xa2n%@\xb5\xd3\xbc\xb9\xb4\x7f"@\x92g\x82\xb4\x15\xdc\x18@'
tbsS'yield_stress'
p81
F345000000
sS'rstar_damage'
p82
g8
(g9
(I0
tS'b'
tRp83
(I1
(I51
tg51
I00
S'\x00\x00\x00\x00\x00\x00\x00\x00{\x14\xaeG\xe1z\x94?{\x14\xaeG\xe1z\xa4?\xb8\x1e\x85\xebQ\xb8\xae?{\x14\xaeG\xe1z\xb4?\x9a\x99\x99\x99\x99\x99\xb9?\xb8\x1e\x85\xebQ\xb8\xbe?\xecQ\xb8\x1e\x85\xeb\xc1?{\x14\xaeG\xe1z\xc4?\n\xd7\xa3p=\n\xc7?\x9a\x99\x99\x99\x99\x99\xc9?)\\\x8f\xc2\xf5(\xcc?\xb8\x1e\x85\xebQ\xb8\xce?\xa4p=\n\xd7\xa3\xd0?\xecQ\xb8\x1e\x85\xeb\xd1?333333\xd3?{\x14\xaeG\xe1z\xd4?\xc3\xf5(\\\x8f\xc2\xd5?\n\xd7\xa3p=\n\xd7?R\xb8\x1e\x85\xebQ\xd8?\x9a\x99\x99\x99\x99\x99\xd9?\xe1z\x14\xaeG\xe1\xda?)\\\x8f\xc2\xf5(\xdc?q=\n\xd7\xa3p\xdd?\xb8\x1e\x85\xebQ\xb8\xde?\x00\x00\x00\x00\x00\x00\xe0?\xa4p=\n\xd7\xa3\xe0?H\xe1z\x14\xaeG\xe1?\xecQ\xb8\x1e\x85\xeb\xe1?\x8f\xc2\xf5(\\\x8f\xe2?333333\xe3?\xd7\xa3p=\n\xd7\xe3?{\x14\xaeG\xe1z\xe4?\x1f\x85\xebQ\xb8\x1e\xe5?\xc3\xf5(\\\x8f\xc2\xe5?gfffff\xe6?\n\xd7\xa3p=\n\xe7?\xaeG\xe1z\x14\xae\xe7?R\xb8\x1e\x85\xebQ\xe8?\xf6(\\\x8f\xc2\xf5\xe8?\x9a\x99\x99\x99\x99\x99\xe9?>\n\xd7\xa3p=\xea?\xe1z\x14\xaeG\xe1\xea?\x85\xebQ\xb8\x1e\x85\xeb?)\\\x8f\xc2\xf5(\xec?\xcd\xcc\xcc\xcc\xcc\xcc\xec?q=\n\xd7\xa3p\xed?\x15\xaeG\xe1z\x14\xee?\xb8\x1e\x85\xebQ\xb8\xee?\\\x8f\xc2\xf5(\\\xef?\x00\x00\x00\x00\x00\x00\xf0?'
tbsS'precone'
p84
F4
sS'nacelle_transportMultiplier'
p85
F0
sS'Mxb_damage'
p86
g8
(g9
(I0
tS'b'
tRp87
(I1
(I51
tg51
I00
S'\x11\xea-\x81\x99\x97q=\x11\xea-\x81\x99\x97q=\x11\xea-\x81\x99\x97q=\x11\xea-\x81\x99\x97q=\x11\xea-\x81\x99\x97q=\x11\xea-\x81\x99\x97q=\x11\xea-\x81\x99\x97q=\x11\xea-\x81\x99\x97q=\x11\xea-\x81\x99\x97q=\x11\xea-\x81\x99\x97q=\x11\xea-\x81\x99\x97q=\x11\xea-\x81\x99\x97q=\x11\xea-\x81\x99\x97q=\x11\xea-\x81\x99\x97q=\x11\xea-\x81\x99\x97q=\x11\xea-\x81\x99\x97q=\x11\xea-\x81\x99\x97q=\x11\xea-\x81\x99\x97q=\x11\xea-\x81\x99\x97q=\x11\xea-\x81\x99\x97q=\x11\xea-\x81\x99\x97q=\x11\xea-\x81\x99\x97q=\x11\xea-\x81\x99\x97q=\x11\xea-\x81\x99\x97q=\x11\xea-\x81\x99\x97q=\x11\xea-\x81\x99\x97q=\x11\xea-\x81\x99\x97q=\x11\xea-\x81\x99\x97q=\x11\xea-\x81\x99\x97q=\x11\xea-\x81\x99\x97q=\x11\xea-\x81\x99\x97q=\x11\xea-\x81\x99\x97q=\x11\xea-\x81\x99\x97q=\x11\xea-\x81\x99\x97q=\x11\xea-\x81\x99\x97q=\x11\xea-\x81\x99\x97q=\x11\xea-\x81\x99\x97q=\x11\xea-\x81\x99\x97q=\x11\xea-\x81\x99\x97q=\x11\xea-\x81\x99\x97q=\x11\xea-\x81\x99\x97q=\x11\xea-\x81\x99\x97q=\x11\xea-\x81\x99\x97q=\x11\xea-\x81\x99\x97q=\x11\xea-\x81\x99\x97q=\x11\xea-\x81\x99\x97q=\x11\xea-\x81\x99\x97q=\x11\xea-\x81\x99\x97q=\x11\xea-\x81\x99\x97q=\x11\xea-\x81\x99\x97q=\x11\xea-\x81\x99\x97q='
tbsS'mooring_diameter'
p88
g14
(g15
S'\x01\xfa\xf2mg\xc6\xd1?'
tRp89
sS'hub_mass'
p90
F105520
sS'cab1CR'
p91
F185.88900000000001
sS'cd_usr'
p92
Finf
sS'main_buoyancy_tank_height'
p93
g14
(g15
S'\t\xdb\x06\x00\xea-\xfe?'
tRp94
sS'buryDepth'
p95
F2
sS'nac_I'
p96
g8
(g9
(I0
tS'b'
tRp97
(I1
(I6
tg51
I00
S'\x00\x00\x00`\xb4[\\A\x00\x00\x00\x8e\x82\ngA\x00\x00\x00\x8e\x82\ngA\x00\x00\x00\x00\x00\x00\x00\x00\x00\x00\x00\x00\x00\x00\x00\x00\x00\x00\x00\x00\x00\x00\x00\x00'
tbsS'monoFasten'
p98
F12
sS'tilt'
p99
F6
sS'nSector'
p100
I4
sS'offset_buoyancy_tank_location'
p101
g14
(g15
S'\xe1fg\xfa]\xce\xa4?'
tRp102
sS'tower_wall_thickness'
p103
g8
(g9
(I0
tS'b'
tRp104
(I1
(I3
tg12
I00
S'\x90\xebQ\xb8\x1e\x85\xd3?\x90\xebQ\xb8\x1e\x85\xd3?\x90\xebQ\xb8\x1e\x85\xd3?'
tbsS'offshore'
p105
I01
sS'substructure'
p106
I3
sS'interest_during_construction'
p107
F0.080000000000000002
sS'offset_stiffener_flange_thickness'
p108
g8
(g9
(I0
tS'b'
tRp109
(I1
(I4
tg12
I00
S'\x18\x8a\xb2\xa6\xd5\xc4\xdf?\x18\x8a\xb2\xa6\xd5\xc4\xdf?\x18\x8a\xb2\xa6\xd5\xc4\xdf?\x18\x8a\xb2\xa6\xd5\xc4\xdf?'
tbsS'placeMP'
p110
F3
sS'hubFraction'
p111
F0.023784901758014475
sS'feedStudy'
p112
F10000000
sS'preFEEDStudy'
p113
F5000000
sS'cableOptimizer'
p114
I00
sS'platforms_mass_cost_coeff'
p115
F8.6999999999999993
sS'hvac_mass_cost_coeff'
p116
F163.94999999999999
sS'upper_attachment_pontoons_int'
p117
g14
(g15
S'\x00\x00\x00\x00\x00\x00\x00\x00'
tRp118
sS'nepaEisMet'
p119
F2000000
sS'yaw_mass_cost_coeff'
p120
F11.01
sS'subsTopFab'
p121
F14500
sS'dummy_mass'
p122
F9.9999999999999998e-13
sS'elec_connec_machine_rating_cost_coeff'
p123
F40
sS'fixed_charge_rate'
p124
F0.12
sS'water_viscosity'
p125
F0.00088999999999999995
sS'spMoorCon'
p126
F20
sS'wind_reference_height'
p127
F119
sS'outfitting_cost_rate'
p128
F1.6500000000000001
sS'air_viscosity'
p129
F1.8099999999999999e-05
sS'shape_parameter'
p130
F0
sS'prepSemi'
p131
F12
sS'prepTow'
p132
F12
sS'control_Vout'
p133
F25
sS'max_taper_ratio'
p134
F0.40000000000000002
sS'hub_profitMultiplier'
p135
F0
sS'tower_overheadCostMultiplier'
p136
F0
sS'platforms_mass'
p137
F1000
sS'socEconStudyProj'
p138
F200000
sS'gust_stddev'
p139
I3
sS'boltRotor'
p140
F7
sS'wave_period_range_high'
p141
F20
sS'vs_electronics_mass'
p142
F1000
sS'inspectClear'
p143
F2
sS'teT_in'
p144
g8
(g9
(I0
tS'b'
tRp145
(I1
(I5
tg51
I00
S'\xf4(\xfb\x97\x18\x81\xa5?\xad\xb1B\x13!\x8a\xb0?\xaf\xbf\xedj\xe1\xd6\xab?Y\xc3\xb4`\x17}\x90?\xe24"\xc9\xe3Gl?'
tbsS'morison_mass_coefficient'
p146
F2
sS'seaSpreadMob'
p147
F4500000
sS'wind_bottom_height'
p148
F0
sS'wave_period_range_low'
p149
F2
sS'stateLease'
p150
F250000
sS'offset_permanent_ballast_height'
p151
g14
(g15
S'\xc1\x0eT\xb3\xb3\x7f\xd4?'
tRp152
sS'ssMoorCheck'
p153
F12
sS'main_stiffener_spacing'
p154
g8
(g9
(I0
tS'b'
tRp155
(I1
(I4
tg12
I00
S'\x91\xd3\x97\x03\xe0\x9a"@\x91\xd3\x97\x03\xe0\x9a"@\x91\xd3\x97\x03\xe0\x9a"@\x91\xd3\x97\x03\xe0\x9a"@'
tbsS'tower_outer_diameter'
p156
g8
(g9
(I0
tS'b'
tRp157
(I1
(I4
tg12
I00
S'\x00\x00\x00\x00\x00\x00"@\x00\x00\x00\x00\x00\x00\x1d@\x00\x00\x00\x00\x00\x00\x1d@\x00\x00\x00\x00\x00\x00\x16@'
tbsS'conOpPlan'
p158
F1000000
sS'outfitting_mass_fraction'
p159
F0.059999999999999998
sS'capital_cost_year_2'
p160
F0.10000000000000001
sS'capital_cost_year_3'
p161
F0.10000000000000001
sS'capital_cost_year_0'
p162
F0.20000000000000001
sS'capital_cost_year_1'
p163
F0.59999999999999998
sS'G'
F79300000000
sS'fairlead_location'
p164
g14
(g15
S'\xcc\x01\x88\xd1\xd9\t\xcb?'
tRp165
sS'max_offset'
p166
F100
sS'control_minOmega'
p167
F6
sS'prepGripperMono'
p168
F1.5
sS'cabTerm'
p169
F5.5
sS'workSpace'
p170
F2000000
sS'main_bulkhead_thickness'
p171
g8
(g9
(I0
tS'b'
tRp172
(I1
(I5
tg12
I00
S'\x9a\x99\x99\x99\x99\x99\xa9?\x9a\x99\x99\x99\x99\x99\xa9?\x00\x00\x00\x00\x00\x00\x00\x00\x00\x00\x00\x00\x00\x00\x00\x00\x9a\x99\x99\x99\x99\x99\xa9?'
tbsS'vesselPosMono'
p173
F3
sS'boltBlade1'
p174
F3.5
sS'groutTP'
p175
F8
sS'boltBlade2'
p176
F3.5
sS'wind_beta'
p177
F0
sS'landConstruct'
p178
F7
sS'subsJackCR'
p179
F6250
sS'tiploss'
p180
I01
sS'hub_overheadCostMultiplier'
p181
F0
sS'control_pitch'
p182
F0
sS'azimuth_extreme'
p183
F0
sS'prepSpar'
p184
F18
sS'number_install_seasons'
p185
F1
sS'transformer_mass_cost_coeff'
p186
F26.5
sS'turbine_class'
p187
I0
sS'distInterCon'
p188
F3
sS'rivsnHarbsAct'
p189
F100000
sS'navStudyMet'
p190
F500000
sS'jackFasten'
p191
F20
sS'coastZoneManAct'
p192
F100000
sS'distPtoA'
p193
F90
sS'saPlan'
p194
F500000
sS'nCrane1000'
p195
F0
sS'bioResStudyMet'
p196
F1500000
sS'procurement_contingency'
p197
F0.050000000000000003
sS'jpileCR'
p198
F2250
sS'metTowCR'
p199
F11518
sS'jlatticeCR'
p200
F4680
sS'outer_cross_pontoons_int'
p201
g14
(g15
S'\x00\x00\x00\x00\x00\x00\x00\x00'
tRp202
sS'water_depth'
p203
F320
sS'control_tsr'
p204
F10.58
sS'VfactorPC'
p205
F0.69999999999999996
sS'levJack'
p206
F24
sS'pwrFac'
p207
F0.94999999999999996
sS'placeJack'
p208
F12
sS'upper_ring_pontoons_int'
p209
g14
(g15
S'\x00\x00\x00\x00\x00\x00\x00\x00'
tRp210
sS'main_stiffener_web_thickness'
p211
g8
(g9
(I0
tS'b'
tRp212
(I1
(I4
tg12
I00
S'*\xd4/-_\xee\xdf?*\xd4/-_\xee\xdf?*\xd4/-_\xee\xdf?*\xd4/-_\xee\xdf?'
tbsS'endSpecAct'
p213
F500000
sS'AEP_loss_factor'
p214
F1
sS'prepHamJack'
p215
F2
sS'water_density'
p216
F1025
sS'arrayX'
p217
F9
sS'expSubsInterCR'
p218
F57500
sS'min_diameter_thickness_ratio'
p219
F120
sS'offset_wall_thickness'
p220
g8
(g9
(I0
tS'b'
tRp221
(I1
(I4
tg12
I00
S'sDR\xee\x80"\xc3?sDR\xee\x80"\xc3?sDR\xee\x80"\xc3?sDR\xee\x80"\xc3?'
tbsS'blade_mass_cost_coeff'
p222
F13.08
sS'turbFasten'
p223
F8
sS'hub_transportMultiplier'
p224
F0
sS'pitch_system_mass_cost_coeff'
p225
F22.91
sS'upendSpar'
p226
F36
sS'hub_I'
p227
g8
(g9
(I0
tS'b'
tRp228
(I1
(I6
tg51
I00
S'\x9eV\xe4\xeaZ\xe2\x13AGl\x9d\xa5\xf1\xda\x08AGl\x9d\xa5\xf1\xda\x08A\x00\x00\x00\x00\x00\x00\x00\x00\x00\x00\x00\x00\x00\x00\x00\x00\x00\x00\x00\x00\x00\x00\x00\x00'
tbsS'expCurrRating'
p229
F530
sS'turbulence_class'
p230
I1
sS'cover_mass_cost_coeff'
p231
F7.6100000000000003
sS'main_pontoon_attach_lower'
p232
g14
(g15
S'".0\x94\xcf\x12\xba?'
tRp233
sS'entranceExitRate'
p234
F0.52500000000000002
sS'lss_mass_cost_coeff'
p235
F12.6
sS'exCabFac'
p236
F0.10000000000000001
sS'moorSurvey'
p237
F4
sS'hub_height'
p238
F149
sS'offset_stiffener_web_height'
p239
g8
(g9
(I0
tS'b'
tRp240
(I1
(I4
tg12
I00
S'\r8u\x9dWd\xda?\r8u\x9dWd\xda?\r8u\x9dWd\xda?\r8u\x9dWd\xda?'
tbsS'cabPullIn'
p241
F5.5
sS'craneMobDemob'
p242
F150000
sS'bladeLength'
p243
F96.700000000000003
sS'placeTop'
p244
F24
sS'discount_rate'
p245
F0.070000000000000007
sS'presweep_tip'
p246
F0
sS'gamma_fatigue'
p247
F1.7550000000000001
sS'tower_transportMultiplier'
p248
F0
sS'mptCR'
p249
F12500
sS'winchDR'
p250
F1000
sS'instScour'
p251
F6
sS'r_max_chord'
p252
g14
(g15
S'\x9b\xe6\x1d\xa7\xe8H\xce?'
tRp253
sS'ssMoorCon'
p254
F22
sS'bioResStudyProj'
p255
F500000
sS'placeTemplate'
p256
F4
sS'elecWork'
p257
F25000
sS'compRacks'
p258
F1000000
sS'distShore'
p259
F90
sS'bulkhead_mass_factor'
p260
F1
sS'elecCont'
p261
F0.29999999999999999
sS'cabSurveyCR'
p262
F240
sS'ssHeaveCR'
p263
F6250
sS'highVoltSG'
p264
F950000
sS'pitch_system_mass'
p265
F17004
sS'main_outer_diameter'
p266
g8
(g9
(I0
tS'b'
tRp267
(I1
(I5
tg20
I00
S'\xd5\x85\xf0p\xd9$9@#\xc7X\x81\xee|)@h\xcb\x8f\n2<\x1d@\xae\xb3&_I\xe9$@\xf6a`\x93\xb1\xca#@'
tbsS'nacelleL'
p268
F-inf
sS'cab2TurbInterCR'
p269
F8615
sS'hamRate'
p270
F20
sS'nacelle_overheadCostMultiplier'
p271
F0
sS'crane1000DR'
p272
F8000
sS'nacelle_profitMultiplier'
p273
F0
sS'nacelleW'
p274
F-inf
sS'main_pontoon_attach_upper'
p275
g14
(g15
S'\xa42<\x19W\xab\xed?'
tRp276
sS'tower_buckling_length'
p277
F30
sS'substructCont'
p278
F0.29999999999999999
sS'control_Vin'
p279
F4
sS'turbCont'
p280
F0.29999999999999999
sS'wave_period'
p281
F9.8000000000000007
sS'prepHamMono'
p282
F2
sS'wakerotation'
p283
I01
sS'tower_profitMultiplier'
p284
F0
sS'main_stiffener_flange_thickness'
p285
g8
(g9
(I0
tS'b'
tRp286
(I1
(I4
tg12
I00
S'\xe5\xfc\x95\x02\xb5\xca\xdf?\xe5\xfc\x95\x02\xb5\xca\xdf?\xe5\xfc\x95\x02\xb5\xca\xdf?\xe5\xfc\x95\x02\xb5\xca\xdf?'
tbsS'nepaEisProj'
p287
F5000000
sS'pontoon_wall_thickness'
p288
g14
(g15
S'\xac\xb1\xb5o\xea\xdf\x94?'
tRp289
sS'cabDrillCR'
p290
F3200
sS'physResStudyMet'
p291
F1500000
sS'main_buoyancy_tank_location'
p292
g14
(g15
S'A\xeaW\xf6\xe0\x9b\xf1>'
tRp293
sS'strain_ult_spar'
p294
F0.01
sS'expCabCR'
p295
F495.411
sS'base_hardware_cost_coeff'
p296
F0.69999999999999996
sS'annual_opex'
p297
F700000
sS'hub_cm'
p298
g8
(g9
(I0
tS'b'
tRp299
(I1
(I3
tg51
I00
S'ffffff\x1c\xc0\x00\x00\x00\x00\x00\x00\x00\x00\x00\x00\x00\x00\x00\x00\x06@'
tbsS'marMamProtAct'
p300
F500000
sS'sparT_in'
p301
g8
(g9
(I0
tS'b'
tRp302
(I1
(I5
tg51
I00
S'Xh\x82\xe1[b\xa0?\xfc\x8d\xa5=\x19\xa0\xa9?\xdcC!\x10\xd0\xcc\xb5?k\xcbD\xc9\xbc\xe8\xb3?~&\x13\xd1\x020\x88?'
tbsS'backUpGen'
p303
F1000000
sS'gamma_m'
p304
F1.3
sS'gamma_n'
p305
F1
sS'number_of_offset_columns'
p306
I3
sS'yaw'
p307
F0
sS'gamma_f'
p308
F1.3500000000000001
sS'offset_freeboard'
p309
g14
(g15
S'\x83<\x96L\xac\xdd+@'
tRp310
sS'gamma_b'
p311
F1.1000000000000001
sS'bearings_mass_cost_coeff'
p312
F6.3499999999999996
sS'pileSpreadMob'
p313
F750000
sS'ballast_cost_rate'
p314
F0.10000000000000001
sS'yaw_mass'
p315
F11878.24
sS'number_of_turbines'
p316
I20
sS'downwind'
p317
I00
sS'spinner_mass'
p318
F1810.5
sS'main_buoyancy_tank_diameter'
p319
g14
(g15
S'\xe7\xad\xc9.G\x03\x1e@'
tRp320
sS'crane_cost'
p321
F0
sS'turbine_transportMultiplier'
p322
F0
sS'ssBall'
p323
F6
sS'vesselPosTurb'
p324
F2
sS'deaFixLeng'
p325
F0
sS'wave_height'
p326
F10.800000000000001
sS'cleanWatAct404'
p327
F100000
sS'anchor'
p328
I0
sS'estEnMFac'
p329
F0.040000000000000001
sS'gearbox_mass_cost_coeff'
p330
F17.399999999999999
sS'chord_in'
p331
g8
(g9
(I0
tS'b'
tRp332
(I1
(I5
tg51
I00
S'gfffff\x12@\rnk\x0b\xcf\xab\x12@r\xe0\xd5rg\xf6\x17@t\xc8\xb4\xe7\x15\x10\x08@ \r\xe0-\x90\xa0\xb8?'
tbsS'precurve_in'
p333
g8
(g9
(I0
tS'b'
tRp334
(I1
(I5
tg51
I00
S'\x00\x00\x00\x00\x00\x00\x00\x80\x97\xcc\xb1\xbc\xab\x1e\xa0\xbf\x11\x02\xf2%Tp\xc6\xbf\xc5\xd5\x86\xdf>1\xeb\xbfU\x84\x9b\x8c*\xd3\x18\xc0'
tbsS'catLengFac'
p335
F0.040000000000000001
sS'Myb_damage'
p336
g8
(g9
(I0
tS'b'
tRp337
(I1
(I51
tg51
I00
S'\x11\xea-\x81\x99\x97q=\x11\xea-\x81\x99\x97q=\x11\xea-\x81\x99\x97q=\x11\xea-\x81\x99\x97q=\x11\xea-\x81\x99\x97q=\x11\xea-\x81\x99\x97q=\x11\xea-\x81\x99\x97q=\x11\xea-\x81\x99\x97q=\x11\xea-\x81\x99\x97q=\x11\xea-\x81\x99\x97q=\x11\xea-\x81\x99\x97q=\x11\xea-\x81\x99\x97q=\x11\xea-\x81\x99\x97q=\x11\xea-\x81\x99\x97q=\x11\xea-\x81\x99\x97q=\x11\xea-\x81\x99\x97q=\x11\xea-\x81\x99\x97q=\x11\xea-\x81\x99\x97q=\x11\xea-\x81\x99\x97q=\x11\xea-\x81\x99\x97q=\x11\xea-\x81\x99\x97q=\x11\xea-\x81\x99\x97q=\x11\xea-\x81\x99\x97q=\x11\xea-\x81\x99\x97q=\x11\xea-\x81\x99\x97q=\x11\xea-\x81\x99\x97q=\x11\xea-\x81\x99\x97q=\x11\xea-\x81\x99\x97q=\x11\xea-\x81\x99\x97q=\x11\xea-\x81\x99\x97q=\x11\xea-\x81\x99\x97q=\x11\xea-\x81\x99\x97q=\x11\xea-\x81\x99\x97q=\x11\xea-\x81\x99\x97q=\x11\xea-\x81\x99\x97q=\x11\xea-\x81\x99\x97q=\x11\xea-\x81\x99\x97q=\x11\xea-\x81\x99\x97q=\x11\xea-\x81\x99\x97q=\x11\xea-\x81\x99\x97q=\x11\xea-\x81\x99\x97q=\x11\xea-\x81\x99\x97q=\x11\xea-\x81\x99\x97q=\x11\xea-\x81\x99\x97q=\x11\xea-\x81\x99\x97q=\x11\xea-\x81\x99\x97q=\x11\xea-\x81\x99\x97q=\x11\xea-\x81\x99\x97q=\x11\xea-\x81\x99\x97q=\x11\xea-\x81\x99\x97q=\x11\xea-\x81\x99\x97q='
tbsS'offset_buoyancy_tank_height'
p338
g14
(g15
S"\xc2\x8d\xb0\xcc\xd9'\x0b@"
tRp339
sS'offset_stiffener_spacing'
p340
g8
(g9
(I0
tS'b'
tRp341
(I1
(I4
tg12
I00
S'H\xe8D\x9b\xe3\xd4\n@H\xe8D\x9b\xe3\xd4\n@H\xe8D\x9b\xe3\xd4\n@H\xe8D\x9b\xe3\xd4\n@'
tbsS'gamma_freq'
p342
F1.1000000000000001
sS'hss_mass'
p343
F1492.45
sS'painting_cost_rate'
p344
F14.4
sS'placeTP'
p345
F3
sS'nac_mass'
p346
F223018.125
sS'buryRate'
p347
F125
sS'max_survival_heel'
p348
F15
sS'shearExp'
p349
F0.11
sS'outConShelfLease'
p350
F1000000
sS'addLocPerm'
p351
F200000
sS'project_lifetime'
p352
F20
sS'hvac_mass'
p353
F1000
sS'offset_stiffener_flange_width'
p354
g8
(g9
(I0
tS'b'
tRp355
(I1
(I4
tg12
I00
S'a\xd2\x15\x88jR\xed?a\xd2\x15\x88jR\xed?a\xd2\x15\x88jR\xed?a\xd2\x15\x88jR\xed?'
tbsS'nCrane600'
p356
F0
sS'installStrategy'
p357
I0
sS'distPort'
p358
F90
sS'fairlead_support_wall_thickness'
p359
g14
(g15
S']\xb53\xfc\xa1\x1a\x93?'
tRp360
sS'removeHamJack'
p361
F4
sS'labor_cost_rate'
p362
F1
sS'mtransCR'
p363
F3230
sS'boltNacelle1'
p364
F7
sS'mpileCR'
p365
F2250
sS'boltNacelle3'
p366
F7
sS'boltNacelle2'
p367
F7
sS'hubloss'
p368
I01
sS'cab1TurbInterCR'
p369
F8410
sS'bearing_number'
p370
I2
sS'offset_stiffener_web_thickness'
p371
g8
(g9
(I0
tS'b'
tRp372
(I1
(I4
tg12
I00
S'\xefSTH\xb8\x8b\xdf?\xefSTH\xb8\x8b\xdf?\xefSTH\xb8\x8b\xdf?\xefSTH\xb8\x8b\xdf?'
tbsS'loading'
p373
S'hydrostatic'
p374
sS'lower_ring_pontoons_int'
p375
g14
(g15
S'\x00\x00\x00\x00\x00\x00\x00\x00'
tRp376
sS'main_stiffener_web_height'
p377
g8
(g9
(I0
tS'b'
tRp378
(I1
(I4
tg12
I00
S'\x13\x86\xfaHb\xff\xef?\x13\x86\xfaHb\xff\xef?\x13\x86\xfaHb\xff\xef?\x13\x86\xfaHb\xff\xef?'
tbsS'expVoltage'
p379
F220
sS'controls_cost_base'
p380
g8
(g9
(I0
tS'b'
tRp381
(I1
(I2
tg11
(S'f8'
I0
I1
tRp382
(I3
S'<'
NNNI-1
I-1
I0
tbI00
S'\x00\x00\x00\x00\x00\x17\xe1@\x00\x00\x00\x00\x80K\xeb@'
tbsS'fairlead_offset_from_shell'
p383
F6.0004865405187147
sS'rna_weightM'
p384
I01
sS'shuntCR'
p385
F35000
sS'dockRate'
p386
F3000
sS'subsVessPos'
p387
F6
sS'civilWork'
p388
F40000
sS'towerInstallMethod'
p389
I0
sS'migBirdAct'
p390
F500000
sS'max_draft'
p391
F20
sS'theta_in'
p392
g8
(g9
(I0
tS'b'
tRp393
(I1
(I5
tg51
I00
S'\x00\x00\x00\x00\x00\x00-@9\xb4\xc8v\xbe\x9f*@L7\x89A`\xe5\x1a@<r\x8e\x14\xc5X\xa1\xbf\x84l\xe7\xfb\xa9\xf1\xa2\xbf'
tbsS'cabDrillDist'
p394
F500
sS'topAssemblyFac'
p395
F0.074999999999999997
sS'fairlead_support_outer_diameter'
p396
g14
(g15
S'\xdd\x85\xd3\xf5\xf7\xff#@'
tRp397
sS'interConVolt'
p398
F345
sS'offset_bulkhead_thickness'
p399
g8
(g9
(I0
tS'b'
tRp400
(I1
(I5
tg12
I00
S'\x9a\x99\x99\x99\x99\x99\xa9?\x9a\x99\x99\x99\x99\x99\xa9?\x00\x00\x00\x00\x00\x00\x00\x00\x00\x00\x00\x00\x00\x00\x00\x00\x9a\x99\x99\x99\x99\x99\xa9?'
tbsS'controls_esc'
p401
F1.5
sS'm_damage'
p402
F10
sS'shell_mass_factor'
p403
F1
sS'tower_mass_cost_coeff'
p404
F3.2000000000000002
sS'nBlades'
p405
I3
sS'expCabMass'
p406
F71.900000000000006
sS'subsPileCR'
p407
F2250
sS'wharfRate'
p408
F2.75
sS'Rhub'
p409
F1.125
sS'vs_electronics_mass_cost_coeff'
p410
F26.5
sS'tower_outfitting_factor'
p411
F1.0700000000000001
sS'scourMat'
p412
F250000
sS'laydownCR'
p413
F0.25
sS'hub_assemblyCostMultiplier'
p414
F0
sS'anchor_type'
p415
S'suctionpile'
p416
sS'jlatticeA'
p417
F26
sS'drivetrainType'
p418
I0
sS'pitch_extreme'
p419
F0
sS'main_wall_thickness'
p420
g8
(g9
(I0
tS'b'
tRp421
(I1
(I4
tg12
I00
S'\xb6c\x08\xfa\x88\xcf\xae?\xb6c\x08\xfa\x88\xcf\xae?\xb6c\x08\xfa\x88\xcf\xae?\xb6c\x08\xfa\x88\xcf\xae?'
tbsS'mean_current_speed'
p422
F0
sS'nac_cm'
p423
g8
(g9
(I0
tS'b'
tRp424
(I1
(I3
tg51
I00
S'\x85\xebQ\xb8\x1e\x85\x05@\x00\x00\x00\x00\x00\x00\x00\x00333333\x03@'
tbsS'subsTopDes'
p425
F4500000
sS'moorLoadout'
p426
F5
sS'tower_section_height'
p427
g8
(g9
(I0
tS'b'
tRp428
(I1
(I3
tg12
I00
S'UUUUU\xd5C@UUUUU\xd5C@UUUUU\xd5C@'
tbsS'navStudyProj'
p429
F250000
sS'buryFac'
p430
F0.10000000000000001
sS'cab2CR'
p431
F202.78800000000001
sS'air_density'
p432
F1.198
sS'offset_section_height'
p433
g8
(g9
(I0
tS'b'
tRp434
(I1
(I4
tg20
I00
S'\xa3\x9f,C\xdd\xaf\xee?\xdfw\x8f\xa3\xea\xf4\xfb?\xdf\xc9\x9f\xf8o\\3@c\x84,&\xf50\x17@'
tbsS'strain_ult_te'
p435
F0.0050000000000000001
sS'turbine_overheadCostMultiplier'
p436
F0
sS'placePiles'
p437
F12
sS'main_permanent_ballast_height'
p438
g14
(g15
S'\x9c\xe4\xb7zn\xaf\x11@'
tRp439
sS'diveTeamDR'
p440
F3200
sS'arrayY'
p441
F9
sS'bedplate_mass'
p442
F93090.600000000006
sS'mooring_line_length'
p443
g14
(g15
S's\xf4)\x85\xb7\x96\xa6@'
tRp444
sS'wind_reference_speed'
p445
F11
sS'control_maxOmega'
p446
F8.887659696962098
sS'crane'
p447
I00
sS'hub_mass_cost_coeff'
p448
F3.7999999999999998
sS'operational_heel'
p449
F6
sS'removeHamMono'
p450
F2
sS'connection_ratio_max'
p451
F0.25
sS'hss_mass_cost_coeff'
p452
F8.25
sS'spMoorCheck'
p453
F16
sS'spinner_mass_cost_coeff'
p454
F23
sS'pileSpreadDR'
p455
F2500
sS'lss_mass'
p456
F31257.299999999999
sS'mooring_lines_per_connection'
p457
g14
(g15
S'\x00\x00\x00\x00\x00\x00\x00@'
tRp458
sS'anchor_radius'
p459
g14
(g15
S'i\xa8\x1e<\xfc\xda\xa5@'
tRp460
sS'pontoon_outer_diameter'
p461
g14
(g15
S'\xc4x\xc0\x0e\x83\xb4!@'
tRp462
sS'moorTimeFac'
p463
F0.0050000000000000001
sS'shorePullIn'
p464
F96
sS'natHisPresAct'
p465
F250000
sS'scrapVal'
p466
F0
sS'mooring_cost_rate'
p467
F1.1000000000000001
sS'bedplate_mass_cost_coeff'
p468
F4.5
sS'nu'
p469
F0.26000000000000001
sS'arrCab2Mass'
p470
F21.853999999999999
sS'E'
F200000000000
sS'cab2CurrRating'
p471
F340
sS'boltTower'
p472
F7
sS'cabLoadout'
p473
F14
sS'subsPullIn'
p474
F48
sS'vesselPosJack'
p475
F8
sS'nacelle_assemblyCostMultiplier'
p476
F0
sS'install_contingency'
p477
F0.29999999999999999
sS'mooring_type'
p478
S'chain'
p479
sS'decomDiscRate'
p480
F0.029999999999999999
s(lp481
(lp482
S'fairlead_location'
p483
aF0
aF1
aa(lp484
S'fairlead_support_wall_thickness'
p485
aF0.001
aF1
aa(lp486
S'fairlead_support_outer_diameter'
p487
aF0.10000000000000001
aF10
aa(lp488
S'main_freeboard'
p489
aF0
aF50
aa(lp490
S'main_section_height'
p491
aF0.10000000000000001
aF50
aa(lp492
S'main_outer_diameter'
p493
aF2.1000000000000001
aF40
aa(lp494
S'main_wall_thickness'
p495
aF0.001
aF0.5
aa(lp496
S'main_buoyancy_tank_diameter'
p497
aF0
aF50
aa(lp498
S'main_buoyancy_tank_height'
p499
aF0
aF20
aa(lp500
S'main_buoyancy_tank_location'
p501
aF0
aF1
aa(lp502
S'offset_freeboard'
p503
aF2
aF15
aa(lp504
S'offset_section_height'
p505
aF0.10000000000000001
aF50
aa(lp506
S'offset_outer_diameter'
p507
aF1.1000000000000001
aF40
aa(lp508
S'offset_wall_thickness'
p509
aF0.001
aF0.5
aa(lp510
S'offset_buoyancy_tank_diameter'
p511
aF0
aF50
aa(lp512
S'offset_buoyancy_tank_height'
p513
aF0
aF20
aa(lp514
S'offset_buoyancy_tank_location'
p515
aF0
aF1
aa(lp516
S'pontoon_outer_diameter'
p517
aF1
aF10
aa(lp518
S'pontoon_wall_thickness'
p519
aF0.01
aF1
aa(lp520
S'main_pontoon_attach_lower'
p521
aF0
aF0.5
aa(lp522
S'main_pontoon_attach_upper'
p523
aF0.5
aF1
aa(lp524
S'mooring_line_length'
p525
aF200
aF3000
aa(lp526
S'anchor_radius'
p527
aF100
aF5000
aa(lp528
S'mooring_diameter'
p529
aF0.050000000000000003
aF2
aa(lp530
S'main_permanent_ballast_height'
p531
aF0.10000000000000001
aF50
aa(lp532
S'main_stiffener_web_height'
p533
aF0.01
aF1
aa(lp534
S'main_stiffener_web_thickness'
p535
aF0.001
aF0.5
aa(lp536
S'main_stiffener_flange_width'
p537
aF0.01
aF5
aa(lp538
S'main_stiffener_flange_thickness'
p539
aF0.001
aF0.5
aa(lp540
S'main_stiffener_spacing'
p541
aF0.10000000000000001
aF100
aa(lp542
S'offset_stiffener_web_height'
p543
aF0.01
aF1
aa(lp544
S'offset_stiffener_web_thickness'
p545
aF0.001
aF0.5
aa(lp546
S'offset_stiffener_flange_width'
p547
aF0.01
aF5
aa(lp548
S'offset_stiffener_flange_thickness'
p549
aF0.001
aF0.5
aa(lp550
S'offset_stiffener_spacing'
p551
aF0.10000000000000001
aF100
aa(lp552
S'offset_permanent_ballast_height'
p553
aF0.10000000000000001
aF50
aa(lp554
S'radius_to_offset_column'
p555
aF5
aF100
aa(lp556
(lp557
S'tow.height_constraint'
p558
aF-0.01
aF0.01
aNaa(lp559
S'main.draft'
p560
aF0
aF20
aNaa(lp561
S'off.draft'
p562
aF0
aF20
aNaa(lp563
S'main.draft_margin'
p564
aF0
aF1
aNaa(lp565
S'off.draft_margin'
p566
aF0
aF1
aNaa(lp567
S'main.wave_height_freeboard_ratio'
p568
aNaF1
aNaa(lp569
S'off.wave_height_freeboard_ratio'
p570
aNaF1
aNaa(lp571
S'main_offset_spacing'
p572
aF1
aNaNaa(lp573
S'main.manufacturability'
p574
aF0
aNaNaa(lp575
S'main.weldability'
p576
aNaF0
aNaa(lp577
S'off.manufacturability'
p578
aF0
aNaNaa(lp579
S'off.weldability'
p580
aNaF0
aNaa(lp581
S'tower_transition_buffer'
p582
aF-1
aF1
aNaa(lp583
S'nacelle_transition_buffer'
p584
aF0
aNaNaa(lp585
S'offset_freeboard_heel_margin'
p586
aF0
aNaNaa(lp587
S'offset_draft_heel_margin'
p588
aF0
aF20
aNaa(lp589
S'axial_unity'
p590
aF0
aF1
aNaa(lp591
S'mooring_length_max'
p592
aNaF1
aNaa(lp593
S'main.flange_spacing_ratio'
p594
aNaF1
aNaa(lp595
S'main.stiffener_radius_ratio'
p596
aNaF0.5
aNaa(lp597
S'main.flange_compactness'
p598
aF1
aNaNaa(lp599
S'main.web_compactness'
p600
aF1
aNaNaa(lp601
S'main.axial_local_api'
p602
aNaF1
aNaa(lp603
S'main.axial_general_api'
p604
aNaF1
aNaa(lp605
S'main.external_local_api'
p606
aNaF1
aNaa(lp607
S'main.external_general_api'
p608
aNaF1
aNaa(lp609
S'off.flange_spacing_ratio'
p610
aNaF1
aNaa(lp611
S'off.stiffener_radius_ratio'
p612
aNaF0.5
aNaa(lp613
S'off.flange_compactness'
p614
aF1
aNaNaa(lp615
S'off.web_compactness'
p616
aF1
aNaNaa(lp617
S'off.axial_local_api'
p618
aNaF1
aNaa(lp619
S'off.axial_general_api'
p620
aNaF1
aNaa(lp621
S'off.external_local_api'
p622
aNaF1
aNaa(lp623
S'off.external_general_api'
p624
aNaF1
aNaa(lp625
S'pontoon_stress'
p626
aNaF1
aNaa(lp627
S'tower_stress'
p628
aNaF1
aNaa(lp629
S'tower_shell_buckling'
p630
aNaF1
aNaa(lp631
S'tower_global_buckling'
p632
aNaF1
aNaa(lp633
S'main_stress'
p634
aNaF1
aNaa(lp635
S'main_shell_buckling'
p636
aNaF1
aNaa(lp637
S'main_global_buckling'
p638
aNaF1
aNaa(lp639
S'offset_stress'
p640
aNaF1
aNaa(lp641
S'offset_shell_buckling'
p642
aNaF1
aNaa(lp643
S'offset_global_buckling'
p644
aNaF1
aNaa(lp645
S'variable_ballast_height_ratio'
p646
aF0
aF1
aNaa(lp647
S'variable_ballast_mass'
p648
aF0
aNaNaa(lp649
S'metacentric_height'
p650
aF0.10000000000000001
aNaNaa(lp651
S'offset_force_ratio'
p652
aNaF1
aNaa(lp653
S'heel_moment_ratio'
p654
aNaF1
aNaa(lp655
S'period_margin_low'
p656
aNaF1
aNaa(lp657
S'period_margin_high'
p658
aF1
aNaNaa(lp659
S'Pn_margin'
p660
aNaF1
aNaa(lp661
S'P1_margin'
p662
aNaF1
aNaa(lp663
S'Pn_margin_cfem'
p664
aNaF1
aNaa(lp665
S'P1_margin_cfem'
p666
aNaF1
aNaa(lp667
S'rotor_strain_sparU'
p668
aF-1
aNaNaa(lp669
S'rotor_strain_sparL'
p670
aNaF1
aNaa(lp671
S'rotor_strain_teU'
p672
aF-1
aNaNaa(lp673
S'rotor_strain_teL'
p674
aNaF1
aNaa(lp675
S'rotor_buckling_sparU'
p676
aNaF1
aNaa(lp677
S'rotor_buckling_sparL'
p678
aNaF1
aNaa(lp679
S'rotor_buckling_teU'
p680
aNaF1
aNaa(lp681
S'rotor_buckling_teL'
p682
aNaF1
aNaa(lp683
S'rotor_damage_sparU'
p684
aNaF0
aNaa(lp685
S'rotor_damage_sparL'
p686
aNaF0
aNaa(lp687
S'rotor_damage_teU'
p688
aNaF0
aNaa(lp689
S'rotor_damage_teL'
p690
aNaF0
aNaa(lp691
S'ground_clearance'
p692
aF20
aNaNaa(S'structural_mass'
p693
F9.9999999999999995e-07
tp694
S'NM'
p695
t.