((dp1
S'rna_moment'
p2
cnumpy.core.multiarray
_reconstruct
p3
(cnumpy
ndarray
p4
(I0
tS'b'
tRp5
(I1
(I3
tcnumpy
dtype
p6
(S'f8'
I0
I1
tRp7
(I3
S'<'
NNNI-1
I-1
I0
tbI00
S'\xec*\xda\xf3O\xe7{A\xf8\xedw\x9a\x0e\xff\rA\xf1\x80S\xcaVvG\xc1'
tbsS'offset_permanent_ballast_height'
p8
cnumpy.core.multiarray
scalar
p9
(g6
(S'f8'
I0
I1
tRp10
(I3
S'<'
NNNI-1
I-1
I0
tbS').\x90D\x81?\xd4?'
tRp11
sS'rna_force'
p12
g3
(g4
(I0
tS'b'
tRp13
(I1
(I3
tg7
I00
S'\xcd\xcc\xccLc\x1e@A\x00\x00\x00\x00\x00\x00\x00\x00\xc3\xf5(\xec!\xffY\xc1'
tbsS'gamma_fatigue'
p14
F1.7549999999999999
sS'loading'
p15
S'hydrostatic'
p16
sS'lower_ring_pontoons_int'
p17
g9
(g10
S'\x00\x00\x00\x00\x00\x00\x00\x00'
tRp18
sS'tapered_col_cost_rate'
p19
F4720
sS'main_stiffener_web_height'
p20
g3
(g4
(I0
tS'b'
tRp21
(I1
(I5
tg6
(S'f8'
I0
I1
tRp22
(I3
S'<'
NNNI-1
I-1
I0
tbI00
S'N\x81i\x82u?\xdd?gb\xd7\x0c\x81\xff\xef?\xc6\xd9a2\x84$\xd1?\xa0\x92\xbd\x16\xe8\x8f\xe3?\xa7\x97u\x11\t\xf9\x86?'
tbsS'zref'
p23
F119
sS'outfitting_cost_rate'
p24
F6980
sS'offset_buoyancy_tank_location'
p25
g9
(g10
S' \xb0\x00\xcd\xb1\xf9\xa4?'
tRp26
sS'main_stiffener_flange_width'
p27
g3
(g4
(I0
tS'b'
tRp28
(I1
(I5
tg22
I00
S"m\xe1\xe2\xa7\x9d\xae\xb0?\xf3\x017RoC\xd7?\x95t\xd7f\x7f\xf5\xfe?\x92\xe7\xb4'6\xf4\xef?\xd4\xcf%\xae\xd4\xec\xde?"
tbsS'max_taper_ratio'
p29
F0.40000000000000002
sS'tower_outfitting_factor'
p30
F1.0700000000000001
sS'fairlead_support_wall_thickness'
p31
g9
(g10
S'\x01H\x9dC\xbf\x12\x93?'
tRp32
sS'T'
F9.8000000000000007
sS'bulkhead_mass_factor'
p33
F1
sS'wave_period_range_high'
p34
F20
sS'cross_attachment_pontoons_int'
p35
g9
(g10
S'\x00\x00\x00\x00\x00\x00\x00\x00'
tRp36
sS'outfitting_mass_fraction'
p37
F0.059999999999999998
sS'offset_buoyancy_tank_diameter'
p38
g9
(g10
S')\xc0\n>K&%@'
tRp39
sS'main_outer_diameter'
p40
g3
(g4
(I0
tS'b'
tRp41
(I1
(I6
tg22
I00
S'?\xcd\xeb\xf8\xd6H9@\xd3R\xa8\x0fyS&@%<O\xa4@j\x1d@\x9b%p[\xc2\x8e$@+\x8b#\xfe\xc5\xa0!@\x938\xc6{\x16\x91#@'
tbsS'rna_I'
p42
g3
(g4
(I0
tS'b'
tRp43
(I1
(I6
tg7
I00
S'\x00\x00\x00.b\xf5\xa3A\x00\x00\x00\x08)"\x99A\x00\x00\x00\xf0\x10Q\x94A\x00\x00\x00\x00\x00\x00\x00\x00\xa4p=\n\x98x7A\x00\x00\x00\x00\x00\x00\x00\x00'
tbsS'main.windLoads.mu'
p44
F1.8099999999999999e-05
sS'fairlead_support_outer_diameter'
p45
g9
(g10
S'57?S\xf3\xff#@'
tRp46
sS'offset_bulkhead_thickness'
p47
g3
(g4
(I0
tS'b'
tRp48
(I1
(I6
tg7
I00
S'\x9a\x99\x99\x99\x99\x99\xa9?\x9a\x99\x99\x99\x99\x99\xa9?\x00\x00\x00\x00\x00\x00\x00\x00\x00\x00\x00\x00\x00\x00\x00\x00\x00\x00\x00\x00\x00\x00\x00\x00\x9a\x99\x99\x99\x99\x99\xa9?'
tbsS'mooring_max_offset'
p49
F100
sS'shell_mass_factor'
p50
F1
sS'main_pontoon_attach_upper'
p51
g9
(g10
S'\xcd\xaa\x96V\xcf\xa8\xed?'
tRp52
sS'rna_mass'
p53
F449282.40530069917
sS'tower_buckling_length'
p54
F30
sS'Hs'
p55
F10.800000000000001
sS'main_freeboard'
p56
g9
(g10
S'X\xb1\x0e\x03\xb4\xff=@'
tRp57
sS'Rhub'
p58
F2.2999999999999998
sS'material_density'
p59
F7850
sS'main_stiffener_spacing'
p60
g3
(g4
(I0
tS'b'
tRp61
(I1
(I5
tg22
I00
S'\xe7R\x89j\x8b1%@\xf0\x06\x7f\x02\x8a\x93"@\xdf%\xa7\xcf;n-@\x02e\x89\xe4\x87\xb90@\xde~\x0fa\x14\x9a:@'
tbsS'tower_outer_diameter'
p62
g3
(g4
(I0
tS'b'
tRp63
(I1
(I6
tg7
I00
S'\x00\x00\x00\x00\x00\x00"@\x00\x00\x00\x00\x00\x00"@\x9a\x99\x99\x99\x99\x99 @\xa4p=\n\xd7\xa3\x1b@\x00\x00\x00\x00\x00\x00\x16@\x00\x00\x00\x00\x00\x00\x16@'
tbsS'anchor_type'
p64
S'suctionpile'
p65
sS'G'
F79300000000
sS'max_offset'
p66
F100
sS'max_survival_heel'
p67
F15
sS'main_stiffener_flange_thickness'
p68
g3
(g4
(I0
tS'b'
tRp69
(I1
(I5
tg22
I00
S'\x15\xe7\xce\xd3b\xbe\xb1?\x1cIl\xe7}\x83\xd7?\x8b_\x99\x89U\xce\xc1?\x8b\xc0\xc5;\xd5\xe6\xdf?\x12\x10\xa2\x84\xf9#\xc8?'
tbsS'permanent_ballast_density'
p70
F4492
sS'z0'
p71
F0
sS'Uc'
p72
F0
sS'offset_stiffener_web_thickness'
p73
g3
(g4
(I0
tS'b'
tRp74
(I1
(I5
tg22
I00
S'g\xd2\xd89\r\xb0\xdf?V\xeb.`{\xec\xc3?\xea\xa6x\x1f\xa8\x99x?2\xcdc\xd5\x1f\xd6k?\xad\x8e\xfbH\xfd\xe9\x97?'
tbsS'pontoon_wall_thickness'
p75
g9
(g10
S'\xb8z\xb0\x96\xf4\\\x94?'
tRp76
sS'number_of_offset_columns'
p77
I3
sS'fairlead'
p78
g9
(g10
S'\xdb\xf9`\xa0\t\xc6\x1f@'
tRp79
sS'radius_to_offset_column'
p80
g9
(g10
S'\x1b\x0b\xc8\xc4\xb1\xecJ@'
tRp81
sS'tower_section_height'
p82
g3
(g4
(I0
tS'b'
tRp83
(I1
(I5
tg7
I00
S'\x00\x00\x00\x00\x00\x00$@\x00\x10\xaeG\xe1z\x84?\xc3\xf5(\\\x8fBJ@\xcc\xcc\xcc\xcc\xcc\x8cJ@\x00)\\\x8f\xc2\xf5\n@'
tbsS'main_buoyancy_tank_location'
p84
g9
(g10
S'\x86 \xf2UL@\xf1>'
tRp85
sS'cm'
p86
F2
sS'main.waveLoads.mu'
p87
F0.00088999999999999995
sS'mooring_diameter'
p88
g9
(g10
S"\xfd\xa9y\xca'\xab\xd1?"
tRp89
sS'gamma_m'
p90
F1.1000000000000001
sS'gamma_n'
p91
F1
sS'offset_section_height'
p92
g3
(g4
(I0
tS'b'
tRp93
(I1
(I5
tg22
I00
S'\x8c\x80\x18\x1e\xee\xa2\xee?,\xafW\x92\x9cG\xfc?9Eht\xa0\xfd2@\xf5\xb7\xdf\xb8/\x13\xd8?\x91b\xcb\xec\xff3\x17@'
tbsS'main_bulkhead_thickness'
p94
g3
(g4
(I0
tS'b'
tRp95
(I1
(I6
tg7
I00
S'\x9a\x99\x99\x99\x99\x99\xa9?\x9a\x99\x99\x99\x99\x99\xa9?\x00\x00\x00\x00\x00\x00\x00\x00\x00\x00\x00\x00\x00\x00\x00\x00\x00\x00\x00\x00\x00\x00\x00\x00\x9a\x99\x99\x99\x99\x99\xa9?'
tbsS'yaw'
p96
F0
sS'gamma_f'
p97
F1.3500000000000001
sS'offset_freeboard'
p98
g9
(g10
S'~\x12|\xcd\xcc\xe2+@'
tRp99
sS'gamma_b'
p100
F1.1000000000000001
sS'z_offset'
p101
F0
sS'ballast_cost_rate'
p102
F100
sS'number_of_mooring_connections'
p103
I3
sS'mooring_line_length'
p104
g9
(g10
S"\x92t:u'\x9a\xa6@"
tRp105
sS'outer_cross_pontoons_int'
p106
g9
(g10
S'\x00\x00\x00\x00\x00\x00\x00\x00'
tRp107
sS'water_depth'
p108
F320
sS'main_buoyancy_tank_diameter'
p109
g9
(g10
S'\xd6i\x9b\x07\xa2g\x1d@'
tRp110
sS'column_mass_factor'
p111
F1.05
sS'operational_heel'
p112
F6
sS'offset_outer_diameter'
p113
g3
(g4
(I0
tS'b'
tRp114
(I1
(I6
tg22
I00
S'N\x8eZ\x9f>\x04(@\xb4i\xac)\xfc}:@\xab\xb8\xf7\xf6\xaa\x84%@\xc9P\xf43\xdd\x91"@+J\xea\x06\xce\x04\x1b@\x06\x18um\xd2\xcc\x18@'
tbsS'yield_stress'
p115
F345000000
sS'main_wall_thickness'
p116
g3
(g4
(I0
tS'b'
tRp117
(I1
(I6
tg22
I00
S'\n\x1d\x9f=c>\xaa?\xf8\xa6\\\x1b\x96\x83\xaf?\x83QDx\xd8l\xae?y\xe7Yd\xd3R\xa4?.\x9du\x1e\x83\xd8\xa6?\xe3\x90\x8b\xc42\x07\xae?'
tbsS'connection_ratio_max'
p118
F0.25
sS'ring_mass_factor'
p119
F1
sS'upper_ring_pontoons_int'
p120
g9
(g10
S'\x00\x00\x00\x00\x00\x00\x00\x00'
tRp121
sS'main_stiffener_web_thickness'
p122
g3
(g4
(I0
tS'b'
tRp123
(I1
(I5
tg22
I00
S',\xe9@\xd0\xad*\xb7?\xaa\x17\xb7;?\xeb\xdf?:%c\x17\x00\xaf\xc5?\t\xd5P\xec\xbe_\xc1?0~\xb4\xab\xe1s\xac?'
tbsS'lower_attachment_pontoons_int'
p124
g9
(g10
S'\x00\x00\x00\x00\x00\x00\xf0?'
tRp125
sS'water_density'
p126
F1025
sS'main_buoyancy_tank_height'
p127
g9
(g10
S'\xb5\x95\xe8#\xd9p\xfe?'
tRp128
sS'cd_usr'
p129
Finf
sS'min_diameter_thickness_ratio'
p130
F120
sS'offset_wall_thickness'
p131
g3
(g4
(I0
tS'b'
tRp132
(I1
(I6
tg22
I00
S'KB\xdcm\xa5\x90\xb9?\xf1\xfd\xe3\xf8\xfd,\xc9?!\xb2\xd6\x85\xd1\x16\xb4?-\x14\x98Z\xd3\x0e\x96?\x1d\x9f\xb9\xdf\x806\xa6?p6\xb0\xc2\xacIq?'
tbsS'offset_buoyancy_tank_height'
p133
g9
(g10
S'\xed\xe3\x98sm\x89\x0b@'
tRp134
sS'main_section_height'
p135
g3
(g4
(I0
tS'b'
tRp136
(I1
(I5
tg22
I00
S"\xc9\xa0!'\xe4\x07(@\xe0o4\xb3\xe1\xcc\xf8?\xee-\xa1^\xd0p\x1b@*|\xe4\x1b\x0fa'@E\xe4\xdf\x00\xdd9'@"
tbsS'Uref'
p137
F11
sS'anchor_radius'
p138
g9
(g10
S'\x82"5(\x19\xd8\xa5@'
tRp139
sS'rna_cg'
p140
g3
(g4
(I0
tS'b'
tRp141
(I1
(I3
tg7
I00
S'\x1e\x01\x16\xd8\xe7Z\xe3\xbf\x00\x00\x00\x00\x00\x00\x00\x00\x0e\xb4L\xd0p$\x04@'
tbsS'pontoon_outer_diameter'
p142
g9
(g10
S']\xf4\xf7\xd2-\xd2!@'
tRp143
sS'fairlead_offset_from_shell'
p144
F6.0004865405187147
sS'tower_wall_thickness'
p145
g3
(g4
(I0
tS'b'
tRp146
(I1
(I6
tg7
I00
S'\xe0\xa3p=\n\xd7\xd3?@33333\xd3?\x00R\xb8\x1e\x85\xeb\xc1?@\\\x8f\xc2\xf5(\xbc?\x80\x1e\x85\xebQ\xb8\xae?\x80\x1e\x85\xebQ\xb8\xae?'
tbsS'mooring_cost_rate'
p147
F1.1000000000000001
sS'nu'
p148
F0.26000000000000001
sS'E'
F200000000000
sS'wave_period_range_low'
p149
F2
sS'main_pontoon_attach_lower'
p150
g9
(g10
S'\xa89\xe8\x8d\xab\xd9\xb9?'
tRp151
sS'offset_stiffener_flange_thickness'
p152
g3
(g4
(I0
tS'b'
tRp153
(I1
(I5
tg22
I00
S'\xbc.\xf4\xf8?!\xd3?;\xdc\x1a\xb1\xf3\xd6\xdf?\xec(zz\xf1\xa8\xcb?\t\xf2VZ\xa4%\xc4?\xa4\xa5\x89)\xb1}\xc4?'
tbsS'main.windLoads.rho'
p154
F1.198
sS'beta'
p155
F0
sS'shearExp'
p156
F0.11
sS'mooring_lines_per_connection'
p157
g9
(g10
S'\x00\x00\x00\x00\x00\x00\x00@'
tRp158
sS'main_permanent_ballast_height'
p159
g9
(g10
S'\xc5\x07\xe4=/\xb1\x13@'
tRp160
sS'offset_stiffener_flange_width'
p161
g3
(g4
(I0
tS'b'
tRp162
(I1
(I5
tg22
I00
S'\xd1Wv\xdb\xa3:\xe1?\xc5x\\\x1e/\xed\xa8?\x8c\x84\x19`\xda\xff\xd8?x\xf21\x15\xd0M\xc5?\x05\xe9\xbe\x97\xf6\xd2\xed?'
tbsS'offset_stiffener_spacing'
p163
g3
(g4
(I0
tS'b'
tRp164
(I1
(I5
tg22
I00
S'\xbb\xd3.\xdf-,\x0b@\xaa=S\xcf\xbe{>@`\xeem\x1c\xf8\x8fJ@!\xe8\xd1\xa2s\x15*@\xf7\x7f\x84f+\xa4/@'
tbsS'mooring_type'
p165
S'chain'
p166
sS'hub_height'
p167
F149
sS'upper_attachment_pontoons_int'
p168
g9
(g10
S'\x00\x00\x00\x00\x00\x00\x00\x00'
tRp169
sS'offset_stiffener_web_height'
p170
g3
(g4
(I0
tS'b'
tRp171
(I1
(I5
tg22
I00
S'$\x82\xdb\xb8\xe5C\xc7?\xf8b\x04P\x8e\xc0\xda?O/\x0f@}\xe2\xc0?\xaf\xc9E\x8aWN\xb4?QF\xfa\xc8\xc0-\xbc?'
tbsS'pontoon_cost_rate'
p172
F6.25
s(lp173
(lp174
S'fairlead'
p175
aF0
aF20
aa(lp176
S'fairlead_support_wall_thickness'
p177
aF0.001
aF1
aa(lp178
S'fairlead_support_outer_diameter'
p179
aF0.10000000000000001
aF10
aa(lp180
S'main_freeboard'
p181
aF0
aF50
aa(lp182
S'main_section_height'
p183
aF0.10000000000000001
aF50
aa(lp184
S'main_outer_diameter'
p185
aF2.1000000000000001
aF40
aa(lp186
S'main_wall_thickness'
p187
aF0.001
aF0.5
aa(lp188
S'main_buoyancy_tank_diameter'
p189
aF0
aF50
aa(lp190
S'main_buoyancy_tank_height'
p191
aF0
aF20
aa(lp192
S'main_buoyancy_tank_location'
p193
aF0
aF1
aa(lp194
S'offset_freeboard'
p195
aF2
aF15
aa(lp196
S'offset_section_height'
p197
aF0.10000000000000001
aF50
aa(lp198
S'offset_outer_diameter'
p199
aF1.1000000000000001
aF40
aa(lp200
S'offset_wall_thickness'
p201
aF0.001
aF0.5
aa(lp202
S'offset_buoyancy_tank_diameter'
p203
aF0
aF50
aa(lp204
S'offset_buoyancy_tank_height'
p205
aF0
aF20
aa(lp206
S'offset_buoyancy_tank_location'
p207
aF0
aF1
aa(lp208
S'pontoon_outer_diameter'
p209
aF1
aF10
aa(lp210
S'pontoon_wall_thickness'
p211
aF0.01
aF1
aa(lp212
S'main_pontoon_attach_lower'
p213
aF0
aF0.5
aa(lp214
S'main_pontoon_attach_upper'
p215
aF0.5
aF1
aa(lp216
S'mooring_line_length'
p217
aF200
aF3000
aa(lp218
S'anchor_radius'
p219
aF100
aF5000
aa(lp220
S'mooring_diameter'
p221
aF0.050000000000000003
aF2
aa(lp222
S'main_permanent_ballast_height'
p223
aF0.10000000000000001
aF50
aa(lp224
S'main_stiffener_web_height'
p225
aF0.01
aF1
aa(lp226
S'main_stiffener_web_thickness'
p227
aF0.001
aF0.5
aa(lp228
S'main_stiffener_flange_width'
p229
aF0.01
aF5
aa(lp230
S'main_stiffener_flange_thickness'
p231
aF0.001
aF0.5
aa(lp232
S'main_stiffener_spacing'
p233
aF0.10000000000000001
aF100
aa(lp234
S'offset_stiffener_web_height'
p235
aF0.01
aF1
aa(lp236
S'offset_stiffener_web_thickness'
p237
aF0.001
aF0.5
aa(lp238
S'offset_stiffener_flange_width'
p239
aF0.01
aF5
aa(lp240
S'offset_stiffener_flange_thickness'
p241
aF0.001
aF0.5
aa(lp242
S'offset_stiffener_spacing'
p243
aF0.10000000000000001
aF100
aa(lp244
S'offset_permanent_ballast_height'
p245
aF0.10000000000000001
aF50
aa(lp246
S'radius_to_offset_column'
p247
aF5
aF100
aa(lp248
(lp249
S'tow.height_constraint'
p250
aF-0.01
aF0.01
aNaa(lp251
S'main.draft'
p252
aF0
aF20
aNaa(lp253
S'off.draft'
p254
aF0
aF20
aNaa(lp255
S'main.draft_depth_ratio'
p256
aNaF0.90000000000000002
aNaa(lp257
S'off.draft_depth_ratio'
p258
aNaF0.90000000000000002
aNaa(lp259
S'main.wave_height_freeboard_ratio'
p260
aNaF1
aNaa(lp261
S'off.wave_height_freeboard_ratio'
p262
aNaF1
aNaa(lp263
S'off.fairlead_draft_ratio'
p264
aF0
aF20
aNaa(lp265
S'main_offset_spacing'
p266
aF1
aNaNaa(lp267
S'main.manufacturability'
p268
aF0
aNaNaa(lp269
S'main.weldability'
p270
aNaF0
aNaa(lp271
S'off.manufacturability'
p272
aF0
aNaNaa(lp273
S'off.weldability'
p274
aNaF0
aNaa(lp275
S'tower_transition_buffer'
p276
aF-1
aF1
aNaa(lp277
S'nacelle_transition_buffer'
p278
aF0
aNaNaa(lp279
S'offset_freeboard_heel_margin'
p280
aF0
aNaNaa(lp281
S'offset_draft_heel_margin'
p282
aF0
aF20
aNaa(lp283
S'axial_unity'
p284
aF0
aF1
aNaa(lp285
S'mooring_length_max'
p286
aNaF1
aNaa(lp287
S'main.flange_spacing_ratio'
p288
aNaF1
aNaa(lp289
S'main.stiffener_radius_ratio'
p290
aNaF0.5
aNaa(lp291
S'main.flange_compactness'
p292
aF1
aNaNaa(lp293
S'main.web_compactness'
p294
aF1
aNaNaa(lp295
S'main.axial_local_api'
p296
aNaF1
aNaa(lp297
S'main.axial_general_api'
p298
aNaF1
aNaa(lp299
S'main.external_local_api'
p300
aNaF1
aNaa(lp301
S'main.external_general_api'
p302
aNaF1
aNaa(lp303
S'off.flange_spacing_ratio'
p304
aNaF1
aNaa(lp305
S'off.stiffener_radius_ratio'
p306
aNaF0.5
aNaa(lp307
S'off.flange_compactness'
p308
aF1
aNaNaa(lp309
S'off.web_compactness'
p310
aF1
aNaNaa(lp311
S'off.axial_local_api'
p312
aNaF1
aNaa(lp313
S'off.axial_general_api'
p314
aNaF1
aNaa(lp315
S'off.external_local_api'
p316
aNaF1
aNaa(lp317
S'off.external_general_api'
p318
aNaF1
aNaa(lp319
S'pontoon_stress'
p320
aNaF1
aNaa(lp321
S'tower_stress'
p322
aNaF1
aNaa(lp323
S'tower_shell_buckling'
p324
aNaF1
aNaa(lp325
S'tower_global_buckling'
p326
aNaF1
aNaa(lp327
S'main_stress'
p328
aNaF1
aNaa(lp329
S'main_shell_buckling'
p330
aNaF1
aNaa(lp331
S'main_global_buckling'
p332
aNaF1
aNaa(lp333
S'offset_stress'
p334
aNaF1
aNaa(lp335
S'offset_shell_buckling'
p336
aNaF1
aNaa(lp337
S'offset_global_buckling'
p338
aNaF1
aNaa(lp339
S'variable_ballast_height_ratio'
p340
aF0
aF1
aNaa(lp341
S'variable_ballast_mass'
p342
aF0
aNaNaa(lp343
S'metacentric_height'
p344
aF0.10000000000000001
aNaNaa(lp345
S'offset_force_ratio'
p346
aNaF1
aNaa(lp347
S'heel_moment_ratio'
p348
aNaF1
aNaa(lp349
S'period_margin_low'
p350
aNaF1
aNaa(lp351
S'period_margin_high'
p352
aF1
aNaNaa(S'total_cost'
p353
F1.0000000000000001e-09
tp354
S'NM'
p355
t.