((dp1
S'rna_moment'
p2
cnumpy.core.multiarray
_reconstruct
p3
(cnumpy
ndarray
p4
(I0
tS'b'
tRp5
(I1
(I3
tcnumpy
dtype
p6
(S'f8'
I0
I1
tRp7
(I3
S'<'
NNNI-1
I-1
I0
tbI00
S'\xec*\xda\xf3O\xe7{A\xf8\xedw\x9a\x0e\xff\rA\xf1\x80S\xcaVvG\xc1'
tbsS'offset_permanent_ballast_height'
p8
cnumpy.core.multiarray
scalar
p9
(g6
(S'f8'
I0
I1
tRp10
(I3
S'<'
NNNI-1
I-1
I0
tbS'y""\xf7\xda"\xe0?'
tRp11
sS'rna_force'
p12
g3
(g4
(I0
tS'b'
tRp13
(I1
(I3
tg7
I00
S'\xcd\xcc\xccLc\x1e@A\x00\x00\x00\x00\x00\x00\x00\x00\xc3\xf5(\xec!\xffY\xc1'
tbsS'gamma_fatigue'
p14
F1.7549999999999999
sS'loading'
p15
S'hydrostatic'
p16
sS'lower_ring_pontoons_int'
p17
g9
(g10
S'\x00\x00\x00\x00\x00\x00\x00\x00'
tRp18
sS'main_stiffener_web_height'
p19
g3
(g4
(I0
tS'b'
tRp20
(I1
(I4
tg10
I00
S'\x12"\x13s\xb8R\xbd?\xad\x08o\x8a\xfc\x90\x98?\xde7\x95Y\xaaB\xe7?\xfc\x95\x8fF\x11\x90\x98?'
tbsS'zref'
p21
F119
sS'outfitting_cost_rate'
p22
F1.6500000000000001
sS'offset_buoyancy_tank_location'
p23
g9
(g10
S'\x03\x8cs\x0f\xe4\x9a\xa2?'
tRp24
sS'main_stiffener_flange_width'
p25
g3
(g4
(I0
tS'b'
tRp26
(I1
(I4
tg10
I00
S'\xe1\x83\xd3V\xf9A\xf8?\x83l6\x85\xc4;\xfe?(XvV\xc6\xba\xbd?\xac\xfc\x10\xafp\xae\x13@'
tbsS'max_taper_ratio'
p27
F0.40000000000000002
sS'main_stiffener_spacing'
p28
g3
(g4
(I0
tS'b'
tRp29
(I1
(I4
tg10
I00
S'\xd0\xf3e0!\x1a2@\xd6\x8c\x91[\xd6\x1d7@\xdat|\x05Uz\x0e@\xbc\xa8\xad\xad\xd4DF@'
tbsS'max_draft'
p30
F30
sS'T'
F9.8000000000000007
sS'bulkhead_mass_factor'
p31
F1
sS'wave_period_range_high'
p32
F20
sS'cross_attachment_pontoons_int'
p33
g9
(g10
S'\x00\x00\x00\x00\x00\x00\xf0?'
tRp34
sS'outfitting_mass_fraction'
p35
F0.059999999999999998
sS'offset_buoyancy_tank_diameter'
p36
g9
(g10
S'\xf2\x9e\xca\x11\xbbL+@'
tRp37
sS'main_outer_diameter'
p38
g3
(g4
(I0
tS'b'
tRp39
(I1
(I5
tg10
I00
S'\xdc\xed\x95\xcb$\xd2\x18@\x87j\xf0\xc6\xc8; @\x89\t\xaes(\xb0;@R\x15kk\xcf\x13\x05@\x84GzG\xbd\x16%@'
tbsS'rna_I'
p40
g3
(g4
(I0
tS'b'
tRp41
(I1
(I6
tg7
I00
S'\x00\x00\x00.b\xf5\xa3A\x00\x00\x00\x08)"\x99A\x00\x00\x00\xf0\x10Q\x94A\x00\x00\x00\x00\x00\x00\x00\x00\xa4p=\n\x98x7A\x00\x00\x00\x00\x00\x00\x00\x00'
tbsS'main.windLoads.mu'
p42
F1.8099999999999999e-05
sS'fairlead_support_outer_diameter'
p43
g9
(g10
S'\x1cM\nVNP\xcf?'
tRp44
sS'offset_bulkhead_thickness'
p45
g3
(g4
(I0
tS'b'
tRp46
(I1
(I5
tg6
(S'f8'
I0
I1
tRp47
(I3
S'<'
NNNI-1
I-1
I0
tbI00
S'\x9a\x99\x99\x99\x99\x99\xa9?\x9a\x99\x99\x99\x99\x99\xa9?\x00\x00\x00\x00\x00\x00\x00\x00\x00\x00\x00\x00\x00\x00\x00\x00\x9a\x99\x99\x99\x99\x99\xa9?'
tbsS'shell_mass_factor'
p48
F1
sS'main_pontoon_attach_upper'
p49
g9
(g10
S'bt\x05~\x14@\xec?'
tRp50
sS'rna_mass'
p51
F627696.90530069917
sS'tower_buckling_length'
p52
F30
sS'Hs'
p53
F10.800000000000001
sS'main_freeboard'
p54
g9
(g10
S'\xf3\xe7\xd6\xfbW2B@'
tRp55
sS'Rhub'
p56
F2.2999999999999998
sS'material_density'
p57
F7850
sS'tower_outfitting_factor'
p58
F1.0700000000000001
sS'tower_outer_diameter'
p59
g3
(g4
(I0
tS'b'
tRp60
(I1
(I4
tg10
I00
S'\xe6\x1c\x08\x89\x0e\x84\x1d@\x18q\x81\x85l\xe9\x1b@\x06\xcc\x0e\x00(\x13,@\x94\xe7\x9b\xfd\xfe\xfb\x08@'
tbsS'anchor_type'
p61
S'suctionpile'
p62
sS'G'
F79300000000
sS'fairlead_location'
p63
g9
(g10
S'>ie\x9f\xa0+\xd3?'
tRp64
sS'max_offset'
p65
F100
sS'max_survival_heel'
p66
F15
sS'main.waveLoads.mu'
p67
F0.00088999999999999995
sS'permanent_ballast_density'
p68
F4492
sS'z0'
p69
F0
sS'Uc'
p70
F0
sS'material_cost_rate'
p71
F1.1000000000000001
sS'pontoon_wall_thickness'
p72
g9
(g10
S'dd\x07\x1a;\xf4\x8d?'
tRp73
sS'number_of_offset_columns'
p74
I3
sS'radius_to_offset_column'
p75
g9
(g10
S'\xf4\n\xccC?sF@'
tRp76
sS'tower_section_height'
p77
g3
(g4
(I0
tS'b'
tRp78
(I1
(I3
tg10
I00
S'\x80\x9e\xd0\xe7M/,@\x16\x1cI[\xff\xa6/@\\\x7f\xa0t\x0c\xacT@'
tbsS'main_buoyancy_tank_location'
p79
g9
(g10
S'\x00\x00\x00\x00\x00\x00\x00\x00'
tRp80
sS'cm'
p81
F2
sS'main_stiffener_flange_thickness'
p82
g3
(g4
(I0
tS'b'
tRp83
(I1
(I4
tg10
I00
S"\x9ap\t\xa3\xd6u\xbf?i\x0c\xb1f'\x12\xd4?,j\x9a\xf5\xf2\xce\xdf?\x00\x00\x00\x00\x00\x00\xe0?"
tbsS'hub_cm'
p84
g3
(g4
(I0
tS'b'
tRp85
(I1
(I3
tg47
I00
S'ffffff\x1c\xc0\x00\x00\x00\x00\x00\x00\x00\x00\x00\x00\x00\x00\x00\x00\x06@'
tbsS'mooring_diameter'
p86
g9
(g10
S'\xc8\\VN\xda\xe0\xc2?'
tRp87
sS'gamma_m'
p88
F1.1000000000000001
sS'gamma_n'
p89
F1
sS'offset_section_height'
p90
g3
(g4
(I0
tS'b'
tRp91
(I1
(I4
tg10
I00
S'2\x8a\xb7\x0cl\x15&@\\Dy)\xd6\xfb\xeb?$tV\x8f]\xff\xe0?`w;\xb0\xa5\x0e=@'
tbsS'main_bulkhead_thickness'
p92
g3
(g4
(I0
tS'b'
tRp93
(I1
(I5
tg47
I00
S'\x9a\x99\x99\x99\x99\x99\xa9?\x9a\x99\x99\x99\x99\x99\xa9?\x00\x00\x00\x00\x00\x00\x00\x00\x00\x00\x00\x00\x00\x00\x00\x00\x9a\x99\x99\x99\x99\x99\xa9?'
tbsS'yaw'
p94
F0
sS'gamma_f'
p95
F1.3500000000000001
sS'offset_freeboard'
p96
g9
(g10
S'\xe6o\x92V\x1d0)@'
tRp97
sS'gamma_b'
p98
F1.1000000000000001
sS'tip_position'
p99
g3
(g4
(I0
tS'b'
tRp100
(I1
(I3
tg7
I00
S'\x9c\xc4 \xb0rh\x0c\xc0\x00\x00\x00\x00\x00\x00\x00\x00\x1b/\xdd$\x06\x815@'
tbsS'z_offset'
p101
F0
sS'ballast_cost_rate'
p102
F0.10000000000000001
sS'number_of_mooring_connections'
p103
I3
sS'offset_stiffener_web_thickness'
p104
g3
(g4
(I0
tS'b'
tRp105
(I1
(I4
tg10
I00
S'R\xb4\x06\xad\xadf\xdc?\xa2\x87\x06\x86\xd2\xd4\xa5?\x00\xaa\xf1\xd2MbP?\xe6\xafF\x07\xb4\xd0\x99?'
tbsS'mooring_line_length'
p106
g9
(g10
S'\x98\xf6A$+k\xa7@'
tRp107
sS'downwind'
p108
I00
sS'outer_cross_pontoons_int'
p109
g9
(g10
S'\x00\x00\x00\x00\x00\x00\x00\x00'
tRp110
sS'water_depth'
p111
F320
sS'main_buoyancy_tank_diameter'
p112
g9
(g10
S'\xe9j\xb2\xc3n\xfc\x1b='
tRp113
sS'column_mass_factor'
p114
F1.05
sS'operational_heel'
p115
F6
sS'offset_outer_diameter'
p116
g3
(g4
(I0
tS'b'
tRp117
(I1
(I5
tg10
I00
S"\xa2\xa3\xdd\xb2\xf8'\x12@\xdby\xfeS_\x08\x11@\xfbJ\xa8\x0c\xee\xea-@\xd0\x19\x87w\x84\xbf#@7\xab\xea.hf\x0c@"
tbsS'yield_stress'
p118
F345000000
sS'main_wall_thickness'
p119
g3
(g4
(I0
tS'b'
tRp120
(I1
(I4
tg10
I00
S'*+y\xe5:\r\xa9?$\x17\xc2\xda(K\xbb?\x94]*\xd7\x04|\xac?\xa4|\x95\x8f\x9d\x7f\xab?'
tbsS'connection_ratio_max'
p121
F0.25
sS'ring_mass_factor'
p122
F1
sS'upper_ring_pontoons_int'
p123
g9
(g10
S'\x00\x00\x00\x00\x00\x00\xf0?'
tRp124
sS'main_stiffener_web_thickness'
p125
g3
(g4
(I0
tS'b'
tRp126
(I1
(I4
tg10
I00
S'R@\x97\x9a\x90\xa6s?\x00\xaa\xf1\xd2MbP?N\x1d\xeb\x04\x85\x86\x9f?\x00\xaa\xf1\xd2MbP?'
tbsS'lower_attachment_pontoons_int'
p127
g9
(g10
S'\x00\x00\x00\x00\x00\x00\xf0?'
tRp128
sS'water_density'
p129
F1025
sS'main_buoyancy_tank_height'
p130
g9
(g10
S'\x00\x00\x00\x00\x00\x00\x00\x00'
tRp131
sS'cd_usr'
p132
Finf
sS'min_diameter_thickness_ratio'
p133
F120
sS'offset_wall_thickness'
p134
g3
(g4
(I0
tS'b'
tRp135
(I1
(I4
tg10
I00
S'\x04\xbc\x9c["\x03\x9c?\x82\x86\x9ca\xea8\xa4?\xdc+{q\x8bh\xb0?j\xa3\x19\xc8H\xc2\xa9?'
tbsS'offset_buoyancy_tank_height'
p136
g9
(g10
S'\x14DK`1\xd2$@'
tRp137
sS'main_section_height'
p138
g3
(g4
(I0
tS'b'
tRp139
(I1
(I4
tg10
I00
S'\xdc\x80q\xdb\xfd\x1b\x01@\xee\xa3a[\xfc\x14\x08@\xe9\r\x12\x1b\x8c\x07\x03@(\x009\x9e\x05\xb1D@'
tbsS'Uref'
p140
F11
sS'anchor_radius'
p141
g9
(g10
S'\x0f\xae\n\xa2$\xd8\xa6@'
tRp142
sS'rna_cg'
p143
g3
(g4
(I0
tS'b'
tRp144
(I1
(I3
tg7
I00
S'\x1e\x01\x16\xd8\xe7Z\xe3\xbf\x00\x00\x00\x00\x00\x00\x00\x00\x0e\xb4L\xd0p$\x04@'
tbsS'pontoon_outer_diameter'
p145
g9
(g10
S'\xcf\x99\xa5\x08\x00\xc4\xf3?'
tRp146
sS'fairlead_support_wall_thickness'
p147
g9
(g10
S'b\xce\xbf\x0f{2\xc9?'
tRp148
sS'fairlead_offset_from_shell'
p149
g9
(g10
S'\r\xb9X&r\xe9\x13@'
tRp150
sS'tower_wall_thickness'
p151
g3
(g4
(I0
tS'b'
tRp152
(I1
(I3
tg10
I00
S"\xb1o'\xd0\xdc\x10\xa3?d\x84x?\xf6e\x9e?\xfdx_\x1c\x1f\xe5\x93?"
tbsS'mooring_cost_rate'
p153
F1.1000000000000001
sS'painting_cost_rate'
p154
F14.4
sS'nu'
p155
F0.26000000000000001
sS'E'
F200000000000
sS'wave_period_range_low'
p156
F2
sS'main_pontoon_attach_lower'
p157
g9
(g10
S'\x02\xfc9\x0c\x9b4\x8c?'
tRp158
sS'offset_stiffener_flange_thickness'
p159
g3
(g4
(I0
tS'b'
tRp160
(I1
(I4
tg10
I00
S"u\xef\xcb\x96\x05\xa2\xc3?\xa9\xaf\xdc\xe9\x85\x86\xd3?\x94'\xd9\xec\xfe\xd4\xca?\xba\x8f\t=\xc2s\xdf?"
tbsS'main.windLoads.rho'
p161
F1.198
sS'beta'
p162
F0
sS'shearExp'
p163
F0.11
sS'mooring_lines_per_connection'
p164
g9
(g10
S'\x00\x00\x00\x00\x00\x00\x00@'
tRp165
sS'main_permanent_ballast_height'
p166
g9
(g10
S"\xa1\xb1-\xb2'@\xd8?"
tRp167
sS'offset_stiffener_flange_width'
p168
g3
(g4
(I0
tS'b'
tRp169
(I1
(I4
tg10
I00
S'i\xe3zENM\x05@\x94\xf3\xd3j\xf9\xb3\xaa?\xb4:\xf9N\x08\x92\xe1?n\xdaz\x01\x81\x92\x07@'
tbsS'offset_stiffener_spacing'
p170
g3
(g4
(I0
tS'b'
tRp171
(I1
(I4
tg10
I00
S'\xb1\xc9\x15\x99\xc0\x87&@\xc0\xc1\xb0z\xfal\xf3?\xcf\xda \xd4\x92w\x1a@\x88\xef\xa7\xb5\xb7,?@'
tbsS'mooring_type'
p172
S'chain'
p173
sS'hub_height'
p174
F149
sS'upper_attachment_pontoons_int'
p175
g9
(g10
S'\x00\x00\x00\x00\x00\x00\xf0?'
tRp176
sS'labor_cost_rate'
p177
F1
sS'offset_stiffener_web_height'
p178
g3
(g4
(I0
tS'b'
tRp179
(I1
(I4
tg10
I00
S'\xb2xfj\xc0\xce\xeb?\xc1\x17\xaeG\xe1z\x84?t\xe3\x8bd\x98\x90\x98?T%\x00\x1a\x8f9\xe3?'
tbs(lp180
(lp181
g63
aF0
aF1
aa(lp182
g149
aF0
aF5
aa(lp183
g147
aF0.001
aF1
aa(lp184
g43
aF0.10000000000000001
aF10
aa(lp185
g54
aF0
aF50
aa(lp186
g138
aF0.10000000000000001
aF50
aa(lp187
g38
aF2.1000000000000001
aF40
aa(lp188
g119
aF0.001
aF0.5
aa(lp189
g112
aF0
aF50
aa(lp190
g130
aF0
aF20
aa(lp191
g79
aF0
aF1
aa(lp192
g96
aF2
aF15
aa(lp193
g90
aF0.10000000000000001
aF50
aa(lp194
g116
aF1.1000000000000001
aF40
aa(lp195
g134
aF0.001
aF0.5
aa(lp196
g36
aF0
aF50
aa(lp197
g136
aF0
aF20
aa(lp198
g23
aF0
aF1
aa(lp199
g145
aF1
aF10
aa(lp200
g72
aF0.01
aF1
aa(lp201
g157
aF0
aF0.5
aa(lp202
g49
aF0.5
aF1
aa(lp203
g77
aF0.10000000000000001
aF100
aa(lp204
g59
aF1.1000000000000001
aF20
aa(lp205
g151
aF0.001
aF0.5
aa(lp206
g106
aF200
aF3000
aa(lp207
g141
aF100
aF5000
aa(lp208
g86
aF0.050000000000000003
aF2
aa(lp209
g166
aF0.10000000000000001
aF50
aa(lp210
g19
aF0.01
aF1
aa(lp211
g125
aF0.001
aF0.5
aa(lp212
g25
aF0.01
aF5
aa(lp213
g82
aF0.001
aF0.5
aa(lp214
g28
aF0.10000000000000001
aF100
aa(lp215
g178
aF0.01
aF1
aa(lp216
g104
aF0.001
aF0.5
aa(lp217
g168
aF0.01
aF5
aa(lp218
g159
aF0.001
aF0.5
aa(lp219
g170
aF0.10000000000000001
aF100
aa(lp220
g8
aF0.10000000000000001
aF50
aa(lp221
g75
aF5
aF100
aa(lp222
(lp223
S'tow.height_constraint'
p224
aF-0.01
aF0.01
aNaa(lp225
S'tow.tip_deflection_margin'
p226
aF1
aNaNaa(lp227
S'main.draft_margin'
p228
aNaF1
aNaa(lp229
S'off.draft_margin'
p230
aNaF1
aNaa(lp231
S'main.wave_height_freeboard_ratio'
p232
aNaF1
aNaa(lp233
S'off.wave_height_freeboard_ratio'
p234
aNaF1
aNaa(lp235
S'wave_height_fairlead_ratio'
p236
aNaF1
aNaa(lp237
S'main_offset_spacing'
p238
aF1
aNaNaa(lp239
S'main.manufacturability'
p240
aF0
aNaNaa(lp241
S'main.weldability'
p242
aNaF0
aNaa(lp243
S'off.manufacturability'
p244
aF0
aNaNaa(lp245
S'off.weldability'
p246
aNaF0
aNaa(lp247
S'tow.manufacturability'
p248
aF0
aNaNaa(lp249
S'tow.weldability'
p250
aNaF0
aNaa(lp251
S'tower_transition_buffer'
p252
aF0
aNaNaa(lp253
S'nacelle_transition_buffer'
p254
aF0
aNaNaa(lp255
S'offset_freeboard_heel_margin'
p256
aF0
aNaNaa(lp257
S'offset_draft_heel_margin'
p258
aF0
aNaNaa(lp259
S'axial_unity'
p260
aF0
aF1
aNaa(lp261
S'mooring_length_max'
p262
aNaF1
aNaa(lp263
S'main.flange_spacing_ratio'
p264
aNaF1
aNaa(lp265
S'main.stiffener_radius_ratio'
p266
aNaF0.5
aNaa(lp267
S'main.flange_compactness'
p268
aF1
aNaNaa(lp269
S'main.web_compactness'
p270
aF1
aNaNaa(lp271
S'main.axial_local_api'
p272
aNaF1
aNaa(lp273
S'main.axial_general_api'
p274
aNaF1
aNaa(lp275
S'main.external_local_api'
p276
aNaF1
aNaa(lp277
S'main.external_general_api'
p278
aNaF1
aNaa(lp279
S'off.flange_spacing_ratio'
p280
aNaF1
aNaa(lp281
S'off.stiffener_radius_ratio'
p282
aNaF0.5
aNaa(lp283
S'off.flange_compactness'
p284
aF1
aNaNaa(lp285
S'off.web_compactness'
p286
aF1
aNaNaa(lp287
S'off.axial_local_api'
p288
aNaF1
aNaa(lp289
S'off.axial_general_api'
p290
aNaF1
aNaa(lp291
S'off.external_local_api'
p292
aNaF1
aNaa(lp293
S'off.external_general_api'
p294
aNaF1
aNaa(lp295
S'pontoon_stress'
p296
aNaF1
aNaa(lp297
S'pontoon_wave_height_depth_margin'
p298
aF1
aNaNaa(lp299
S'tower_stress'
p300
aNaF1
aNaa(lp301
S'tower_shell_buckling'
p302
aNaF1
aNaa(lp303
S'tower_global_buckling'
p304
aNaF1
aNaa(lp305
S'main_stress'
p306
aNaF1
aNaa(lp307
S'main_shell_buckling'
p308
aNaF1
aNaa(lp309
S'main_global_buckling'
p310
aNaF1
aNaa(lp311
S'offset_stress'
p312
aNaF1
aNaa(lp313
S'offset_shell_buckling'
p314
aNaF1
aNaa(lp315
S'offset_global_buckling'
p316
aNaF1
aNaa(lp317
S'variable_ballast_height_ratio'
p318
aF0
aF1
aNaa(lp319
S'variable_ballast_mass'
p320
aF0
aNaNaa(lp321
S'metacentric_height'
p322
aF0.10000000000000001
aNaNaa(lp323
S'offset_force_ratio'
p324
aNaF1
aNaa(lp325
S'heel_moment_ratio'
p326
aNaF1
aNaa(lp327
S'period_margin_low'
p328
aNaF1
aNaa(lp329
S'period_margin_high'
p330
aF1
aNaNaa(S'total_cost'
p331
F9.9999999999999995e-07
tp332
S'NM'
p333
t.