((dp1
S'rna_moment'
p2
cnumpy.core.multiarray
_reconstruct
p3
(cnumpy
ndarray
p4
(I0
tS'b'
tRp5
(I1
(I3
tcnumpy
dtype
p6
(S'f8'
I0
I1
tRp7
(I3
S'<'
NNNI-1
I-1
I0
tbI00
S'\xec*\xda\xf3O\xe7{A\xf8\xedw\x9a\x0e\xff\rA\xf1\x80S\xcaVvG\xc1'
tbsS'offset_permanent_ballast_height'
p8
cnumpy.core.multiarray
scalar
p9
(g6
(S'f8'
I0
I1
tRp10
(I3
S'<'
NNNI-1
I-1
I0
tbS'\x05\xb1u\xe9.=\xd4?'
tRp11
sS'rna_force'
p12
g3
(g4
(I0
tS'b'
tRp13
(I1
(I3
tg7
I00
S'\xcd\xcc\xccLc\x1e@A\x00\x00\x00\x00\x00\x00\x00\x00\xc3\xf5(\xec!\xffY\xc1'
tbsS'gamma_fatigue'
p14
F1.7549999999999999
sS'loading'
p15
S'hydrostatic'
p16
sS'lower_ring_pontoons_int'
p17
g9
(g10
S'\x00\x00\x00\x00\x00\x00\x00\x00'
tRp18
sS'tapered_col_cost_rate'
p19
F4720
sS'main_stiffener_web_height'
p20
g3
(g4
(I0
tS'b'
tRp21
(I1
(I5
tg6
(S'f8'
I0
I1
tRp22
(I3
S'<'
NNNI-1
I-1
I0
tbI00
S'S:\xa4\xa4\xac.\xdd?\x05E\xfa\xa4|\xff\xef?S\xf6*r\x1d\x1d\xd1?\x8c\xc0\x06\xfd\xc8\x89\xe3?\x99\xd3\x7fa}\xe0\x86?'
tbsS'zref'
p23
F119
sS'outfitting_cost_rate'
p24
F6980
sS'offset_buoyancy_tank_location'
p25
g9
(g10
S'\x89\xd0rZ$\xe6\xa4?'
tRp26
sS'main_stiffener_flange_width'
p27
g3
(g4
(I0
tS'b'
tRp28
(I1
(I5
tg22
I00
S'6\x7fl\xa7.\xa8\xb0?m\x10\xdfu\x7f%\xd7?n\xd1o\xad\x81\xe3\xfe?9+\x0c\xfb|\xd6\xef?Y|\xeaGu\xe8\xde?'
tbsS'max_taper_ratio'
p29
F0.40000000000000002
sS'tower_outfitting_factor'
p30
F1.0700000000000001
sS'max_draft'
p31
F20
sS'T'
F9.8000000000000007
sS'bulkhead_mass_factor'
p32
F1
sS'wave_period_range_high'
p33
F20
sS'cross_attachment_pontoons_int'
p34
g9
(g10
S'\x00\x00\x00\x00\x00\x00\x00\x00'
tRp35
sS'outfitting_mass_fraction'
p36
F0.059999999999999998
sS'offset_buoyancy_tank_diameter'
p37
g9
(g10
S'\t\xe7\x1aI\x1c,%@'
tRp38
sS'main_outer_diameter'
p39
g3
(g4
(I0
tS'b'
tRp40
(I1
(I6
tg22
I00
S"\xb0-\xd1\x15\x15J9@y\xfcl\xc8\xd5\xb3'@\\\x98\x11\xf4nq\x1d@\x99\x99@\xd10\xa5$@-7\xce\x9dW\xae!@lB\xf0\x18#\xb8#@"
tbsS'rna_I'
p41
g3
(g4
(I0
tS'b'
tRp42
(I1
(I6
tg7
I00
S'\x00\x00\x00.b\xf5\xa3A\x00\x00\x00\x08)"\x99A\x00\x00\x00\xf0\x10Q\x94A\x00\x00\x00\x00\x00\x00\x00\x00\xa4p=\n\x98x7A\x00\x00\x00\x00\x00\x00\x00\x00'
tbsS'main.windLoads.mu'
p43
F1.8099999999999999e-05
sS'fairlead_support_outer_diameter'
p44
g9
(g10
S'\xfc\x8a\xf1y\xf2\xff#@'
tRp45
sS'offset_bulkhead_thickness'
p46
g3
(g4
(I0
tS'b'
tRp47
(I1
(I6
tg7
I00
S'\x9a\x99\x99\x99\x99\x99\xa9?\x9a\x99\x99\x99\x99\x99\xa9?\x00\x00\x00\x00\x00\x00\x00\x00\x00\x00\x00\x00\x00\x00\x00\x00\x00\x00\x00\x00\x00\x00\x00\x00\x9a\x99\x99\x99\x99\x99\xa9?'
tbsS'shell_mass_factor'
p48
F1
sS'main_pontoon_attach_upper'
p49
g9
(g10
S'\x8c\xcaz\xdc\xe1\xa9\xed?'
tRp50
sS'rna_mass'
p51
F672300.53030069917
sS'tower_buckling_length'
p52
F30
sS'Hs'
p53
F10.800000000000001
sS'main_freeboard'
p54
g9
(g10
S'Mi#*\x04\x00>@'
tRp55
sS'Rhub'
p56
F2.2999999999999998
sS'material_density'
p57
F7850
sS'main_stiffener_spacing'
p58
g3
(g4
(I0
tS'b'
tRp59
(I1
(I5
tg22
I00
S'\\@\xa4\xf4\x82(%@\xa5\xf5\x14Q\xcc\x86"@!\xf7NwKG-@\xc2\xcb\x1d\x11)\xa30@\x84X5FP\xa8:@'
tbsS'tower_outer_diameter'
p60
g3
(g4
(I0
tS'b'
tRp61
(I1
(I6
tg7
I00
S'\x00\x00\x00\x00\x00\x00"@\x00\x00\x00\x00\x00\x00"@\x9a\x99\x99\x99\x99\x99 @\xa4p=\n\xd7\xa3\x1b@\x00\x00\x00\x00\x00\x00\x16@\x00\x00\x00\x00\x00\x00\x16@'
tbsS'anchor_type'
p62
S'suctionpile'
p63
sS'G'
F79300000000
sS'fairlead_location'
p64
g9
(g10
S"'F\xda\xb1\xa0\xf9\xcb?"
tRp65
sS'max_offset'
p66
F100
sS'max_survival_heel'
p67
F15
sS'main_stiffener_flange_thickness'
p68
g3
(g4
(I0
tS'b'
tRp69
(I1
(I5
tg22
I00
S'\x00\xfc\xf1\xcbc\xa7\xb1?\x10\xd5\xfd~\x13t\xd7?OZ\x01T\x97\xc6\xc1?X\xc4\x1d\\\xa9\xe4\xdf?\x1a\x13\xe7\x9d\xee\x0f\xc8?'
tbsS'permanent_ballast_density'
p70
F4492
sS'z0'
p71
F0
sS'Uc'
p72
F0
sS'offset_stiffener_web_thickness'
p73
g3
(g4
(I0
tS'b'
tRp74
(I1
(I5
tg22
I00
S'\x16\xc41\xeff\xa8\xdf?\xf6;\xd8\x0e\xaf\xe0\xc3?\xb9z@m\xde\x8ax?\xda~rZ\xe1\xbbk?&\xc8\xc9c\x03\xc9\x97?'
tbsS'pontoon_wall_thickness'
p75
g9
(g10
S"\x83 \x9c\xf3'_\x94?"
tRp76
sS'number_of_offset_columns'
p77
I3
sS'radius_to_offset_column'
p78
g9
(g10
S'<\xd4\xae{G\xebJ@'
tRp79
sS'tower_section_height'
p80
g3
(g4
(I0
tS'b'
tRp81
(I1
(I5
tg7
I00
S'\x00\x00\x00\x00\x00\x00$@\x00\x10\xaeG\xe1z\x84?\xc3\xf5(\\\x8fBJ@\xcc\xcc\xcc\xcc\xcc\x8cJ@\x00)\\\x8f\xc2\xf5\n@'
tbsS'main_buoyancy_tank_location'
p82
g9
(g10
S'\x18\xfcT\xae\xe39\xf1>'
tRp83
sS'cm'
p84
F2
sS'main.waveLoads.mu'
p85
F0.00088999999999999995
sS'mooring_diameter'
p86
g9
(g10
S'm\x99s\xb3\x9a\xb0\xd1?'
tRp87
sS'gamma_m'
p88
F1.1000000000000001
sS'gamma_n'
p89
F1
sS'offset_section_height'
p90
g3
(g4
(I0
tS'b'
tRp91
(I1
(I5
tg22
I00
S'\x8eH*\x8d\xed\x97\xee?\xbe\xb4\x97\xdf\xab@\xfc?\xe1\xba\xe9\x80\xca\xfc2@d\xf2T\x8cx\r\xd8?\xf3\xbe9\x98\x966\x17@'
tbsS'main_bulkhead_thickness'
p92
g3
(g4
(I0
tS'b'
tRp93
(I1
(I6
tg7
I00
S'\x9a\x99\x99\x99\x99\x99\xa9?\x9a\x99\x99\x99\x99\x99\xa9?\x00\x00\x00\x00\x00\x00\x00\x00\x00\x00\x00\x00\x00\x00\x00\x00\x00\x00\x00\x00\x00\x00\x00\x00\x9a\x99\x99\x99\x99\x99\xa9?'
tbsS'yaw'
p94
F0
sS'gamma_f'
p95
F1.3500000000000001
sS'offset_freeboard'
p96
g9
(g10
S'\x1b#\xf1\xfbZ\xe2+@'
tRp97
sS'gamma_b'
p98
F1.1000000000000001
sS'z_offset'
p99
F0
sS'ballast_cost_rate'
p100
F100
sS'number_of_mooring_connections'
p101
I3
sS'mooring_line_length'
p102
g9
(g10
S'\xa0i\xb3W\xbe\x99\xa6@'
tRp103
sS'outer_cross_pontoons_int'
p104
g9
(g10
S'\x00\x00\x00\x00\x00\x00\x00\x00'
tRp105
sS'water_depth'
p106
F320
sS'main_buoyancy_tank_diameter'
p107
g9
(g10
S'\xb9\x02%n\xecI\x1d@'
tRp108
sS'column_mass_factor'
p109
F1.05
sS'operational_heel'
p110
F6
sS'offset_outer_diameter'
p111
g3
(g4
(I0
tS'b'
tRp112
(I1
(I6
tg22
I00
S'\xc2\xdd\xbc\xecu\x07(@\xe0\xa7A\xfc\xfbz:@\x02\xfe\xbfl\x9b\x86%@\xad\xb9\n#%\x93"@\xab\xdc\x88\x0c\xf4\x11\x1b@\x0e\xe9\x9cB\x92\xdb\x18@'
tbsS'yield_stress'
p113
F345000000
sS'main_wall_thickness'
p114
g3
(g4
(I0
tS'b'
tRp115
(I1
(I6
tg22
I00
S'\xa9\xdd_P\xe2.\xaa?\xff}Y\x13\x06\x95\xaf?\xf5\x7f\x08\x94\\\x84\xae?y\xf8\x04\xca\xfbR\xa4?qQ\xf4H\xd9\xe9\xa6?\xbeg\xaas\xc1\x10\xae?'
tbsS'connection_ratio_max'
p116
F0.25
sS'ring_mass_factor'
p117
F1
sS'upper_ring_pontoons_int'
p118
g9
(g10
S'\x00\x00\x00\x00\x00\x00\x00\x00'
tRp119
sS'main_stiffener_web_thickness'
p120
g3
(g4
(I0
tS'b'
tRp121
(I1
(I5
tg22
I00
S'\xe0&\xbf^\xe6\x19\xb7?\x84,\xadj\xfc\xea\xdf?_FY\xd6J\x93\xc5?\x13\x81\x1d\x87\xafQ\xc1?\x19\x90V\xb2\xa8Q\xac?'
tbsS'lower_attachment_pontoons_int'
p122
g9
(g10
S'\x00\x00\x00\x00\x00\x00\xf0?'
tRp123
sS'water_density'
p124
F1025
sS'main_buoyancy_tank_height'
p125
g9
(g10
S'"]4\xf8CW\xfe?'
tRp126
sS'cd_usr'
p127
Finf
sS'min_diameter_thickness_ratio'
p128
F120
sS'offset_wall_thickness'
p129
g3
(g4
(I0
tS'b'
tRp130
(I1
(I6
tg22
I00
S'G\x0e\x12\xe28\x8f\xb9?\x0f\xb3\x00*\x83*\xc9?\x89\xc6\x88\x8e\x9d\x15\xb4?\xa9\x83*\xe6\x85\x10\x96?5|p\x11\xaa-\xa6?qP\xd3\xb7G6q?'
tbsS'offset_buoyancy_tank_height'
p131
g9
(g10
S'\xa9\xf57J\x84v\x0b@'
tRp132
sS'main_section_height'
p133
g3
(g4
(I0
tS'b'
tRp134
(I1
(I5
tg22
I00
S"\xd7]\xc5<\x92\x04(@z\xaf\x0eSL\xbd\xf8?\xeb\xe1\x9e]&\x80\x1b@\xe6K.d_e'@\xe5^\xf0?\xa2B'@"
tbsS'Uref'
p135
F11
sS'anchor_radius'
p136
g9
(g10
S'\xb7\xb3A\xe2p\xd8\xa5@'
tRp137
sS'rna_cg'
p138
g3
(g4
(I0
tS'b'
tRp139
(I1
(I3
tg7
I00
S'\x1e\x01\x16\xd8\xe7Z\xe3\xbf\x00\x00\x00\x00\x00\x00\x00\x00\x0e\xb4L\xd0p$\x04@'
tbsS'pontoon_outer_diameter'
p140
g9
(g10
S'\xf9C~D&\xd0!@'
tRp141
sS'fairlead_support_wall_thickness'
p142
g9
(g10
S'`\x14\xf2\xda@\xff\x92?'
tRp143
sS'fairlead_offset_from_shell'
p144
F6.0004865405187147
sS'tower_wall_thickness'
p145
g3
(g4
(I0
tS'b'
tRp146
(I1
(I6
tg7
I00
S'\xe0\xa3p=\n\xd7\xd3?@33333\xd3?\x00R\xb8\x1e\x85\xeb\xc1?@\\\x8f\xc2\xf5(\xbc?\x80\x1e\x85\xebQ\xb8\xae?\x80\x1e\x85\xebQ\xb8\xae?'
tbsS'mooring_cost_rate'
p147
F1.1000000000000001
sS'nu'
p148
F0.26000000000000001
sS'E'
F200000000000
sS'wave_period_range_low'
p149
F2
sS'main_pontoon_attach_lower'
p150
g9
(g10
S'\xe8\x87\x01\x89,\xd8\xb9?'
tRp151
sS'offset_stiffener_flange_thickness'
p152
g3
(g4
(I0
tS'b'
tRp153
(I1
(I5
tg22
I00
S'j\xd4Q\x874\x11\xd3?\x06\\r\xe8\xd9\xd3\xdf?\xfa\x8b\x9fF\x05\x9e\xcb?\xbf\x8dz\x89\xfe\x17\xc4?\xda\x7f\x83\xefPn\xc4?'
tbsS'main.windLoads.rho'
p154
F1.198
sS'beta'
p155
F0
sS'shearExp'
p156
F0.11
sS'mooring_lines_per_connection'
p157
g9
(g10
S'\x00\x00\x00\x00\x00\x00\x00@'
tRp158
sS'main_permanent_ballast_height'
p159
g9
(g10
S'\xad%\xc7`\xf4\xb7\x13@'
tRp160
sS'offset_stiffener_flange_width'
p161
g3
(g4
(I0
tS'b'
tRp162
(I1
(I5
tg22
I00
S'\x07P\x8e\xa6"\'\xe1?\x17\xff\xe8\xc7N\xc8\xa8?m\x9c\x95\x895\xf2\xd8?\x1c\xa0/\x16\x85?\xc5?3\xbe\xda\xf1.\xa4\xed?'
tbsS'offset_stiffener_spacing'
p163
g3
(g4
(I0
tS'b'
tRp164
(I1
(I5
tg22
I00
S'=\x1cq\x98\xb1\x19\x0b@\xe2\xcd\xa5\x15\x87u>@\xdb\xe1\xdd\xab\xcdqJ@8\xe6\xe6\xa9\xc2\x01*@+\x1e\x06b\x13\x8d/@'
tbsS'mooring_type'
p165
S'chain'
p166
sS'hub_height'
p167
F149
sS'upper_attachment_pontoons_int'
p168
g9
(g10
S'\x00\x00\x00\x00\x00\x00\x00\x00'
tRp169
sS'offset_stiffener_web_height'
p170
g3
(g4
(I0
tS'b'
tRp171
(I1
(I5
tg22
I00
S'\xfd\xd4\x8d\x84\x025\xc7?\xe4\xdc\x84j\r\xba\xda?*;\xf6UI\xda\xc0?\xf1\xb5u\xddff\xb2?\xfe\x88\x18%\xed\x17\xbc?'
tbsS'pontoon_cost_rate'
p172
F6.25
s(lp173
(lp174
S'fairlead_location'
p175
aF0
aF1
aa(lp176
S'fairlead_support_wall_thickness'
p177
aF0.001
aF1
aa(lp178
S'fairlead_support_outer_diameter'
p179
aF0.10000000000000001
aF10
aa(lp180
S'main_freeboard'
p181
aF0
aF50
aa(lp182
S'main_section_height'
p183
aF0.10000000000000001
aF50
aa(lp184
S'main_outer_diameter'
p185
aF2.1000000000000001
aF40
aa(lp186
S'main_wall_thickness'
p187
aF0.001
aF0.5
aa(lp188
S'main_buoyancy_tank_diameter'
p189
aF0
aF50
aa(lp190
S'main_buoyancy_tank_height'
p191
aF0
aF20
aa(lp192
S'main_buoyancy_tank_location'
p193
aF0
aF1
aa(lp194
S'offset_freeboard'
p195
aF2
aF15
aa(lp196
S'offset_section_height'
p197
aF0.10000000000000001
aF50
aa(lp198
S'offset_outer_diameter'
p199
aF1.1000000000000001
aF40
aa(lp200
S'offset_wall_thickness'
p201
aF0.001
aF0.5
aa(lp202
S'offset_buoyancy_tank_diameter'
p203
aF0
aF50
aa(lp204
S'offset_buoyancy_tank_height'
p205
aF0
aF20
aa(lp206
S'offset_buoyancy_tank_location'
p207
aF0
aF1
aa(lp208
S'pontoon_outer_diameter'
p209
aF1
aF10
aa(lp210
S'pontoon_wall_thickness'
p211
aF0.01
aF1
aa(lp212
S'main_pontoon_attach_lower'
p213
aF0
aF0.5
aa(lp214
S'main_pontoon_attach_upper'
p215
aF0.5
aF1
aa(lp216
S'mooring_line_length'
p217
aF200
aF3000
aa(lp218
S'anchor_radius'
p219
aF100
aF5000
aa(lp220
S'mooring_diameter'
p221
aF0.050000000000000003
aF2
aa(lp222
S'main_permanent_ballast_height'
p223
aF0.10000000000000001
aF50
aa(lp224
S'main_stiffener_web_height'
p225
aF0.01
aF1
aa(lp226
S'main_stiffener_web_thickness'
p227
aF0.001
aF0.5
aa(lp228
S'main_stiffener_flange_width'
p229
aF0.01
aF5
aa(lp230
S'main_stiffener_flange_thickness'
p231
aF0.001
aF0.5
aa(lp232
S'main_stiffener_spacing'
p233
aF0.10000000000000001
aF100
aa(lp234
S'offset_stiffener_web_height'
p235
aF0.01
aF1
aa(lp236
S'offset_stiffener_web_thickness'
p237
aF0.001
aF0.5
aa(lp238
S'offset_stiffener_flange_width'
p239
aF0.01
aF5
aa(lp240
S'offset_stiffener_flange_thickness'
p241
aF0.001
aF0.5
aa(lp242
S'offset_stiffener_spacing'
p243
aF0.10000000000000001
aF100
aa(lp244
S'offset_permanent_ballast_height'
p245
aF0.10000000000000001
aF50
aa(lp246
S'radius_to_offset_column'
p247
aF5
aF100
aa(lp248
(lp249
S'tow.height_constraint'
p250
aF-0.01
aF0.01
aNaa(lp251
S'main.draft'
p252
aF0
aF20
aNaa(lp253
S'off.draft'
p254
aF0
aF20
aNaa(lp255
S'main.draft_margin'
p256
aF0
aF1
aNaa(lp257
S'off.draft_margin'
p258
aF0
aF1
aNaa(lp259
S'main.wave_height_freeboard_ratio'
p260
aNaF1
aNaa(lp261
S'off.wave_height_freeboard_ratio'
p262
aNaF1
aNaa(lp263
S'main_offset_spacing'
p264
aF1
aNaNaa(lp265
S'main.manufacturability'
p266
aF0
aNaNaa(lp267
S'main.weldability'
p268
aNaF0
aNaa(lp269
S'off.manufacturability'
p270
aF0
aNaNaa(lp271
S'off.weldability'
p272
aNaF0
aNaa(lp273
S'tower_transition_buffer'
p274
aF-1
aF1
aNaa(lp275
S'nacelle_transition_buffer'
p276
aF0
aNaNaa(lp277
S'offset_freeboard_heel_margin'
p278
aF0
aNaNaa(lp279
S'offset_draft_heel_margin'
p280
aF0
aF20
aNaa(lp281
S'axial_unity'
p282
aF0
aF1
aNaa(lp283
S'mooring_length_max'
p284
aNaF1
aNaa(lp285
S'main.flange_spacing_ratio'
p286
aNaF1
aNaa(lp287
S'main.stiffener_radius_ratio'
p288
aNaF0.5
aNaa(lp289
S'main.flange_compactness'
p290
aF1
aNaNaa(lp291
S'main.web_compactness'
p292
aF1
aNaNaa(lp293
S'main.axial_local_api'
p294
aNaF1
aNaa(lp295
S'main.axial_general_api'
p296
aNaF1
aNaa(lp297
S'main.external_local_api'
p298
aNaF1
aNaa(lp299
S'main.external_general_api'
p300
aNaF1
aNaa(lp301
S'off.flange_spacing_ratio'
p302
aNaF1
aNaa(lp303
S'off.stiffener_radius_ratio'
p304
aNaF0.5
aNaa(lp305
S'off.flange_compactness'
p306
aF1
aNaNaa(lp307
S'off.web_compactness'
p308
aF1
aNaNaa(lp309
S'off.axial_local_api'
p310
aNaF1
aNaa(lp311
S'off.axial_general_api'
p312
aNaF1
aNaa(lp313
S'off.external_local_api'
p314
aNaF1
aNaa(lp315
S'off.external_general_api'
p316
aNaF1
aNaa(lp317
S'pontoon_stress'
p318
aNaF1
aNaa(lp319
S'tower_stress'
p320
aNaF1
aNaa(lp321
S'tower_shell_buckling'
p322
aNaF1
aNaa(lp323
S'tower_global_buckling'
p324
aNaF1
aNaa(lp325
S'main_stress'
p326
aNaF1
aNaa(lp327
S'main_shell_buckling'
p328
aNaF1
aNaa(lp329
S'main_global_buckling'
p330
aNaF1
aNaa(lp331
S'offset_stress'
p332
aNaF1
aNaa(lp333
S'offset_shell_buckling'
p334
aNaF1
aNaa(lp335
S'offset_global_buckling'
p336
aNaF1
aNaa(lp337
S'variable_ballast_height_ratio'
p338
aF0
aF1
aNaa(lp339
S'variable_ballast_mass'
p340
aF0
aNaNaa(lp341
S'metacentric_height'
p342
aF0.10000000000000001
aNaNaa(lp343
S'offset_force_ratio'
p344
aNaF1
aNaa(lp345
S'heel_moment_ratio'
p346
aNaF1
aNaa(lp347
S'period_margin_low'
p348
aNaF1
aNaa(lp349
S'period_margin_high'
p350
aF1
aNaNaa(S'total_cost'
p351
F1.0000000000000001e-09
tp352
S'NM'
p353
t.