((dp1
S'rna_moment'
p2
cnumpy.core.multiarray
_reconstruct
p3
(cnumpy
ndarray
p4
(I0
tS'b'
tRp5
(I1
(I3
tcnumpy
dtype
p6
(S'f8'
I0
I1
tRp7
(I3
S'<'
NNNI-1
I-1
I0
tbI00
S'\xec*\xda\xf3O\xe7{A\xf8\xedw\x9a\x0e\xff\rA\xf1\x80S\xcaVvG\xc1'
tbsS'offset_permanent_ballast_height'
p8
cnumpy.core.multiarray
scalar
p9
(g6
(S'f8'
I0
I1
tRp10
(I3
S'<'
NNNI-1
I-1
I0
tbS'\x13\xa8\xf1\xf4\xca\xf1\xdf?'
tRp11
sS'rna_force'
p12
g3
(g4
(I0
tS'b'
tRp13
(I1
(I3
tg7
I00
S'\xcd\xcc\xccLc\x1e@A\x00\x00\x00\x00\x00\x00\x00\x00\xc3\xf5(\xec!\xffY\xc1'
tbsS'gamma_fatigue'
p14
F1.7549999999999999
sS'loading'
p15
S'hydrostatic'
p16
sS'lower_ring_pontoons_int'
p17
g9
(g10
S'\x00\x00\x00\x00\x00\x00\x00\x00'
tRp18
sS'main_stiffener_web_height'
p19
g3
(g4
(I0
tS'b'
tRp20
(I1
(I4
tg10
I00
S'\x8a&\xf5\xb1\xa1\xa7\x98?rT\xb6\x8d\xa2\xa7\x98?\x00\xa4M\x8f\xfa\xbc\xb7?\xf1(\x8a$\xa8\xa7\x98?'
tbsS'zref'
p21
F119
sS'outfitting_cost_rate'
p22
F1.6500000000000001
sS'offset_buoyancy_tank_location'
p23
g9
(g10
S'I\x10;aW\xc2\xac?'
tRp24
sS'main_stiffener_flange_width'
p25
g3
(g4
(I0
tS'b'
tRp26
(I1
(I4
tg10
I00
S'\xc0m0a\xbe\x7f\xf6?,\x05q3Bi\xfc?\xde\xe3\x98L\xb0\xa9\xaa?\x1dc\x866z\xb5\x13@'
tbsS'max_taper_ratio'
p27
F0.40000000000000002
sS'main_stiffener_spacing'
p28
g3
(g4
(I0
tS'b'
tRp29
(I1
(I4
tg10
I00
S'\n\xfe.\r&t0@\x14!\xfa\x91$\x185@\xb8U\xab\x98O\xed\x0b@\xf2]\x15\xdfYhF@'
tbsS'max_draft'
p30
F30
sS'T'
F9.8000000000000007
sS'bulkhead_mass_factor'
p31
F1
sS'wave_period_range_high'
p32
F20
sS'cross_attachment_pontoons_int'
p33
g9
(g10
S'\x00\x00\x00\x00\x00\x00\xf0?'
tRp34
sS'outfitting_mass_fraction'
p35
F0.059999999999999998
sS'offset_buoyancy_tank_diameter'
p36
g9
(g10
S'\x7f:\x85u\xbb\xba+@'
tRp37
sS'main_outer_diameter'
p38
g3
(g4
(I0
tS'b'
tRp39
(I1
(I5
tg10
I00
S">\xd5\xc1T\xdc9\x19@\xc6\x84X\xb5\xf0\x0b @\xf1\xaa\xd9yH\xc8;@\xd8\r\xcc(g\r\x05@^\x87\xf2\xcf\xedo'@"
tbsS'rna_I'
p40
g3
(g4
(I0
tS'b'
tRp41
(I1
(I6
tg7
I00
S'\x00\x00\x00.b\xf5\xa3A\x00\x00\x00\x08)"\x99A\x00\x00\x00\xf0\x10Q\x94A\x00\x00\x00\x00\x00\x00\x00\x00\xa4p=\n\x98x7A\x00\x00\x00\x00\x00\x00\x00\x00'
tbsS'main.windLoads.mu'
p42
F1.8099999999999999e-05
sS'fairlead_support_outer_diameter'
p43
g9
(g10
S'\xd2b\xcc\xed;\xa7\xc3?'
tRp44
sS'offset_bulkhead_thickness'
p45
g3
(g4
(I0
tS'b'
tRp46
(I1
(I5
tg6
(S'f8'
I0
I1
tRp47
(I3
S'<'
NNNI-1
I-1
I0
tbI00
S'\x9a\x99\x99\x99\x99\x99\xa9?\x9a\x99\x99\x99\x99\x99\xa9?\x00\x00\x00\x00\x00\x00\x00\x00\x00\x00\x00\x00\x00\x00\x00\x00\x9a\x99\x99\x99\x99\x99\xa9?'
tbsS'shell_mass_factor'
p48
F1
sS'main_pontoon_attach_upper'
p49
g9
(g10
S'v\xc8\x00H\xa4\x10\xed?'
tRp50
sS'rna_mass'
p51
F560791.46780069917
sS'tower_buckling_length'
p52
F30
sS'Hs'
p53
F10.800000000000001
sS'main_freeboard'
p54
g9
(g10
S'\x8e.\x81\x8fX3B@'
tRp55
sS'Rhub'
p56
F2.2999999999999998
sS'material_density'
p57
F7850
sS'tower_outfitting_factor'
p58
F1.0700000000000001
sS'tower_outer_diameter'
p59
g3
(g4
(I0
tS'b'
tRp60
(I1
(I4
tg10
I00
S'\xea\x8bc\xa0Zf\x1d@\xde\x12\xc4W\x94\r\x1c@b\x14\x17iU\xd1+@a\x0b?P\xdbv\x08@'
tbsS'anchor_type'
p61
S'suctionpile'
p62
sS'G'
F79300000000
sS'fairlead_location'
p63
g9
(g10
S'\x8eF`\xa2\xcf(\xd0?'
tRp64
sS'max_offset'
p65
F100
sS'max_survival_heel'
p66
F15
sS'main.waveLoads.mu'
p67
F0.00088999999999999995
sS'permanent_ballast_density'
p68
F4492
sS'z0'
p69
F0
sS'Uc'
p70
F0
sS'material_cost_rate'
p71
F1.1000000000000001
sS'pontoon_wall_thickness'
p72
g9
(g10
S'\x0e<\xd5\xf0\x04W\x8b?'
tRp73
sS'number_of_offset_columns'
p74
I3
sS'radius_to_offset_column'
p75
g9
(g10
S'_\xb2\xda]\xaf(G@'
tRp76
sS'tower_section_height'
p77
g3
(g4
(I0
tS'b'
tRp78
(I1
(I3
tg10
I00
S'\xee\x0b\x80\x1cU),@\xf6\x07@\x16[\x9f/@\xb6\xa0\x03\x81!\xadT@'
tbsS'main_buoyancy_tank_location'
p79
g9
(g10
S'\x00\x00\x00\x00\x00\x00\x00\x00'
tRp80
sS'cm'
p81
F2
sS'main_stiffener_flange_thickness'
p82
g3
(g4
(I0
tS'b'
tRp83
(I1
(I4
tg10
I00
S'\xbaCatD@\xbf?\xa6q\xfaC\xf3\x02\xd6?Im\x10\x8a\xe8\xd3\xd6?\x00\x00\x00\x00\x00\x00\xe0?'
tbsS'hub_cm'
p84
g3
(g4
(I0
tS'b'
tRp85
(I1
(I3
tg47
I00
S'ffffff\x1c\xc0\x00\x00\x00\x00\x00\x00\x00\x00\x00\x00\x00\x00\x00\x00\x06@'
tbsS'mooring_diameter'
p86
g9
(g10
S'\xfd\r\x8f\x8cyk\xc3?'
tRp87
sS'gamma_m'
p88
F1.1000000000000001
sS'gamma_n'
p89
F1
sS'offset_section_height'
p90
g3
(g4
(I0
tS'b'
tRp91
(I1
(I4
tg6
(S'f8'
I0
I1
tRp92
(I3
S'<'
NNNI-1
I-1
I0
tbI00
S'[\x9bX\xb1\x19\'&@=\xfd\x9b\x82\x14C\xec?s&%\xacS\xb2\xdd?V\xec\xb4\xdf"\x15=@'
tbsS'main_bulkhead_thickness'
p93
g3
(g4
(I0
tS'b'
tRp94
(I1
(I5
tg47
I00
S'\x9a\x99\x99\x99\x99\x99\xa9?\x9a\x99\x99\x99\x99\x99\xa9?\x00\x00\x00\x00\x00\x00\x00\x00\x00\x00\x00\x00\x00\x00\x00\x00\x9a\x99\x99\x99\x99\x99\xa9?'
tbsS'yaw'
p95
F0
sS'gamma_f'
p96
F1.3500000000000001
sS'offset_freeboard'
p97
g9
(g10
S'\x96\xae\xd0\x8b\xeaV)@'
tRp98
sS'gamma_b'
p99
F1.1000000000000001
sS'tip_position'
p100
g3
(g4
(I0
tS'b'
tRp101
(I1
(I3
tg7
I00
S'\x9c\xc4 \xb0rh\x0c\xc0\x00\x00\x00\x00\x00\x00\x00\x00\x1b/\xdd$\x06\x815@'
tbsS'z_offset'
p102
F0
sS'ballast_cost_rate'
p103
F0.10000000000000001
sS'number_of_mooring_connections'
p104
I3
sS'offset_stiffener_web_thickness'
p105
g3
(g4
(I0
tS'b'
tRp106
(I1
(I4
tg92
I00
S'\xfc\xa9\xf1\xd2MbP?\xfc\xa9\xf1\xd2MbP?\xfc\xa9\xf1\xd2MbP?\xfc\xa9\xf1\xd2MbP?'
tbsS'mooring_line_length'
p107
g9
(g10
S'\x88\xc6\x13A\xd8\t\xa7@'
tRp108
sS'downwind'
p109
I00
sS'outer_cross_pontoons_int'
p110
g9
(g10
S'\x00\x00\x00\x00\x00\x00\x00\x00'
tRp111
sS'water_depth'
p112
F320
sS'main_buoyancy_tank_diameter'
p113
g9
(g10
S'\x00\x00\x00\x00\x00\x00\x00\x00'
tRp114
sS'column_mass_factor'
p115
F1.05
sS'operational_heel'
p116
F6
sS'offset_outer_diameter'
p117
g3
(g4
(I0
tS'b'
tRp118
(I1
(I5
tg92
I00
S'\x0c\xf7\x896\xdbu\x10@}7\xa3\x0fZ\xa0\x10@\xa2\xff\xb9:$\xee-@\xe6d\x89\xb3!\x90#@6e:\x9d\x14{\x0c@'
tbsS'yield_stress'
p119
F345000000
sS'main_wall_thickness'
p120
g3
(g4
(I0
tS'b'
tRp121
(I1
(I4
tg10
I00
S'\xd2\x08w8\r\xea\xa0?\xc0>C5tX\xba?X3?\x02\x06\xa3\xab?P\xa3\x95\xa8\xee\xda\xab?'
tbsS'connection_ratio_max'
p122
F0.25
sS'ring_mass_factor'
p123
F1
sS'upper_ring_pontoons_int'
p124
g9
(g10
S'\x00\x00\x00\x00\x00\x00\xf0?'
tRp125
sS'main_stiffener_web_thickness'
p126
g3
(g4
(I0
tS'b'
tRp127
(I1
(I4
tg10
I00
S'\xfc\xa9\xf1\xd2MbP?\xfc\xa9\xf1\xd2MbP?\x06Yb\x1f\xc8\x9d\x83?`\xde\xfe\xd2MbP?'
tbsS'lower_attachment_pontoons_int'
p128
g9
(g10
S'\x00\x00\x00\x00\x00\x00\xf0?'
tRp129
sS'water_density'
p130
F1025
sS'main_buoyancy_tank_height'
p131
g9
(g10
S'*\x7f\xe1\xfc\x01*\x96='
tRp132
sS'cd_usr'
p133
Finf
sS'min_diameter_thickness_ratio'
p134
F120
sS'offset_wall_thickness'
p135
g3
(g4
(I0
tS'b'
tRp136
(I1
(I4
tg92
I00
S'\xaa\x8cw\x0f\x11\x9e\x98?\x9e\xa4R\xac\r\xa1\xa3?RT#\xdb\x14\xa0\xb0?\x0f\x03x\x7f\xd5\xbf\xa7?'
tbsS'offset_buoyancy_tank_height'
p137
g9
(g10
S'\x06\xfd\xdf)9M#@'
tRp138
sS'main_section_height'
p139
g3
(g4
(I0
tS'b'
tRp140
(I1
(I4
tg92
I00
S'\xb2l\xc8\\B\xe9\x00@\x04or}n\x04\x08@w\x8c\x99\xa4\xc8\xb1\x02@\x05\xa2\xc8\xae\xd8\xc0D@'
tbsS'Uref'
p141
F11
sS'anchor_radius'
p142
g9
(g10
S"L\xae'\xb7\x0bl\xa6@"
tRp143
sS'rna_cg'
p144
g3
(g4
(I0
tS'b'
tRp145
(I1
(I3
tg7
I00
S'\x1e\x01\x16\xd8\xe7Z\xe3\xbf\x00\x00\x00\x00\x00\x00\x00\x00\x0e\xb4L\xd0p$\x04@'
tbsS'pontoon_outer_diameter'
p146
g9
(g10
S'P+\x81\xed\xb5\x04\xf4?'
tRp147
sS'fairlead_support_wall_thickness'
p148
g9
(g10
S'\xc6b\xcc\xed;\xa7\xc3?'
tRp149
sS'fairlead_offset_from_shell'
p150
g9
(g10
S'\x86j\xc1Q`.\x10@'
tRp151
sS'tower_wall_thickness'
p152
g3
(g4
(I0
tS'b'
tRp153
(I1
(I3
tg10
I00
S'6q\xd8%X\xbe\xa2?"\xebE\xb0\xfb\xe2\x9d?\x17+5\xa25\xd1\x93?'
tbsS'mooring_cost_rate'
p154
F1.1000000000000001
sS'painting_cost_rate'
p155
F14.4
sS'nu'
p156
F0.26000000000000001
sS'E'
F200000000000
sS'wave_period_range_low'
p157
F2
sS'main_pontoon_attach_lower'
p158
g9
(g10
S'(d$\x14\xe7Z\x8f?'
tRp159
sS'offset_stiffener_flange_thickness'
p160
g3
(g4
(I0
tS'b'
tRp161
(I1
(I4
tg92
I00
S'\xe0J\xab\xb1M\xd6\xb0?A\x16\xefq\xda\x84\xab?\t\x00\xc4(\xce\xc6\xc8?\xacc\xd1\x92\xf7\xbb\xde?'
tbsS'main.windLoads.rho'
p162
F1.198
sS'beta'
p163
F0
sS'shearExp'
p164
F0.11
sS'mooring_lines_per_connection'
p165
g9
(g10
S'\x00\x00\x00\x00\x00\x00\x00@'
tRp166
sS'main_permanent_ballast_height'
p167
g9
(g10
S'j</\x98,\x9c\xd1?'
tRp168
sS'offset_stiffener_flange_width'
p169
g3
(g4
(I0
tS'b'
tRp170
(I1
(I4
tg92
I00
S'q\xa1u\xec\x148\xcb?\xe2\x0f\xab\x1f\x99\x0f\x8b?5\x9a<^<\xef\xd8?\x07\xc5R\x8a\xf8\x1e\x08@'
tbsS'offset_stiffener_spacing'
p171
g3
(g4
(I0
tS'b'
tRp172
(I1
(I4
tg92
I00
S'\x1a\x07\xac\x8b\xf2l#@\x99\x14\x18)\xf6\xae\xf0?\xb7\xc4\xccabu\x18@4\x8c\nP\xdd,?@'
tbsS'mooring_type'
p173
S'chain'
p174
sS'hub_height'
p175
F149
sS'upper_attachment_pontoons_int'
p176
g9
(g10
S'\x00\x00\x00\x00\x00\x00\xf0?'
tRp177
sS'labor_cost_rate'
p178
F1
sS'offset_stiffener_web_height'
p179
g3
(g4
(I0
tS'b'
tRp180
(I1
(I4
tg92
I00
S't_[S\xaf\xa7\x98?|\x14\xaeG\xe1z\x84?&`g`\xae\xa7\x98?\x1aV\x9c\x9a\xae\xa7\x98?'
tbs(lp181
(lp182
g63
aF0
aF1
aa(lp183
g150
aF0
aF5
aa(lp184
g38
aF2.1000000000000001
aF40
aa(lp185
g120
aF0.001
aF0.5
aa(lp186
g113
aF0
aF50
aa(lp187
g131
aF0
aF20
aa(lp188
g79
aF0
aF1
aa(lp189
g146
aF1
aF10
aa(lp190
g72
aF0.01
aF1
aa(lp191
g158
aF0
aF0.5
aa(lp192
g49
aF0.5
aF1
aa(lp193
g77
aF0.10000000000000001
aF100
aa(lp194
g59
aF1.1000000000000001
aF20
aa(lp195
g152
aF0.001
aF0.5
aa(lp196
g107
aF200
aF3000
aa(lp197
g142
aF100
aF5000
aa(lp198
g86
aF0.02
aF0.16
aa(lp199
g167
aF0.10000000000000001
aF50
aa(lp200
g19
aF0.01
aF1
aa(lp201
g126
aF0.001
aF0.5
aa(lp202
g25
aF0.01
aF5
aa(lp203
g82
aF0.001
aF0.5
aa(lp204
g28
aF0.10000000000000001
aF100
aa(lp205
g75
aF5
aF100
aa(lp206
(lp207
S'tow.height_constraint'
p208
aF-0.01
aF0.01
aNaa(lp209
S'tow.tip_deflection_margin'
p210
aF1
aNaNaa(lp211
S'main.draft_margin'
p212
aNaF1
aNaa(lp213
S'off.draft_margin'
p214
aNaF1
aNaa(lp215
S'main.wave_height_freeboard_ratio'
p216
aNaF1
aNaa(lp217
S'off.wave_height_freeboard_ratio'
p218
aNaF1
aNaa(lp219
S'wave_height_fairlead_ratio'
p220
aNaF1
aNaa(lp221
S'main_offset_spacing'
p222
aF1
aNaNaa(lp223
S'main.manufacturability'
p224
aF0
aNaNaa(lp225
S'main.weldability'
p226
aNaF0
aNaa(lp227
S'off.manufacturability'
p228
aF0
aNaNaa(lp229
S'off.weldability'
p230
aNaF0
aNaa(lp231
S'tow.manufacturability'
p232
aF0
aNaNaa(lp233
S'tow.weldability'
p234
aNaF0
aNaa(lp235
S'tower_transition_buffer'
p236
aF0
aNaNaa(lp237
S'nacelle_transition_buffer'
p238
aF0
aNaNaa(lp239
S'offset_freeboard_heel_margin'
p240
aF0
aNaNaa(lp241
S'offset_draft_heel_margin'
p242
aF0
aNaNaa(lp243
S'axial_unity'
p244
aF0
aF1
aNaa(lp245
S'mooring_length_max'
p246
aNaF1
aNaa(lp247
S'main.flange_spacing_ratio'
p248
aNaF1
aNaa(lp249
S'main.stiffener_radius_ratio'
p250
aNaF0.5
aNaa(lp251
S'main.flange_compactness'
p252
aF1
aNaNaa(lp253
S'main.web_compactness'
p254
aF1
aNaNaa(lp255
S'main.axial_local_api'
p256
aNaF1
aNaa(lp257
S'main.axial_general_api'
p258
aNaF1
aNaa(lp259
S'main.external_local_api'
p260
aNaF1
aNaa(lp261
S'main.external_general_api'
p262
aNaF1
aNaa(lp263
S'off.flange_spacing_ratio'
p264
aNaF1
aNaa(lp265
S'off.stiffener_radius_ratio'
p266
aNaF0.5
aNaa(lp267
S'off.flange_compactness'
p268
aF1
aNaNaa(lp269
S'off.web_compactness'
p270
aF1
aNaNaa(lp271
S'off.axial_local_api'
p272
aNaF1
aNaa(lp273
S'off.axial_general_api'
p274
aNaF1
aNaa(lp275
S'off.external_local_api'
p276
aNaF1
aNaa(lp277
S'off.external_general_api'
p278
aNaF1
aNaa(lp279
S'pontoon_stress'
p280
aNaF1
aNaa(lp281
S'pontoon_wave_height_depth_margin'
p282
aF1
aNaNaa(lp283
S'tower_stress'
p284
aNaF1
aNaa(lp285
S'tower_shell_buckling'
p286
aNaF1
aNaa(lp287
S'tower_global_buckling'
p288
aNaF1
aNaa(lp289
S'main_stress'
p290
aNaF1
aNaa(lp291
S'main_shell_buckling'
p292
aNaF1
aNaa(lp293
S'main_global_buckling'
p294
aNaF1
aNaa(lp295
S'offset_stress'
p296
aNaF1
aNaa(lp297
S'offset_shell_buckling'
p298
aNaF1
aNaa(lp299
S'offset_global_buckling'
p300
aNaF1
aNaa(lp301
S'variable_ballast_height_ratio'
p302
aF0
aF1
aNaa(lp303
S'variable_ballast_mass'
p304
aF0
aNaNaa(lp305
S'metacentric_height'
p306
aF0.10000000000000001
aNaNaa(lp307
S'offset_force_ratio'
p308
aNaF1
aNaa(lp309
S'heel_moment_ratio'
p310
aNaF1
aNaa(lp311
S'period_margin_low'
p312
aNaF1
aNaa(lp313
S'period_margin_high'
p314
aF1
aNaNaa(S'total_cost'
p315
F9.9999999999999995e-07
tp316
S'NM'
p317
t.