((dp1
S'rna_moment'
p2
cnumpy.core.multiarray
_reconstruct
p3
(cnumpy
ndarray
p4
(I0
tS'b'
tRp5
(I1
(I3
tcnumpy
dtype
p6
(S'f8'
I0
I1
tRp7
(I3
S'<'
NNNI-1
I-1
I0
tbI00
S'\xec*\xda\xf3O\xe7{A\xf8\xedw\x9a\x0e\xff\rA\xf1\x80S\xcaVvG\xc1'
tbsS'offset_permanent_ballast_height'
p8
cnumpy.core.multiarray
scalar
p9
(g6
(S'f8'
I0
I1
tRp10
(I3
S'<'
NNNI-1
I-1
I0
tbS'\x1c\xfc\x8e\xe1\xf6@\xd4?'
tRp11
sS'rna_force'
p12
g3
(g4
(I0
tS'b'
tRp13
(I1
(I3
tg7
I00
S'\xcd\xcc\xccLc\x1e@A\x00\x00\x00\x00\x00\x00\x00\x00\xc3\xf5(\xec!\xffY\xc1'
tbsS'gamma_fatigue'
p14
F1.7549999999999999
sS'loading'
p15
S'hydrostatic'
p16
sS'lower_ring_pontoons_int'
p17
g9
(g10
S'\x00\x00\x00\x00\x00\x00\x00\x00'
tRp18
sS'tapered_col_cost_rate'
p19
F4720
sS'main_stiffener_web_height'
p20
g3
(g4
(I0
tS'b'
tRp21
(I1
(I5
tg6
(S'f8'
I0
I1
tRp22
(I3
S'<'
NNNI-1
I-1
I0
tbI00
S'o\xb0mv\x9d\x16\xdd?\x95\xa4\xc8\xf1{\xff\xef?\xf7\xc0\x12qa\x1d\xd1?\x9b-:2\xef\x86\xe3?\xb4\x19A\x90}\xcf\x86?'
tbsS'zref'
p23
F119
sS'outfitting_cost_rate'
p24
F6980
sS'offset_buoyancy_tank_location'
p25
g9
(g10
S'\xcf\xaa%\x0c\xb1\xdb\xa4?'
tRp26
sS'main_stiffener_flange_width'
p27
g3
(g4
(I0
tS'b'
tRp28
(I1
(I5
tg22
I00
S'\x1f\xd1du\t\xa9\xb0?\x96z0\xa5r#\xd7?rX\x89u\xd1\xe4\xfe?\x0b\x10\x08l7\xcf\xef?\xca \x031\xb8\xde\xde?'
tbsS'max_taper_ratio'
p29
F0.40000000000000002
sS'tower_outfitting_factor'
p30
F1.0700000000000001
sS'fairlead_support_wall_thickness'
p31
g9
(g10
S'rv\x9d\xdc\x9e\xf6\x92?'
tRp32
sS'T'
F9.8000000000000007
sS'bulkhead_mass_factor'
p33
F1
sS'wave_period_range_high'
p34
F20
sS'cross_attachment_pontoons_int'
p35
g9
(g10
S'\x00\x00\x00\x00\x00\x00\x00\x00'
tRp36
sS'outfitting_mass_fraction'
p37
F0.059999999999999998
sS'offset_buoyancy_tank_diameter'
p38
g9
(g10
S'\xc2Y<\xafP%%@'
tRp39
sS'main_outer_diameter'
p40
g3
(g4
(I0
tS'b'
tRp41
(I1
(I6
tg22
I00
S'8\x0c\xe8\xa0&I9@\xee\x15J\x96%4(@\xec\x94ju\xfay\x1d@\x06\x02\xd5v9\xa6$@V\x97Dny\xae!@\xd2\xaezV\xf1\xb9#@'
tbsS'rna_I'
p42
g3
(g4
(I0
tS'b'
tRp43
(I1
(I6
tg7
I00
S'\x00\x00\x00.b\xf5\xa3A\x00\x00\x00\x08)"\x99A\x00\x00\x00\xf0\x10Q\x94A\x00\x00\x00\x00\x00\x00\x00\x00\xa4p=\n\x98x7A\x00\x00\x00\x00\x00\x00\x00\x00'
tbsS'main.windLoads.mu'
p44
F1.8099999999999999e-05
sS'fairlead_support_outer_diameter'
p45
g9
(g10
S'N"\xcbA\xf2\xff#@'
tRp46
sS'offset_bulkhead_thickness'
p47
g3
(g4
(I0
tS'b'
tRp48
(I1
(I6
tg7
I00
S'\x9a\x99\x99\x99\x99\x99\xa9?\x9a\x99\x99\x99\x99\x99\xa9?\x00\x00\x00\x00\x00\x00\x00\x00\x00\x00\x00\x00\x00\x00\x00\x00\x00\x00\x00\x00\x00\x00\x00\x00\x9a\x99\x99\x99\x99\x99\xa9?'
tbsS'mooring_max_offset'
p49
F100
sS'shell_mass_factor'
p50
F1
sS'main_pontoon_attach_upper'
p51
g9
(g10
S'\x042\xac}R\x92\xed?'
tRp52
sS'rna_mass'
p53
F716904.15530069917
sS'tower_buckling_length'
p54
F30
sS'Hs'
p55
F10.800000000000001
sS'main_freeboard'
p56
g9
(g10
S'\xb6\xf8\xc6\x02\xf1\xff=@'
tRp57
sS'Rhub'
p58
F2.2999999999999998
sS'material_density'
p59
F7850
sS'main_stiffener_spacing'
p60
g3
(g4
(I0
tS'b'
tRp61
(I1
(I5
tg22
I00
S'\x0c\xefk\xde\xeb%%@\xaa\x14\xb2z\xf2\x82"@\x99y\xf9\x98>7-@^\x06\t\x92\xe1\x990@I\x94\x9c\xc4\x02\xa8:@'
tbsS'tower_outer_diameter'
p62
g3
(g4
(I0
tS'b'
tRp63
(I1
(I6
tg7
I00
S'\x00\x00\x00\x00\x00\x00"@\x00\x00\x00\x00\x00\x00"@\x9a\x99\x99\x99\x99\x99 @\xa4p=\n\xd7\xa3\x1b@\x00\x00\x00\x00\x00\x00\x16@\x00\x00\x00\x00\x00\x00\x16@'
tbsS'anchor_type'
p64
S'suctionpile'
p65
sS'G'
F79300000000
sS'max_offset'
p66
F100
sS'max_survival_heel'
p67
F15
sS'main_stiffener_flange_thickness'
p68
g3
(g4
(I0
tS'b'
tRp69
(I1
(I5
tg22
I00
S'\xf59~\xden\xa1\xb1?\x1fW\x8d>Wr\xd7?)\x8b\x9aYw\xd2\xc1?\x0ft\x01\x03\xbc\xe3\xdf?\xd4h;\xf4 \x11\xc8?'
tbsS'permanent_ballast_density'
p70
F4492
sS'z0'
p71
F0
sS'Uc'
p72
F0
sS'offset_stiffener_web_thickness'
p73
g3
(g4
(I0
tS'b'
tRp74
(I1
(I5
tg22
I00
S'\xe8.&Xo\xa7\xdf?5\xc0\x90\xe6\x1a\xe2\xc3?\xf9\x0cMv\xbbwx?\x1bte\x90\\\xbdk?\xb4\xd5\xfbN\x85\xd0\x97?'
tbsS'pontoon_wall_thickness'
p75
g9
(g10
S"\xc8\xefo/'o\x94?"
tRp76
sS'number_of_offset_columns'
p77
I3
sS'fairlead'
p78
g9
(g10
S'\\O\x95\xfe\xf6o\x1f@'
tRp79
sS'radius_to_offset_column'
p80
g9
(g10
S'\xe40\x0b\xc2*\xeaJ@'
tRp81
sS'tower_section_height'
p82
g3
(g4
(I0
tS'b'
tRp83
(I1
(I5
tg7
I00
S'\x00\x00\x00\x00\x00\x00$@\x00\x10\xaeG\xe1z\x84?\xc3\xf5(\\\x8fBJ@\xcc\xcc\xcc\xcc\xcc\x8cJ@\x00)\\\x8f\xc2\xf5\n@'
tbsS'main_buoyancy_tank_location'
p84
g9
(g10
S'\xe9\x17\xda\xb5\xb13\xf1>'
tRp85
sS'cm'
p86
F2
sS'main.waveLoads.mu'
p87
F0.00088999999999999995
sS'mooring_diameter'
p88
g9
(g10
S'_x"\x7f\x8b\xb1\xd1?'
tRp89
sS'gamma_m'
p90
F1.1000000000000001
sS'gamma_n'
p91
F1
sS'offset_section_height'
p92
g3
(g4
(I0
tS'b'
tRp93
(I1
(I5
tg22
I00
S'VS\x9bV\xf4\x9a\xee?\xbfF\xf2\\\xe3C\xfc?\xd5\x06\xf8\xa2[\xfc2@\x86\xa9L\xc2\xa9\x12\xd8?\xeb\xb4>~\xd47\x17@'
tbsS'main_bulkhead_thickness'
p94
g3
(g4
(I0
tS'b'
tRp95
(I1
(I6
tg7
I00
S'\x9a\x99\x99\x99\x99\x99\xa9?\x9a\x99\x99\x99\x99\x99\xa9?\x00\x00\x00\x00\x00\x00\x00\x00\x00\x00\x00\x00\x00\x00\x00\x00\x00\x00\x00\x00\x00\x00\x00\x00\x9a\x99\x99\x99\x99\x99\xa9?'
tbsS'yaw'
p96
F0
sS'gamma_f'
p97
F1.3500000000000001
sS'offset_freeboard'
p98
g9
(g10
S'\xc2\xd0}YU\xe3+@'
tRp99
sS'gamma_b'
p100
F1.1000000000000001
sS'z_offset'
p101
F0
sS'ballast_cost_rate'
p102
F100
sS'number_of_mooring_connections'
p103
I3
sS'mooring_line_length'
p104
g9
(g10
S'\xf1\x04];S\x99\xa6@'
tRp105
sS'outer_cross_pontoons_int'
p106
g9
(g10
S'\x00\x00\x00\x00\x00\x00\x00\x00'
tRp107
sS'water_depth'
p108
F320
sS'main_buoyancy_tank_diameter'
p109
g9
(g10
S'"~\xcb\x8b^?\x1d@'
tRp110
sS'column_mass_factor'
p111
F1.05
sS'operational_heel'
p112
F6
sS'offset_outer_diameter'
p113
g3
(g4
(I0
tS'b'
tRp114
(I1
(I6
tg22
I00
S'\x0b\xa6\xdaoC\x0e(@R\xed\xb3\xadI{:@m(\xe7\xfc\x9e\x86%@\xa0\xb7\x95\x8d\xe5\x92"@5\x87\xb2v|\x0f\x1b@\x0b\x05Y\x92\xfb\xd8\x18@'
tbsS'yield_stress'
p115
F345000000
sS'main_wall_thickness'
p116
g3
(g4
(I0
tS'b'
tRp117
(I1
(I6
tg22
I00
S'\x05\x9b\xe9\xafg%\xaa?\xad\xe4(\x99O\xac\xaf?\xa9\x19rEC\x9a\xae?j\xd7\x88:\xd8P\xa4?\x19F(q\xd6\xf2\xa6?\rO\x85\x03\xa2\x1c\xae?'
tbsS'connection_ratio_max'
p118
F0.25
sS'ring_mass_factor'
p119
F1
sS'upper_ring_pontoons_int'
p120
g9
(g10
S'\x00\x00\x00\x00\x00\x00\x00\x00'
tRp121
sS'main_stiffener_web_thickness'
p122
g3
(g4
(I0
tS'b'
tRp123
(I1
(I5
tg22
I00
S'\x97h\xbb\xa0\xdf\x16\xb7?iP\x19\x9cV\xeb\xdf?e%+<\xa9\x8b\xc5?\xb2T\xab\x10qL\xc1?\x02\x92n!\xb6D\xac?'
tbsS'lower_attachment_pontoons_int'
p124
g9
(g10
S'\x00\x00\x00\x00\x00\x00\xf0?'
tRp125
sS'water_density'
p126
F1025
sS'main_buoyancy_tank_height'
p127
g9
(g10
S'~&!R\xf6T\xfe?'
tRp128
sS'cd_usr'
p129
Finf
sS'min_diameter_thickness_ratio'
p130
F120
sS'offset_wall_thickness'
p131
g3
(g4
(I0
tS'b'
tRp132
(I1
(I6
tg22
I00
S'6\xb6\xe1[d\x90\xb9?Ru\xc2\r\x0b3\xc9?U\x9d\xddO>\x18\xb4?\x98\xc0\xb5z\xfd\x1b\x96?\xcd\x1bR\x7f\x1b*\xa6?\x7f\xdc\x82b\xb83q?'
tbsS'offset_buoyancy_tank_height'
p133
g9
(g10
S'\xde\xbe\xdf\xed\x91v\x0b@'
tRp134
sS'main_section_height'
p135
g3
(g4
(I0
tS'b'
tRp136
(I1
(I5
tg22
I00
S"\x9c\xfao\x9a\xe9\x03(@\xb2\x92<\xf7|\xa5\xf8?x4\xe3\xb1\x0f\x85\x1b@u\x12\xa9;Va'@SX\xbfL\x9bE'@"
tbsS'Uref'
p137
F11
sS'anchor_radius'
p138
g9
(g10
S'\xa7b^P\xe8\xd8\xa5@'
tRp139
sS'rna_cg'
p140
g3
(g4
(I0
tS'b'
tRp141
(I1
(I3
tg7
I00
S'\x1e\x01\x16\xd8\xe7Z\xe3\xbf\x00\x00\x00\x00\x00\x00\x00\x00\x0e\xb4L\xd0p$\x04@'
tbsS'pontoon_outer_diameter'
p142
g9
(g10
S'\xafn\xb6\xdac\xce!@'
tRp143
sS'fairlead_offset_from_shell'
p144
F6.0004865405187147
sS'tower_wall_thickness'
p145
g3
(g4
(I0
tS'b'
tRp146
(I1
(I6
tg7
I00
S'\xe0\xa3p=\n\xd7\xd3?@33333\xd3?\x00R\xb8\x1e\x85\xeb\xc1?@\\\x8f\xc2\xf5(\xbc?\x80\x1e\x85\xebQ\xb8\xae?\x80\x1e\x85\xebQ\xb8\xae?'
tbsS'mooring_cost_rate'
p147
F1.1000000000000001
sS'nu'
p148
F0.26000000000000001
sS'E'
F200000000000
sS'wave_period_range_low'
p149
F2
sS'main_pontoon_attach_lower'
p150
g9
(g10
S'\x8c\xe2\xd1Aa\xdd\xb9?'
tRp151
sS'offset_stiffener_flange_thickness'
p152
g3
(g4
(I0
tS'b'
tRp153
(I1
(I5
tg22
I00
S'6(\xc8g\xbb\x03\xd3?\xb1\xe8\x0e\x8ar\xd3\xdf?{"\x1b\xd5\xda\x96\xcb?!\xefK\x05\xb0\x06\xc4?*\xf6\x7f\xe5gv\xc4?'
tbsS'main.windLoads.rho'
p154
F1.198
sS'beta'
p155
F0
sS'shearExp'
p156
F0.11
sS'mooring_lines_per_connection'
p157
g9
(g10
S'\x00\x00\x00\x00\x00\x00\x00@'
tRp158
sS'main_permanent_ballast_height'
p159
g9
(g10
S'\xa3\xe7\x13)F\xc1\x13@'
tRp160
sS'offset_stiffener_flange_width'
p161
g3
(g4
(I0
tS'b'
tRp162
(I1
(I5
tg22
I00
S'\xfdaI@W$\xe1?\xd0\xa9\x95\xb2\x9e\xca\xa8?K\xe1\x18tk\xe6\xd8?\xdd\x8a\x13:\x0b2\xc5?<\xa3L\xc1k\x92\xed?'
tbsS'offset_stiffener_spacing'
p163
g3
(g4
(I0
tS'b'
tRp164
(I1
(I5
tg22
I00
S'\x83\x16\xa1\x98?\n\x0b@\xe9\x06+a\xbf~>@\xc3E\x8a\xbafOJ@JV\xb8u\xd5\x05*@\xe2\xe3H\x98\x1d\x7f/@'
tbsS'mooring_type'
p165
S'chain'
p166
sS'hub_height'
p167
F149
sS'upper_attachment_pontoons_int'
p168
g9
(g10
S'\x00\x00\x00\x00\x00\x00\x00\x00'
tRp169
sS'offset_stiffener_web_height'
p170
g3
(g4
(I0
tS'b'
tRp171
(I1
(I5
tg22
I00
S'\xab\x11\xa6\x04\xa0&\xc7?N\xf6s\x89\x86\xa6\xda?\xea\x8b\xd1\xf6\xd9\xd4\xc0?M\xab\x05\xb8\x0e\x00\xb2?\x08M\xc1\xc5\xfc\x04\xbc?'
tbsS'pontoon_cost_rate'
p172
F6.25
s(lp173
(lp174
S'fairlead'
p175
aF0
aF20
aa(lp176
S'fairlead_support_wall_thickness'
p177
aF0.001
aF1
aa(lp178
S'fairlead_support_outer_diameter'
p179
aF0.10000000000000001
aF10
aa(lp180
S'main_freeboard'
p181
aF0
aF50
aa(lp182
S'main_section_height'
p183
aF0.10000000000000001
aF50
aa(lp184
S'main_outer_diameter'
p185
aF2.1000000000000001
aF40
aa(lp186
S'main_wall_thickness'
p187
aF0.001
aF0.5
aa(lp188
S'main_buoyancy_tank_diameter'
p189
aF0
aF50
aa(lp190
S'main_buoyancy_tank_height'
p191
aF0
aF20
aa(lp192
S'main_buoyancy_tank_location'
p193
aF0
aF1
aa(lp194
S'offset_freeboard'
p195
aF2
aF15
aa(lp196
S'offset_section_height'
p197
aF0.10000000000000001
aF50
aa(lp198
S'offset_outer_diameter'
p199
aF1.1000000000000001
aF40
aa(lp200
S'offset_wall_thickness'
p201
aF0.001
aF0.5
aa(lp202
S'offset_buoyancy_tank_diameter'
p203
aF0
aF50
aa(lp204
S'offset_buoyancy_tank_height'
p205
aF0
aF20
aa(lp206
S'offset_buoyancy_tank_location'
p207
aF0
aF1
aa(lp208
S'pontoon_outer_diameter'
p209
aF1
aF10
aa(lp210
S'pontoon_wall_thickness'
p211
aF0.01
aF1
aa(lp212
S'main_pontoon_attach_lower'
p213
aF0
aF0.5
aa(lp214
S'main_pontoon_attach_upper'
p215
aF0.5
aF1
aa(lp216
S'mooring_line_length'
p217
aF200
aF3000
aa(lp218
S'anchor_radius'
p219
aF100
aF5000
aa(lp220
S'mooring_diameter'
p221
aF0.050000000000000003
aF2
aa(lp222
S'main_permanent_ballast_height'
p223
aF0.10000000000000001
aF50
aa(lp224
S'main_stiffener_web_height'
p225
aF0.01
aF1
aa(lp226
S'main_stiffener_web_thickness'
p227
aF0.001
aF0.5
aa(lp228
S'main_stiffener_flange_width'
p229
aF0.01
aF5
aa(lp230
S'main_stiffener_flange_thickness'
p231
aF0.001
aF0.5
aa(lp232
S'main_stiffener_spacing'
p233
aF0.10000000000000001
aF100
aa(lp234
S'offset_stiffener_web_height'
p235
aF0.01
aF1
aa(lp236
S'offset_stiffener_web_thickness'
p237
aF0.001
aF0.5
aa(lp238
S'offset_stiffener_flange_width'
p239
aF0.01
aF5
aa(lp240
S'offset_stiffener_flange_thickness'
p241
aF0.001
aF0.5
aa(lp242
S'offset_stiffener_spacing'
p243
aF0.10000000000000001
aF100
aa(lp244
S'offset_permanent_ballast_height'
p245
aF0.10000000000000001
aF50
aa(lp246
S'radius_to_offset_column'
p247
aF5
aF100
aa(lp248
(lp249
S'tow.height_constraint'
p250
aF-0.01
aF0.01
aNaa(lp251
S'main.draft'
p252
aF0
aF20
aNaa(lp253
S'off.draft'
p254
aF0
aF20
aNaa(lp255
S'main.draft_depth_ratio'
p256
aNaF0.90000000000000002
aNaa(lp257
S'off.draft_depth_ratio'
p258
aNaF0.90000000000000002
aNaa(lp259
S'main.wave_height_freeboard_ratio'
p260
aNaF1
aNaa(lp261
S'off.wave_height_freeboard_ratio'
p262
aNaF1
aNaa(lp263
S'off.fairlead_draft_ratio'
p264
aF0
aF20
aNaa(lp265
S'main_offset_spacing'
p266
aF1
aNaNaa(lp267
S'main.manufacturability'
p268
aF0
aNaNaa(lp269
S'main.weldability'
p270
aNaF0
aNaa(lp271
S'off.manufacturability'
p272
aF0
aNaNaa(lp273
S'off.weldability'
p274
aNaF0
aNaa(lp275
S'tower_transition_buffer'
p276
aF-1
aF1
aNaa(lp277
S'nacelle_transition_buffer'
p278
aF0
aNaNaa(lp279
S'offset_freeboard_heel_margin'
p280
aF0
aNaNaa(lp281
S'offset_draft_heel_margin'
p282
aF0
aF20
aNaa(lp283
S'axial_unity'
p284
aF0
aF1
aNaa(lp285
S'mooring_length_max'
p286
aNaF1
aNaa(lp287
S'main.flange_spacing_ratio'
p288
aNaF1
aNaa(lp289
S'main.stiffener_radius_ratio'
p290
aNaF0.5
aNaa(lp291
S'main.flange_compactness'
p292
aF1
aNaNaa(lp293
S'main.web_compactness'
p294
aF1
aNaNaa(lp295
S'main.axial_local_api'
p296
aNaF1
aNaa(lp297
S'main.axial_general_api'
p298
aNaF1
aNaa(lp299
S'main.external_local_api'
p300
aNaF1
aNaa(lp301
S'main.external_general_api'
p302
aNaF1
aNaa(lp303
S'off.flange_spacing_ratio'
p304
aNaF1
aNaa(lp305
S'off.stiffener_radius_ratio'
p306
aNaF0.5
aNaa(lp307
S'off.flange_compactness'
p308
aF1
aNaNaa(lp309
S'off.web_compactness'
p310
aF1
aNaNaa(lp311
S'off.axial_local_api'
p312
aNaF1
aNaa(lp313
S'off.axial_general_api'
p314
aNaF1
aNaa(lp315
S'off.external_local_api'
p316
aNaF1
aNaa(lp317
S'off.external_general_api'
p318
aNaF1
aNaa(lp319
S'pontoon_stress'
p320
aNaF1
aNaa(lp321
S'tower_stress'
p322
aNaF1
aNaa(lp323
S'tower_shell_buckling'
p324
aNaF1
aNaa(lp325
S'tower_global_buckling'
p326
aNaF1
aNaa(lp327
S'main_stress'
p328
aNaF1
aNaa(lp329
S'main_shell_buckling'
p330
aNaF1
aNaa(lp331
S'main_global_buckling'
p332
aNaF1
aNaa(lp333
S'offset_stress'
p334
aNaF1
aNaa(lp335
S'offset_shell_buckling'
p336
aNaF1
aNaa(lp337
S'offset_global_buckling'
p338
aNaF1
aNaa(lp339
S'variable_ballast_height_ratio'
p340
aF0
aF1
aNaa(lp341
S'variable_ballast_mass'
p342
aF0
aNaNaa(lp343
S'metacentric_height'
p344
aF0.10000000000000001
aNaNaa(lp345
S'offset_force_ratio'
p346
aNaF1
aNaa(lp347
S'heel_moment_ratio'
p348
aNaF1
aNaa(lp349
S'period_margin_low'
p350
aNaF1
aNaa(lp351
S'period_margin_high'
p352
aF1
aNaNaa(S'total_cost'
p353
F1.0000000000000001e-09
tp354
S'NM'
p355
t.