((dp1
S'groutSpreadDR'
p2
F3000
sS'generator_mass'
p3
F16699.849999999999
sS'turbine_profitMultiplier'
p4
F0
sS'prepGripperJack'
p5
F8
sS'tpCover'
p6
F1.5
sS'main_stiffener_flange_width'
p7
cnumpy.core.multiarray
_reconstruct
p8
(cnumpy
ndarray
p9
(I0
tS'b'
tRp10
(I1
(I5
tcnumpy
dtype
p11
(S'f8'
I0
I1
tRp12
(I3
S'<'
NNNI-1
I-1
I0
tbI00
S'6\xba\x88\xbeV\xaf\xb0?\xe3C(E\xd7:\xd7?M\xbe;\xb4\xb6\xee\xfe?#\x07hE\xe3\xe9\xef?\xc1\xd9%,\x8e\xe9\xde?'
tbsS'cross_attachment_pontoons_int'
p13
cnumpy.core.multiarray
scalar
p14
(g11
(S'f8'
I0
I1
tRp15
(I3
S'<'
NNNI-1
I-1
I0
tbS'\x00\x00\x00\x00\x00\x00\x00\x00'
tRp16
sS'faaPlan'
p17
F10000
sS'main_section_height'
p18
g8
(g9
(I0
tS'b'
tRp19
(I1
(I5
tg12
I00
S"\x04\x9bs3Q\x03(@S\\\x8c\x1e\xef\xbe\xf8?\x0c\xa6\xa1\x17\xc2v\x1b@\t\xda\xec\x82\xf5b'@\x06\x1d\xa56\xd0<'@"
tbsS'transformer_mass'
p20
F1000
sS'otherAncillary'
p21
F3000000
sS'precurve_tip'
p22
F0
sS'jtransCR'
p23
F4500
sS'mpileD'
p24
F0
sS'offset_buoyancy_tank_diameter'
p25
g14
(g15
S"\xc4\xf9V\t@'%@"
tRp26
sS'medVoltSG'
p27
F500000
sS'mpileL'
p28
F0
sS'generator_mass_cost_coeff'
p29
F17.43
sS'jpileL'
p30
F47.5
sS'plantComm'
p31
F0.01
sS'subsLoad'
p32
F60
sS'jpileD'
p33
F1.6000000000000001
sS'capital_cost_year_4'
p34
F0
sS'main_bearing_mass'
p35
F4865.7049999999999
sS'main_freeboard'
p36
g14
(g15
S'n\x16\xf6\x9c\xb5\xff=@'
tRp37
sS'capital_cost_year_5'
p38
F0
sS'material_density'
p39
F7850
sS'dynCabFac'
p40
F2
sS'cab1CurrRating'
p41
F300
sS'crane600DR'
p42
F5000
sS'ring_mass_factor'
p43
F1
sS'arrVoltage'
p44
F33
sS'elec_connec_cost_esc'
p45
F1.5
sS'gearbox_mass'
p46
F30237.599999999999
sS'construction_insurance'
p47
F0.01
sS'cab2SubsInterCR'
p48
F19815
sS'tax_rate'
p49
F0.40000000000000002
sS'presweep_in'
p50
g8
(g9
(I0
tS'b'
tRp51
(I1
(I5
tg11
(S'f8'
I0
I1
tRp52
(I3
S'<'
NNNI-1
I-1
I0
tbI00
S'\x00\x00\x00\x00\x00\x00\x00\x00\x00\x00\x00\x00\x00\x00\x00\x00\x00\x00\x00\x00\x00\x00\x00\x00\x00\x00\x00\x00\x00\x00\x00\x00\x00\x00\x00\x00\x00\x00\x00\x00'
tbsS'permanent_ballast_density'
p53
F4492
sS'expCabLoad'
p54
F24
sS'groutSpreadMob'
p55
F1000000
sS'machine_rating'
p56
F10000000
sS'socEconStudyMet'
p57
F500000
sS'cleanWatAct402'
p58
F100000
sS'mpvRentalDR'
p59
F72000
sS'distAtoS'
p60
F90
sS'cover_mass'
p61
F1000
sS'lower_attachment_pontoons_int'
p62
g14
(g15
S'\x00\x00\x00\x00\x00\x00\xf0?'
tRp63
sS'usecd'
p64
I01
sS'radius_to_offset_column'
p65
g14
(g15
S'\x8euq8\xa4\xecJ@'
tRp66
sS'surfLayRate'
p67
F375
sS'physResStudyProj'
p68
F500000
sS'seaSpreadDR'
p69
F165000
sS'z_offset'
p70
F0
sS'prepAA'
p71
F168
sS'number_of_mooring_connections'
p72
I3
sS'offset_stiffener_web_thickness'
p73
g8
(g9
(I0
tS'b'
tRp74
(I1
(I5
tg12
I00
S'7\xea\x14\xee\xc1\xb1\xdf?+\xb7\xfb@\x88\xe7\xc3?\xf6d\xf3q\x1a\x8cx?rDJh\x87\xbck?\x1a\xad3\x12h\xdf\x97?'
tbsS'dynamic_amplication_tip_deflection'
p75
F1.3500000000000001
sS'mpEmbedL'
p76
F30
sS'arrCab1Mass'
p77
F20.384
sS'turbine_assemblyCostMultiplier'
p78
F0
sS'turbInstallMethod'
p79
I0
sS'tower_assemblyCostMultiplier'
p80
F0
sS'column_mass_factor'
p81
F1.05
sS'offset_outer_diameter'
p82
g8
(g9
(I0
tS'b'
tRp83
(I1
(I6
tg12
I00
S'\x8a\x05&\xe6\x16\x02(@\x91M\xbf\x9c\x06~:@\x9f\xder\xeb1\x86%@\x0b*_\xe7\xdd\x92"@H\x05\xf9z\xbc\x0c\x1b@U\x93\x9e-,\xce\x18@'
tbsS'yield_stress'
p84
F345000000
sS'rstar_damage'
p85
g8
(g9
(I0
tS'b'
tRp86
(I1
(I51
tg52
I00
S'\x00\x00\x00\x00\x00\x00\x00\x00{\x14\xaeG\xe1z\x94?{\x14\xaeG\xe1z\xa4?\xb8\x1e\x85\xebQ\xb8\xae?{\x14\xaeG\xe1z\xb4?\x9a\x99\x99\x99\x99\x99\xb9?\xb8\x1e\x85\xebQ\xb8\xbe?\xecQ\xb8\x1e\x85\xeb\xc1?{\x14\xaeG\xe1z\xc4?\n\xd7\xa3p=\n\xc7?\x9a\x99\x99\x99\x99\x99\xc9?)\\\x8f\xc2\xf5(\xcc?\xb8\x1e\x85\xebQ\xb8\xce?\xa4p=\n\xd7\xa3\xd0?\xecQ\xb8\x1e\x85\xeb\xd1?333333\xd3?{\x14\xaeG\xe1z\xd4?\xc3\xf5(\\\x8f\xc2\xd5?\n\xd7\xa3p=\n\xd7?R\xb8\x1e\x85\xebQ\xd8?\x9a\x99\x99\x99\x99\x99\xd9?\xe1z\x14\xaeG\xe1\xda?)\\\x8f\xc2\xf5(\xdc?q=\n\xd7\xa3p\xdd?\xb8\x1e\x85\xebQ\xb8\xde?\x00\x00\x00\x00\x00\x00\xe0?\xa4p=\n\xd7\xa3\xe0?H\xe1z\x14\xaeG\xe1?\xecQ\xb8\x1e\x85\xeb\xe1?\x8f\xc2\xf5(\\\x8f\xe2?333333\xe3?\xd7\xa3p=\n\xd7\xe3?{\x14\xaeG\xe1z\xe4?\x1f\x85\xebQ\xb8\x1e\xe5?\xc3\xf5(\\\x8f\xc2\xe5?gfffff\xe6?\n\xd7\xa3p=\n\xe7?\xaeG\xe1z\x14\xae\xe7?R\xb8\x1e\x85\xebQ\xe8?\xf6(\\\x8f\xc2\xf5\xe8?\x9a\x99\x99\x99\x99\x99\xe9?>\n\xd7\xa3p=\xea?\xe1z\x14\xaeG\xe1\xea?\x85\xebQ\xb8\x1e\x85\xeb?)\\\x8f\xc2\xf5(\xec?\xcd\xcc\xcc\xcc\xcc\xcc\xec?q=\n\xd7\xa3p\xed?\x15\xaeG\xe1z\x14\xee?\xb8\x1e\x85\xebQ\xb8\xee?\\\x8f\xc2\xf5(\\\xef?\x00\x00\x00\x00\x00\x00\xf0?'
tbsS'precone'
p87
F4
sS'nacelle_transportMultiplier'
p88
F0
sS'Mxb_damage'
p89
g8
(g9
(I0
tS'b'
tRp90
(I1
(I51
tg52
I00
S'\x11\xea-\x81\x99\x97q=\x11\xea-\x81\x99\x97q=\x11\xea-\x81\x99\x97q=\x11\xea-\x81\x99\x97q=\x11\xea-\x81\x99\x97q=\x11\xea-\x81\x99\x97q=\x11\xea-\x81\x99\x97q=\x11\xea-\x81\x99\x97q=\x11\xea-\x81\x99\x97q=\x11\xea-\x81\x99\x97q=\x11\xea-\x81\x99\x97q=\x11\xea-\x81\x99\x97q=\x11\xea-\x81\x99\x97q=\x11\xea-\x81\x99\x97q=\x11\xea-\x81\x99\x97q=\x11\xea-\x81\x99\x97q=\x11\xea-\x81\x99\x97q=\x11\xea-\x81\x99\x97q=\x11\xea-\x81\x99\x97q=\x11\xea-\x81\x99\x97q=\x11\xea-\x81\x99\x97q=\x11\xea-\x81\x99\x97q=\x11\xea-\x81\x99\x97q=\x11\xea-\x81\x99\x97q=\x11\xea-\x81\x99\x97q=\x11\xea-\x81\x99\x97q=\x11\xea-\x81\x99\x97q=\x11\xea-\x81\x99\x97q=\x11\xea-\x81\x99\x97q=\x11\xea-\x81\x99\x97q=\x11\xea-\x81\x99\x97q=\x11\xea-\x81\x99\x97q=\x11\xea-\x81\x99\x97q=\x11\xea-\x81\x99\x97q=\x11\xea-\x81\x99\x97q=\x11\xea-\x81\x99\x97q=\x11\xea-\x81\x99\x97q=\x11\xea-\x81\x99\x97q=\x11\xea-\x81\x99\x97q=\x11\xea-\x81\x99\x97q=\x11\xea-\x81\x99\x97q=\x11\xea-\x81\x99\x97q=\x11\xea-\x81\x99\x97q=\x11\xea-\x81\x99\x97q=\x11\xea-\x81\x99\x97q=\x11\xea-\x81\x99\x97q=\x11\xea-\x81\x99\x97q=\x11\xea-\x81\x99\x97q=\x11\xea-\x81\x99\x97q=\x11\xea-\x81\x99\x97q=\x11\xea-\x81\x99\x97q='
tbsS'mooring_diameter'
p91
g14
(g15
S'\xff\xef\x07\xc7\x8c\xad\xd1?'
tRp92
sS'hub_mass'
p93
F105520
sS'cab1CR'
p94
F185.88900000000001
sS'cd_usr'
p95
Finf
sS'main_buoyancy_tank_height'
p96
g14
(g15
S'V\x84\xda\xb7\xb2b\xfe?'
tRp97
sS'buryDepth'
p98
F2
sS'nac_I'
p99
g8
(g9
(I0
tS'b'
tRp100
(I1
(I6
tg52
I00
S'\x00\x00\x00`\xb4[\\A\x00\x00\x00\x8e\x82\ngA\x00\x00\x00\x8e\x82\ngA\x00\x00\x00\x00\x00\x00\x00\x00\x00\x00\x00\x00\x00\x00\x00\x00\x00\x00\x00\x00\x00\x00\x00\x00'
tbsS'monoFasten'
p101
F12
sS'tilt'
p102
F6
sS'nSector'
p103
I4
sS'offset_buoyancy_tank_location'
p104
g14
(g15
S'\xee\r\xc7Z\x03\xf1\xa4?'
tRp105
sS'tower_wall_thickness'
p106
g8
(g9
(I0
tS'b'
tRp107
(I1
(I6
tg11
(S'f8'
I0
I1
tRp108
(I3
S'<'
NNNI-1
I-1
I0
tbI00
S'\xe0\xa3p=\n\xd7\xd3?@33333\xd3?\x00R\xb8\x1e\x85\xeb\xc1?@\\\x8f\xc2\xf5(\xbc?\x80\x1e\x85\xebQ\xb8\xae?\x80\x1e\x85\xebQ\xb8\xae?'
tbsS'controls_cost_main'
p109
g8
(g9
(I0
tS'b'
tRp110
(I1
(I2
tg52
I00
S'\x00\x00\x00\x00\x00\x17\xe1@\x00\x00\x00\x00\x80K\xeb@'
tbsS'offshore'
p111
I01
sS'substructure'
p112
I3
sS'interest_during_construction'
p113
F0.080000000000000002
sS'offset_stiffener_flange_thickness'
p114
g8
(g9
(I0
tS'b'
tRp115
(I1
(I5
tg12
I00
S'3\xf9[\x15\x97\x15\xd3?\x8e\xf3n\xff\x89\xd6\xdf?\x8f\x8f^\x11q\xa4\xcb?\x0b/a\xb8)$\xc4?#\x16\xfd\x03\xd9y\xc4?'
tbsS'placeMP'
p116
F3
sS'hubFraction'
p117
F0.023784901758014475
sS'feedStudy'
p118
F10000000
sS'preFEEDStudy'
p119
F5000000
sS'cableOptimizer'
p120
I00
sS'platforms_mass_cost_coeff'
p121
F8.6999999999999993
sS'hvac_mass_cost_coeff'
p122
F163.94999999999999
sS'upper_attachment_pontoons_int'
p123
g14
(g15
S'\x00\x00\x00\x00\x00\x00\x00\x00'
tRp124
sS'nepaEisMet'
p125
F2000000
sS'pontoon_cost_rate'
p126
F6.25
sS'yaw_mass_cost_coeff'
p127
F11.01
sS'subsTopFab'
p128
F14500
sS'dummy_mass'
p129
F9.9999999999999998e-13
sS'elec_connec_machine_rating_cost_coeff'
p130
F40
sS'fixed_charge_rate'
p131
F0.12
sS'water_viscosity'
p132
F0.00088999999999999995
sS'spMoorCon'
p133
F20
sS'wind_reference_height'
p134
F119
sS'outfitting_cost_rate'
p135
F6980
sS'air_viscosity'
p136
F1.8099999999999999e-05
sS'shape_parameter'
p137
F0
sS'prepSemi'
p138
F12
sS'prepTow'
p139
F12
sS'control_Vout'
p140
F25
sS'max_taper_ratio'
p141
F0.40000000000000002
sS'hub_profitMultiplier'
p142
F0
sS'tower_overheadCostMultiplier'
p143
F0
sS'platforms_mass'
p144
F1000
sS'socEconStudyProj'
p145
F200000
sS'gust_stddev'
p146
I3
sS'boltRotor'
p147
F7
sS'wave_period_range_high'
p148
F20
sS'vs_electronics_mass'
p149
F1000
sS'inspectClear'
p150
F2
sS'teT_in'
p151
g8
(g9
(I0
tS'b'
tRp152
(I1
(I5
tg52
I00
S'\xf4(\xfb\x97\x18\x81\xa5?\xad\xb1B\x13!\x8a\xb0?\xaf\xbf\xedj\xe1\xd6\xab?Y\xc3\xb4`\x17}\x90?\xe24"\xc9\xe3Gl?'
tbsS'morison_mass_coefficient'
p153
F2
sS'seaSpreadMob'
p154
F4500000
sS'wind_bottom_height'
p155
F0
sS'wave_period_range_low'
p156
F2
sS'stateLease'
p157
F250000
sS'offset_permanent_ballast_height'
p158
g14
(g15
S'\xe3\x8a\x15\xd9\xbdB\xd4?'
tRp159
sS'ssMoorCheck'
p160
F12
sS'main_stiffener_spacing'
p161
g8
(g9
(I0
tS'b'
tRp162
(I1
(I5
tg12
I00
S'zy\xcc\x18\x14/%@8:\xb5\x03\xf7\x8a"@\x80*xfbf-@\xb2z6\xe4\xee\xb40@\xfbV\x08`\xc0\x9f:@'
tbsS'tower_outer_diameter'
p163
g8
(g9
(I0
tS'b'
tRp164
(I1
(I6
tg108
I00
S'\x00\x00\x00\x00\x00\x00"@\x00\x00\x00\x00\x00\x00"@\x9a\x99\x99\x99\x99\x99 @\xa4p=\n\xd7\xa3\x1b@\x00\x00\x00\x00\x00\x00\x16@\x00\x00\x00\x00\x00\x00\x16@'
tbsS'conOpPlan'
p165
F1000000
sS'outfitting_mass_fraction'
p166
F0.059999999999999998
sS'capital_cost_year_2'
p167
F0.10000000000000001
sS'capital_cost_year_3'
p168
F0.10000000000000001
sS'capital_cost_year_0'
p169
F0.20000000000000001
sS'capital_cost_year_1'
p170
F0.59999999999999998
sS'G'
F79300000000
sS'fairlead_location'
p171
g14
(g15
S'\x98\xde\xfb\xc6\xfb\xd7\xcb?'
tRp172
sS'max_offset'
p173
F100
sS'control_minOmega'
p174
F6
sS'prepGripperMono'
p175
F1.5
sS'cabTerm'
p176
F5.5
sS'workSpace'
p177
F2000000
sS'main_bulkhead_thickness'
p178
g8
(g9
(I0
tS'b'
tRp179
(I1
(I6
tg108
I00
S'\x9a\x99\x99\x99\x99\x99\xa9?\x9a\x99\x99\x99\x99\x99\xa9?\x00\x00\x00\x00\x00\x00\x00\x00\x00\x00\x00\x00\x00\x00\x00\x00\x00\x00\x00\x00\x00\x00\x00\x00\x9a\x99\x99\x99\x99\x99\xa9?'
tbsS'vesselPosMono'
p180
F3
sS'boltBlade1'
p181
F3.5
sS'groutTP'
p182
F8
sS'boltBlade2'
p183
F3.5
sS'wind_beta'
p184
F0
sS'landConstruct'
p185
F7
sS'subsJackCR'
p186
F6250
sS'tiploss'
p187
I01
sS'hub_overheadCostMultiplier'
p188
F0
sS'control_pitch'
p189
F0
sS'azimuth_extreme'
p190
F0
sS'prepSpar'
p191
F18
sS'number_install_seasons'
p192
F1
sS'transformer_mass_cost_coeff'
p193
F26.5
sS'turbine_class'
p194
I0
sS'distInterCon'
p195
F3
sS'rivsnHarbsAct'
p196
F100000
sS'navStudyMet'
p197
F500000
sS'jackFasten'
p198
F20
sS'coastZoneManAct'
p199
F100000
sS'distPtoA'
p200
F90
sS'saPlan'
p201
F500000
sS'nCrane1000'
p202
F0
sS'bioResStudyMet'
p203
F1500000
sS'procurement_contingency'
p204
F0.050000000000000003
sS'jpileCR'
p205
F2250
sS'metTowCR'
p206
F11518
sS'jlatticeCR'
p207
F4680
sS'outer_cross_pontoons_int'
p208
g14
(g15
S'\x00\x00\x00\x00\x00\x00\x00\x00'
tRp209
sS'main_hardware_cost_coeff'
p210
F0.69999999999999996
sS'water_depth'
p211
F320
sS'control_tsr'
p212
F10.58
sS'VfactorPC'
p213
F0.69999999999999996
sS'levJack'
p214
F24
sS'pwrFac'
p215
F0.94999999999999996
sS'placeJack'
p216
F12
sS'upper_ring_pontoons_int'
p217
g14
(g15
S'\x00\x00\x00\x00\x00\x00\x00\x00'
tRp218
sS'main_stiffener_web_thickness'
p219
g8
(g9
(I0
tS'b'
tRp220
(I1
(I5
tg12
I00
S'\x1c\xfa\x18\xa6\xbb#\xb7?q\xb5\xdc[\xfa\xea\xdf?\xac\xafk\xceL\xa4\xc5?\x1e:\r\x8c\xc6\\\xc1?\x1eB\xc6&\xdfb\xac?'
tbsS'endSpecAct'
p221
F500000
sS'AEP_loss_factor'
p222
F1
sS'prepHamJack'
p223
F2
sS'water_density'
p224
F1025
sS'arrayX'
p225
F9
sS'expSubsInterCR'
p226
F57500
sS'min_diameter_thickness_ratio'
p227
F120
sS'offset_wall_thickness'
p228
g8
(g9
(I0
tS'b'
tRp229
(I1
(I6
tg12
I00
S'\xfcM\xf5$)\x8b\xb9?0P\xdc\xe9*0\xc9?]\xaf\x9fH\x11\x16\xb4?\xbeZhV}\x10\x96?r[\xf4d\xc00\xa6?\xe7J\x1c\r\x83Fq?'
tbsS'blade_mass_cost_coeff'
p230
F13.08
sS'turbFasten'
p231
F8
sS'hub_transportMultiplier'
p232
F0
sS'pitch_system_mass_cost_coeff'
p233
F22.91
sS'upendSpar'
p234
F36
sS'hub_I'
p235
g8
(g9
(I0
tS'b'
tRp236
(I1
(I6
tg52
I00
S'\x9eV\xe4\xeaZ\xe2\x13AGl\x9d\xa5\xf1\xda\x08AGl\x9d\xa5\xf1\xda\x08A\x00\x00\x00\x00\x00\x00\x00\x00\x00\x00\x00\x00\x00\x00\x00\x00\x00\x00\x00\x00\x00\x00\x00\x00'
tbsS'expCurrRating'
p237
F530
sS'turbulence_class'
p238
I1
sS'cover_mass_cost_coeff'
p239
F7.6100000000000003
sS'main_pontoon_attach_lower'
p240
g14
(g15
S'Xk\xb4\xa2\xf5\xd8\xb9?'
tRp241
sS'entranceExitRate'
p242
F0.52500000000000002
sS'lss_mass_cost_coeff'
p243
F12.6
sS'exCabFac'
p244
F0.10000000000000001
sS'moorSurvey'
p245
F4
sS'hub_height'
p246
F149
sS'offset_stiffener_web_height'
p247
g8
(g9
(I0
tS'b'
tRp248
(I1
(I5
tg12
I00
S'\xc88rg6:\xc7?\xcc2\xa6jd\xb8\xda?;J\xb1\xd6\xc1\xe3\xc0?]\xcf\x9c\xadZ;\xb3?\xec\x12oNa\x1d\xbc?'
tbsS'cabPullIn'
p249
F5.5
sS'craneMobDemob'
p250
F150000
sS'bladeLength'
p251
F96.700000000000003
sS'placeTop'
p252
F24
sS'discount_rate'
p253
F0.070000000000000007
sS'presweep_tip'
p254
F0
sS'gamma_fatigue'
p255
F1.7550000000000001
sS'tower_transportMultiplier'
p256
F0
sS'mptCR'
p257
F12500
sS'winchDR'
p258
F1000
sS'instScour'
p259
F6
sS'r_max_chord'
p260
g14
(g15
S'\x9b\xe6\x1d\xa7\xe8H\xce?'
tRp261
sS'ssMoorCon'
p262
F22
sS'bioResStudyProj'
p263
F500000
sS'placeTemplate'
p264
F4
sS'elecWork'
p265
F25000
sS'compRacks'
p266
F1000000
sS'distShore'
p267
F90
sS'bulkhead_mass_factor'
p268
F1
sS'elecCont'
p269
F0.29999999999999999
sS'cabSurveyCR'
p270
F240
sS'ssHeaveCR'
p271
F6250
sS'highVoltSG'
p272
F950000
sS'pitch_system_mass'
p273
F17004
sS'main_outer_diameter'
p274
g8
(g9
(I0
tS'b'
tRp275
(I1
(I6
tg12
I00
S'\x93>l\xb6\x8eI9@\x8a/\x97U\xe9\xe8&@#\r\xd6\x8adn\x1d@\xf3fS\x16\xa0\x97$@&\x99\x91\xed"\xa4!@rNIa\x01\x97#@'
tbsS'nacelleL'
p276
F-inf
sS'cab2TurbInterCR'
p277
F8615
sS'hamRate'
p278
F20
sS'nacelle_overheadCostMultiplier'
p279
F0
sS'crane1000DR'
p280
F8000
sS'nacelle_profitMultiplier'
p281
F0
sS'nacelleW'
p282
F-inf
sS'main_pontoon_attach_upper'
p283
g14
(g15
S'6\x8e#;\xc2\xb5\xed?'
tRp284
sS'tower_buckling_length'
p285
F30
sS'substructCont'
p286
F0.29999999999999999
sS'control_Vin'
p287
F4
sS'turbCont'
p288
F0.29999999999999999
sS'wave_period'
p289
F9.8000000000000007
sS'prepHamMono'
p290
F2
sS'wakerotation'
p291
I01
sS'tower_profitMultiplier'
p292
F0
sS'main_stiffener_flange_thickness'
p293
g8
(g9
(I0
tS'b'
tRp294
(I1
(I5
tg12
I00
S'+\xe2F\xc6\xba\xb4\xb1?\xc9x\xe9q,|\xd7?\x10\xb2\xef\xf7\x17\xcd\xc1?\xdeJ\xfe\xe9\xb0\xe5\xdf?\xe6\x94\x94K\xa9!\xc8?'
tbsS'nepaEisProj'
p295
F5000000
sS'pontoon_wall_thickness'
p296
g14
(g15
S'~\xc5\x01P\x03b\x94?'
tRp297
sS'cabDrillCR'
p298
F3200
sS'physResStudyMet'
p299
F1500000
sS'main_buoyancy_tank_location'
p300
g14
(g15
S'\xdc,cj6?\xf1>'
tRp301
sS'strain_ult_spar'
p302
F0.01
sS'expCabCR'
p303
F495.411
sS'base_hardware_cost_coeff'
p304
F0.69999999999999996
sS'annual_opex'
p305
F700000
sS'hub_cm'
p306
g8
(g9
(I0
tS'b'
tRp307
(I1
(I3
tg52
I00
S'ffffff\x1c\xc0\x00\x00\x00\x00\x00\x00\x00\x00\x00\x00\x00\x00\x00\x00\x06@'
tbsS'marMamProtAct'
p308
F500000
sS'sparT_in'
p309
g8
(g9
(I0
tS'b'
tRp310
(I1
(I5
tg52
I00
S'Xh\x82\xe1[b\xa0?\xfc\x8d\xa5=\x19\xa0\xa9?\xdcC!\x10\xd0\xcc\xb5?k\xcbD\xc9\xbc\xe8\xb3?~&\x13\xd1\x020\x88?'
tbsS'backUpGen'
p311
F1000000
sS'gamma_m'
p312
F1.3
sS'gamma_n'
p313
F1
sS'number_of_offset_columns'
p314
I3
sS'yaw'
p315
F0
sS'gamma_f'
p316
F1.3500000000000001
sS'offset_freeboard'
p317
g14
(g15
S'-@u\xd8T\xe2+@'
tRp318
sS'gamma_b'
p319
F1.1000000000000001
sS'bearings_mass_cost_coeff'
p320
F6.3499999999999996
sS'pileSpreadMob'
p321
F750000
sS'ballast_cost_rate'
p322
F100
sS'yaw_mass'
p323
F11878.24
sS'number_of_turbines'
p324
I20
sS'downwind'
p325
I00
sS'spinner_mass'
p326
F1810.5
sS'main_buoyancy_tank_diameter'
p327
g14
(g15
S'\xc5\xf9\x02\x11~^\x1d@'
tRp328
sS'crane_cost'
p329
F0
sS'turbine_transportMultiplier'
p330
F0
sS'ssBall'
p331
F6
sS'vesselPosTurb'
p332
F2
sS'deaFixLeng'
p333
F0
sS'wave_height'
p334
F10.800000000000001
sS'cleanWatAct404'
p335
F100000
sS'anchor'
p336
I0
sS'estEnMFac'
p337
F0.040000000000000001
sS'gearbox_mass_cost_coeff'
p338
F17.399999999999999
sS'chord_in'
p339
g8
(g9
(I0
tS'b'
tRp340
(I1
(I5
tg52
I00
S'gfffff\x12@\rnk\x0b\xcf\xab\x12@r\xe0\xd5rg\xf6\x17@t\xc8\xb4\xe7\x15\x10\x08@ \r\xe0-\x90\xa0\xb8?'
tbsS'precurve_in'
p341
g8
(g9
(I0
tS'b'
tRp342
(I1
(I5
tg52
I00
S'\x00\x00\x00\x00\x00\x00\x00\x80\x97\xcc\xb1\xbc\xab\x1e\xa0\xbf\x11\x02\xf2%Tp\xc6\xbf\xc5\xd5\x86\xdf>1\xeb\xbfU\x84\x9b\x8c*\xd3\x18\xc0'
tbsS'catLengFac'
p343
F0.040000000000000001
sS'Myb_damage'
p344
g8
(g9
(I0
tS'b'
tRp345
(I1
(I51
tg52
I00
S'\x11\xea-\x81\x99\x97q=\x11\xea-\x81\x99\x97q=\x11\xea-\x81\x99\x97q=\x11\xea-\x81\x99\x97q=\x11\xea-\x81\x99\x97q=\x11\xea-\x81\x99\x97q=\x11\xea-\x81\x99\x97q=\x11\xea-\x81\x99\x97q=\x11\xea-\x81\x99\x97q=\x11\xea-\x81\x99\x97q=\x11\xea-\x81\x99\x97q=\x11\xea-\x81\x99\x97q=\x11\xea-\x81\x99\x97q=\x11\xea-\x81\x99\x97q=\x11\xea-\x81\x99\x97q=\x11\xea-\x81\x99\x97q=\x11\xea-\x81\x99\x97q=\x11\xea-\x81\x99\x97q=\x11\xea-\x81\x99\x97q=\x11\xea-\x81\x99\x97q=\x11\xea-\x81\x99\x97q=\x11\xea-\x81\x99\x97q=\x11\xea-\x81\x99\x97q=\x11\xea-\x81\x99\x97q=\x11\xea-\x81\x99\x97q=\x11\xea-\x81\x99\x97q=\x11\xea-\x81\x99\x97q=\x11\xea-\x81\x99\x97q=\x11\xea-\x81\x99\x97q=\x11\xea-\x81\x99\x97q=\x11\xea-\x81\x99\x97q=\x11\xea-\x81\x99\x97q=\x11\xea-\x81\x99\x97q=\x11\xea-\x81\x99\x97q=\x11\xea-\x81\x99\x97q=\x11\xea-\x81\x99\x97q=\x11\xea-\x81\x99\x97q=\x11\xea-\x81\x99\x97q=\x11\xea-\x81\x99\x97q=\x11\xea-\x81\x99\x97q=\x11\xea-\x81\x99\x97q=\x11\xea-\x81\x99\x97q=\x11\xea-\x81\x99\x97q=\x11\xea-\x81\x99\x97q=\x11\xea-\x81\x99\x97q=\x11\xea-\x81\x99\x97q=\x11\xea-\x81\x99\x97q=\x11\xea-\x81\x99\x97q=\x11\xea-\x81\x99\x97q=\x11\xea-\x81\x99\x97q=\x11\xea-\x81\x99\x97q='
tbsS'offset_buoyancy_tank_height'
p346
g14
(g15
S'\x07\xaa\x17\xb9\x08\x84\x0b@'
tRp347
sS'offset_stiffener_spacing'
p348
g8
(g9
(I0
tS'b'
tRp349
(I1
(I5
tg12
I00
S'\xef\x8c\xa1*\x15\x1f\x0b@w\x97\x0b\x1cvt>@\xde\xe0$\x9e\x94~J@$:\x14\x84z\r*@\x12m\x0b\xed\x9d\xa1/@'
tbsS'gamma_freq'
p350
F1.1000000000000001
sS'hss_mass'
p351
F1492.45
sS'placeTP'
p352
F3
sS'nac_mass'
p353
F334527.1875
sS'buryRate'
p354
F125
sS'max_survival_heel'
p355
F15
sS'shearExp'
p356
F0.11
sS'outConShelfLease'
p357
F1000000
sS'addLocPerm'
p358
F200000
sS'project_lifetime'
p359
F20
sS'hvac_mass'
p360
F1000
sS'offset_stiffener_flange_width'
p361
g8
(g9
(I0
tS'b'
tRp362
(I1
(I5
tg12
I00
S'X\x83(\x1cL)\xe1?\xc7\xd3),,\xd6\xa8?\x97\xe8~Y\xd0\xee\xd8?\x8d7\x83\xc4\x91H\xc5?5h\x98+k\xb7\xed?'
tbsS'nCrane600'
p363
F0
sS'installStrategy'
p364
I0
sS'distPort'
p365
F90
sS'fairlead_support_wall_thickness'
p366
g14
(g15
S"\x91\x18\xde'^\t\x93?"
tRp367
sS'removeHamJack'
p368
F4
sS'mtransCR'
p369
F3230
sS'boltNacelle1'
p370
F7
sS'mpileCR'
p371
F2250
sS'boltNacelle3'
p372
F7
sS'boltNacelle2'
p373
F7
sS'hubloss'
p374
I01
sS'cab1TurbInterCR'
p375
F8410
sS'bearing_number'
p376
I2
sS'loading'
p377
S'hydrostatic'
p378
sS'lower_ring_pontoons_int'
p379
g14
(g15
S'\x00\x00\x00\x00\x00\x00\x00\x00'
tRp380
sS'main_stiffener_web_height'
p381
g8
(g9
(I0
tS'b'
tRp382
(I1
(I5
tg12
I00
S'\x80\x12\x1a$\xe2:\xdd? \xb1f\xb3\x7f\xff\xef?\xf7\xa4?[i"\xd1?P\xf0(`\x95\x90\xe3?_mD*\x94\xea\x86?'
tbsS'expVoltage'
p383
F220
sS'controls_cost_base'
p384
g8
(g9
(I0
tS'b'
tRp385
(I1
(I2
tg11
(S'f8'
I0
I1
tRp386
(I3
S'<'
NNNI-1
I-1
I0
tbI00
S'\x00\x00\x00\x00\x00\x17\xe1@\x00\x00\x00\x00\x80K\xeb@'
tbsS'fairlead_offset_from_shell'
p387
F6.0004865405187147
sS'rna_weightM'
p388
I01
sS'shuntCR'
p389
F35000
sS'dockRate'
p390
F3000
sS'subsVessPos'
p391
F6
sS'civilWork'
p392
F40000
sS'towerInstallMethod'
p393
I0
sS'migBirdAct'
p394
F500000
sS'max_draft'
p395
F20
sS'theta_in'
p396
g8
(g9
(I0
tS'b'
tRp397
(I1
(I5
tg52
I00
S'\x00\x00\x00\x00\x00\x00-@9\xb4\xc8v\xbe\x9f*@L7\x89A`\xe5\x1a@<r\x8e\x14\xc5X\xa1\xbf\x84l\xe7\xfb\xa9\xf1\xa2\xbf'
tbsS'cabDrillDist'
p398
F500
sS'topAssemblyFac'
p399
F0.074999999999999997
sS'fairlead_support_outer_diameter'
p400
g14
(g15
S's\xf0\x17K\xf3\xff#@'
tRp401
sS'interConVolt'
p402
F345
sS'offset_bulkhead_thickness'
p403
g8
(g9
(I0
tS'b'
tRp404
(I1
(I6
tg108
I00
S'\x9a\x99\x99\x99\x99\x99\xa9?\x9a\x99\x99\x99\x99\x99\xa9?\x00\x00\x00\x00\x00\x00\x00\x00\x00\x00\x00\x00\x00\x00\x00\x00\x00\x00\x00\x00\x00\x00\x00\x00\x9a\x99\x99\x99\x99\x99\xa9?'
tbsS'controls_esc'
p405
F1.5
sS'm_damage'
p406
F10
sS'shell_mass_factor'
p407
F1
sS'tower_mass_cost_coeff'
p408
F3.2000000000000002
sS'nBlades'
p409
I3
sS'expCabMass'
p410
F71.900000000000006
sS'subsPileCR'
p411
F2250
sS'wharfRate'
p412
F2.75
sS'Rhub'
p413
F1.125
sS'vs_electronics_mass_cost_coeff'
p414
F26.5
sS'tower_outfitting_factor'
p415
F1.0700000000000001
sS'scourMat'
p416
F250000
sS'laydownCR'
p417
F0.25
sS'hub_assemblyCostMultiplier'
p418
F0
sS'anchor_type'
p419
S'suctionpile'
p420
sS'jlatticeA'
p421
F26
sS'drivetrainType'
p422
I0
sS'pitch_extreme'
p423
F0
sS'main_wall_thickness'
p424
g8
(g9
(I0
tS'b'
tRp425
(I1
(I6
tg12
I00
S'\x89b\xc3+\xbb:\xaa?\x82\x19\nsD\x8b\xaf?)\xb6Ah\x12z\xae?\xd3[Gc\x12V\xa4?\x1d\xb7\xac]\xc3\xde\xa6?\x9eq\xe6\xbe\xce\t\xae?'
tbsS'mean_current_speed'
p426
F0
sS'nac_cm'
p427
g8
(g9
(I0
tS'b'
tRp428
(I1
(I3
tg52
I00
S'\x85\xebQ\xb8\x1e\x85\x05@\x00\x00\x00\x00\x00\x00\x00\x00333333\x03@'
tbsS'subsTopDes'
p429
F4500000
sS'moorLoadout'
p430
F5
sS'tower_section_height'
p431
g8
(g9
(I0
tS'b'
tRp432
(I1
(I5
tg108
I00
S'\x00\x00\x00\x00\x00\x00$@\x00\x10\xaeG\xe1z\x84?\xc3\xf5(\\\x8fBJ@\xcc\xcc\xcc\xcc\xcc\x8cJ@\x00)\\\x8f\xc2\xf5\n@'
tbsS'navStudyProj'
p433
F250000
sS'buryFac'
p434
F0.10000000000000001
sS'tapered_col_cost_rate'
p435
F4720
sS'cab2CR'
p436
F202.78800000000001
sS'air_density'
p437
F1.198
sS'offset_section_height'
p438
g8
(g9
(I0
tS'b'
tRp439
(I1
(I5
tg12
I00
S'cr\xf5\xce,\x9d\xee?w\x00\xad\xac#C\xfc?<\t\xcc\xf2E\xfe2@\xbaQ\xe8\xb6>\x0f\xd8?0\xbaq\xd5\xde7\x17@'
tbsS'strain_ult_te'
p440
F0.0050000000000000001
sS'turbine_overheadCostMultiplier'
p441
F0
sS'placePiles'
p442
F12
sS'main_permanent_ballast_height'
p443
g14
(g15
S'\xad\xf4^(E\xac\x13@'
tRp444
sS'diveTeamDR'
p445
F3200
sS'arrayY'
p446
F9
sS'bedplate_mass'
p447
F93090.600000000006
sS'mooring_line_length'
p448
g14
(g15
S'\xfc`i\x821\x9a\xa6@'
tRp449
sS'wind_reference_speed'
p450
F11
sS'control_maxOmega'
p451
F8.887659696962098
sS'crane'
p452
I00
sS'hub_mass_cost_coeff'
p453
F3.7999999999999998
sS'operational_heel'
p454
F6
sS'removeHamMono'
p455
F2
sS'connection_ratio_max'
p456
F0.25
sS'hss_mass_cost_coeff'
p457
F8.25
sS'spMoorCheck'
p458
F16
sS'spinner_mass_cost_coeff'
p459
F23
sS'pileSpreadDR'
p460
F2500
sS'lss_mass'
p461
F31257.299999999999
sS'mooring_lines_per_connection'
p462
g14
(g15
S'\x00\x00\x00\x00\x00\x00\x00@'
tRp463
sS'anchor_radius'
p464
g14
(g15
S'nfjM\x14\xd8\xa5@'
tRp465
sS'pontoon_outer_diameter'
p466
g14
(g15
S'\xd4\x8b\xe2\x9fO\xd2!@'
tRp467
sS'moorTimeFac'
p468
F0.0050000000000000001
sS'shorePullIn'
p469
F96
sS'natHisPresAct'
p470
F250000
sS'scrapVal'
p471
F0
sS'mooring_cost_rate'
p472
F1.1000000000000001
sS'bedplate_mass_cost_coeff'
p473
F4.5
sS'nu'
p474
F0.26000000000000001
sS'arrCab2Mass'
p475
F21.853999999999999
sS'E'
F200000000000
sS'cab2CurrRating'
p476
F340
sS'boltTower'
p477
F7
sS'cabLoadout'
p478
F14
sS'subsPullIn'
p479
F48
sS'vesselPosJack'
p480
F8
sS'nacelle_assemblyCostMultiplier'
p481
F0
sS'install_contingency'
p482
F0.29999999999999999
sS'mooring_type'
p483
S'chain'
p484
sS'decomDiscRate'
p485
F0.029999999999999999
s(lp486
(lp487
S'fairlead_location'
p488
aF0
aF1
aa(lp489
S'fairlead_support_wall_thickness'
p490
aF0.001
aF1
aa(lp491
S'fairlead_support_outer_diameter'
p492
aF0.10000000000000001
aF10
aa(lp493
S'main_freeboard'
p494
aF0
aF50
aa(lp495
S'main_section_height'
p496
aF0.10000000000000001
aF50
aa(lp497
S'main_outer_diameter'
p498
aF2.1000000000000001
aF40
aa(lp499
S'main_wall_thickness'
p500
aF0.001
aF0.5
aa(lp501
S'main_buoyancy_tank_diameter'
p502
aF0
aF50
aa(lp503
S'main_buoyancy_tank_height'
p504
aF0
aF20
aa(lp505
S'main_buoyancy_tank_location'
p506
aF0
aF1
aa(lp507
S'offset_freeboard'
p508
aF2
aF15
aa(lp509
S'offset_section_height'
p510
aF0.10000000000000001
aF50
aa(lp511
S'offset_outer_diameter'
p512
aF1.1000000000000001
aF40
aa(lp513
S'offset_wall_thickness'
p514
aF0.001
aF0.5
aa(lp515
S'offset_buoyancy_tank_diameter'
p516
aF0
aF50
aa(lp517
S'offset_buoyancy_tank_height'
p518
aF0
aF20
aa(lp519
S'offset_buoyancy_tank_location'
p520
aF0
aF1
aa(lp521
S'pontoon_outer_diameter'
p522
aF1
aF10
aa(lp523
S'pontoon_wall_thickness'
p524
aF0.01
aF1
aa(lp525
S'main_pontoon_attach_lower'
p526
aF0
aF0.5
aa(lp527
S'main_pontoon_attach_upper'
p528
aF0.5
aF1
aa(lp529
S'mooring_line_length'
p530
aF200
aF3000
aa(lp531
S'anchor_radius'
p532
aF100
aF5000
aa(lp533
S'mooring_diameter'
p534
aF0.050000000000000003
aF2
aa(lp535
S'main_permanent_ballast_height'
p536
aF0.10000000000000001
aF50
aa(lp537
S'main_stiffener_web_height'
p538
aF0.01
aF1
aa(lp539
S'main_stiffener_web_thickness'
p540
aF0.001
aF0.5
aa(lp541
S'main_stiffener_flange_width'
p542
aF0.01
aF5
aa(lp543
S'main_stiffener_flange_thickness'
p544
aF0.001
aF0.5
aa(lp545
S'main_stiffener_spacing'
p546
aF0.10000000000000001
aF100
aa(lp547
S'offset_stiffener_web_height'
p548
aF0.01
aF1
aa(lp549
S'offset_stiffener_web_thickness'
p550
aF0.001
aF0.5
aa(lp551
S'offset_stiffener_flange_width'
p552
aF0.01
aF5
aa(lp553
S'offset_stiffener_flange_thickness'
p554
aF0.001
aF0.5
aa(lp555
S'offset_stiffener_spacing'
p556
aF0.10000000000000001
aF100
aa(lp557
S'offset_permanent_ballast_height'
p558
aF0.10000000000000001
aF50
aa(lp559
S'radius_to_offset_column'
p560
aF5
aF100
aa(lp561
(lp562
S'tow.height_constraint'
p563
aF-0.01
aF0.01
aNaa(lp564
S'main.draft'
p565
aF0
aF20
aNaa(lp566
S'off.draft'
p567
aF0
aF20
aNaa(lp568
S'main.draft_margin'
p569
aF0
aF1
aNaa(lp570
S'off.draft_margin'
p571
aF0
aF1
aNaa(lp572
S'main.wave_height_freeboard_ratio'
p573
aNaF1
aNaa(lp574
S'off.wave_height_freeboard_ratio'
p575
aNaF1
aNaa(lp576
S'main_offset_spacing'
p577
aF1
aNaNaa(lp578
S'main.manufacturability'
p579
aF0
aNaNaa(lp580
S'main.weldability'
p581
aNaF0
aNaa(lp582
S'off.manufacturability'
p583
aF0
aNaNaa(lp584
S'off.weldability'
p585
aNaF0
aNaa(lp586
S'tower_transition_buffer'
p587
aF-1
aF1
aNaa(lp588
S'nacelle_transition_buffer'
p589
aF0
aNaNaa(lp590
S'offset_freeboard_heel_margin'
p591
aF0
aNaNaa(lp592
S'offset_draft_heel_margin'
p593
aF0
aF20
aNaa(lp594
S'axial_unity'
p595
aF0
aF1
aNaa(lp596
S'mooring_length_max'
p597
aNaF1
aNaa(lp598
S'main.flange_spacing_ratio'
p599
aNaF1
aNaa(lp600
S'main.stiffener_radius_ratio'
p601
aNaF0.5
aNaa(lp602
S'main.flange_compactness'
p603
aF1
aNaNaa(lp604
S'main.web_compactness'
p605
aF1
aNaNaa(lp606
S'main.axial_local_api'
p607
aNaF1
aNaa(lp608
S'main.axial_general_api'
p609
aNaF1
aNaa(lp610
S'main.external_local_api'
p611
aNaF1
aNaa(lp612
S'main.external_general_api'
p613
aNaF1
aNaa(lp614
S'off.flange_spacing_ratio'
p615
aNaF1
aNaa(lp616
S'off.stiffener_radius_ratio'
p617
aNaF0.5
aNaa(lp618
S'off.flange_compactness'
p619
aF1
aNaNaa(lp620
S'off.web_compactness'
p621
aF1
aNaNaa(lp622
S'off.axial_local_api'
p623
aNaF1
aNaa(lp624
S'off.axial_general_api'
p625
aNaF1
aNaa(lp626
S'off.external_local_api'
p627
aNaF1
aNaa(lp628
S'off.external_general_api'
p629
aNaF1
aNaa(lp630
S'pontoon_stress'
p631
aNaF1
aNaa(lp632
S'tower_stress'
p633
aNaF1
aNaa(lp634
S'tower_shell_buckling'
p635
aNaF1
aNaa(lp636
S'tower_global_buckling'
p637
aNaF1
aNaa(lp638
S'main_stress'
p639
aNaF1
aNaa(lp640
S'main_shell_buckling'
p641
aNaF1
aNaa(lp642
S'main_global_buckling'
p643
aNaF1
aNaa(lp644
S'offset_stress'
p645
aNaF1
aNaa(lp646
S'offset_shell_buckling'
p647
aNaF1
aNaa(lp648
S'offset_global_buckling'
p649
aNaF1
aNaa(lp650
S'variable_ballast_height_ratio'
p651
aF0
aF1
aNaa(lp652
S'variable_ballast_mass'
p653
aF0
aNaNaa(lp654
S'metacentric_height'
p655
aF0.10000000000000001
aNaNaa(lp656
S'offset_force_ratio'
p657
aNaF1
aNaa(lp658
S'heel_moment_ratio'
p659
aNaF1
aNaa(lp660
S'period_margin_low'
p661
aNaF1
aNaa(lp662
S'period_margin_high'
p663
aF1
aNaNaa(lp664
S'Pn_margin'
p665
aNaF1
aNaa(lp666
S'P1_margin'
p667
aNaF1
aNaa(lp668
S'Pn_margin_cfem'
p669
aNaF1
aNaa(lp670
S'P1_margin_cfem'
p671
aNaF1
aNaa(lp672
S'rotor_strain_sparU'
p673
aF-1
aNaNaa(lp674
S'rotor_strain_sparL'
p675
aNaF1
aNaa(lp676
S'rotor_strain_teU'
p677
aF-1
aNaNaa(lp678
S'rotor_strain_teL'
p679
aNaF1
aNaa(lp680
S'rotor_buckling_sparU'
p681
aNaF1
aNaa(lp682
S'rotor_buckling_sparL'
p683
aNaF1
aNaa(lp684
S'rotor_buckling_teU'
p685
aNaF1
aNaa(lp686
S'rotor_buckling_teL'
p687
aNaF1
aNaa(lp688
S'rotor_damage_sparU'
p689
aNaF0
aNaa(lp690
S'rotor_damage_sparL'
p691
aNaF0
aNaa(lp692
S'rotor_damage_teU'
p693
aNaF0
aNaa(lp694
S'rotor_damage_teL'
p695
aNaF0
aNaa(lp696
S'ground_clearance'
p697
aF20
aNaNaa(S'total_cost'
p698
F1.0000000000000001e-09
tp699
S'NM'
p700
t.