((dp1
S'generator_mass'
p2
F16699.849999999999
sS'turbine_profitMultiplier'
p3
F0
sS'prepGripperJack'
p4
F8
sS'tpCover'
p5
F1.5
sS'main_stiffener_flange_width'
p6
cnumpy.core.multiarray
_reconstruct
p7
(cnumpy
ndarray
p8
(I0
tS'b'
tRp9
(I1
(I5
tcnumpy
dtype
p10
(S'f8'
I0
I1
tRp11
(I3
S'<'
NNNI-1
I-1
I0
tbI00
S'6\xba\x88\xbeV\xaf\xb0?\xe3C(E\xd7:\xd7?M\xbe;\xb4\xb6\xee\xfe?#\x07hE\xe3\xe9\xef?\xc1\xd9%,\x8e\xe9\xde?'
tbsS'cross_attachment_pontoons_int'
p12
cnumpy.core.multiarray
scalar
p13
(g10
(S'f8'
I0
I1
tRp14
(I3
S'<'
NNNI-1
I-1
I0
tbS'\x00\x00\x00\x00\x00\x00\x00\x00'
tRp15
sS'faaPlan'
p16
F10000
sS'main_section_height'
p17
g7
(g8
(I0
tS'b'
tRp18
(I1
(I5
tg11
I00
S"\x04\x9bs3Q\x03(@S\\\x8c\x1e\xef\xbe\xf8?\x0c\xa6\xa1\x17\xc2v\x1b@\t\xda\xec\x82\xf5b'@\x06\x1d\xa56\xd0<'@"
tbsS'transformer_mass'
p19
F1000
sS'otherAncillary'
p20
F3000000
sS'precurve_tip'
p21
F0
sS'jtransCR'
p22
F4500
sS'mpileD'
p23
F0
sS'medVoltSG'
p24
F500000
sS'mpileL'
p25
F0
sS'generator_mass_cost_coeff'
p26
F17.43
sS'jpileL'
p27
F47.5
sS'plantComm'
p28
F0.01
sS'subsLoad'
p29
F60
sS'jpileD'
p30
F1.6000000000000001
sS'capital_cost_year_4'
p31
F0
sS'main_bearing_mass'
p32
F4865.7049999999999
sS'main_freeboard'
p33
g13
(g14
S'n\x16\xf6\x9c\xb5\xff=@'
tRp34
sS'cabPullIn'
p35
F5.5
sS'material_density'
p36
F7850
sS'dynCabFac'
p37
F2
sS'cab1CurrRating'
p38
F300
sS'crane600DR'
p39
F5000
sS'arrVoltage'
p40
F33
sS'elec_connec_cost_esc'
p41
F1.5
sS'gearbox_mass'
p42
F30237.599999999999
sS'construction_insurance'
p43
F0.01
sS'cab2SubsInterCR'
p44
F19815
sS'tax_rate'
p45
F0.40000000000000002
sS'presweep_in'
p46
g7
(g8
(I0
tS'b'
tRp47
(I1
(I5
tg10
(S'f8'
I0
I1
tRp48
(I3
S'<'
NNNI-1
I-1
I0
tbI00
S'\x00\x00\x00\x00\x00\x00\x00\x00\x00\x00\x00\x00\x00\x00\x00\x00\x00\x00\x00\x00\x00\x00\x00\x00\x00\x00\x00\x00\x00\x00\x00\x00\x00\x00\x00\x00\x00\x00\x00\x00'
tbsS'permanent_ballast_density'
p49
F4492
sS'expCabLoad'
p50
F24
sS'groutSpreadMob'
p51
F1000000
sS'machine_rating'
p52
F10000000
sS'socEconStudyMet'
p53
F500000
sS'cleanWatAct402'
p54
F100000
sS'mpvRentalDR'
p55
F72000
sS'distAtoS'
p56
F90
sS'cover_mass'
p57
F1000
sS'lower_attachment_pontoons_int'
p58
g13
(g14
S'\x00\x00\x00\x00\x00\x00\xf0?'
tRp59
sS'usecd'
p60
I01
sS'radius_to_offset_column'
p61
g13
(g14
S'\x8euq8\xa4\xecJ@'
tRp62
sS'surfLayRate'
p63
F375
sS'physResStudyProj'
p64
F500000
sS'seaSpreadDR'
p65
F165000
sS'z_offset'
p66
F0
sS'prepAA'
p67
F168
sS'number_of_mooring_connections'
p68
I3
sS'offset_stiffener_web_thickness'
p69
g7
(g8
(I0
tS'b'
tRp70
(I1
(I5
tg11
I00
S'7\xea\x14\xee\xc1\xb1\xdf?+\xb7\xfb@\x88\xe7\xc3?\xf6d\xf3q\x1a\x8cx?rDJh\x87\xbck?\x1a\xad3\x12h\xdf\x97?'
tbsS'dynamic_amplication_tip_deflection'
p71
F1.3500000000000001
sS'mpEmbedL'
p72
F30
sS'arrCab1Mass'
p73
F20.384
sS'turbine_assemblyCostMultiplier'
p74
F0
sS'turbInstallMethod'
p75
I0
sS'tower_assemblyCostMultiplier'
p76
F0
sS'column_mass_factor'
p77
F1.05
sS'offset_outer_diameter'
p78
g7
(g8
(I0
tS'b'
tRp79
(I1
(I6
tg11
I00
S'\x8a\x05&\xe6\x16\x02(@\x91M\xbf\x9c\x06~:@\x9f\xder\xeb1\x86%@\x0b*_\xe7\xdd\x92"@H\x05\xf9z\xbc\x0c\x1b@U\x93\x9e-,\xce\x18@'
tbsS'yield_stress'
p80
F345000000
sS'rstar_damage'
p81
g7
(g8
(I0
tS'b'
tRp82
(I1
(I51
tg48
I00
S'\x00\x00\x00\x00\x00\x00\x00\x00{\x14\xaeG\xe1z\x94?{\x14\xaeG\xe1z\xa4?\xb8\x1e\x85\xebQ\xb8\xae?{\x14\xaeG\xe1z\xb4?\x9a\x99\x99\x99\x99\x99\xb9?\xb8\x1e\x85\xebQ\xb8\xbe?\xecQ\xb8\x1e\x85\xeb\xc1?{\x14\xaeG\xe1z\xc4?\n\xd7\xa3p=\n\xc7?\x9a\x99\x99\x99\x99\x99\xc9?)\\\x8f\xc2\xf5(\xcc?\xb8\x1e\x85\xebQ\xb8\xce?\xa4p=\n\xd7\xa3\xd0?\xecQ\xb8\x1e\x85\xeb\xd1?333333\xd3?{\x14\xaeG\xe1z\xd4?\xc3\xf5(\\\x8f\xc2\xd5?\n\xd7\xa3p=\n\xd7?R\xb8\x1e\x85\xebQ\xd8?\x9a\x99\x99\x99\x99\x99\xd9?\xe1z\x14\xaeG\xe1\xda?)\\\x8f\xc2\xf5(\xdc?q=\n\xd7\xa3p\xdd?\xb8\x1e\x85\xebQ\xb8\xde?\x00\x00\x00\x00\x00\x00\xe0?\xa4p=\n\xd7\xa3\xe0?H\xe1z\x14\xaeG\xe1?\xecQ\xb8\x1e\x85\xeb\xe1?\x8f\xc2\xf5(\\\x8f\xe2?333333\xe3?\xd7\xa3p=\n\xd7\xe3?{\x14\xaeG\xe1z\xe4?\x1f\x85\xebQ\xb8\x1e\xe5?\xc3\xf5(\\\x8f\xc2\xe5?gfffff\xe6?\n\xd7\xa3p=\n\xe7?\xaeG\xe1z\x14\xae\xe7?R\xb8\x1e\x85\xebQ\xe8?\xf6(\\\x8f\xc2\xf5\xe8?\x9a\x99\x99\x99\x99\x99\xe9?>\n\xd7\xa3p=\xea?\xe1z\x14\xaeG\xe1\xea?\x85\xebQ\xb8\x1e\x85\xeb?)\\\x8f\xc2\xf5(\xec?\xcd\xcc\xcc\xcc\xcc\xcc\xec?q=\n\xd7\xa3p\xed?\x15\xaeG\xe1z\x14\xee?\xb8\x1e\x85\xebQ\xb8\xee?\\\x8f\xc2\xf5(\\\xef?\x00\x00\x00\x00\x00\x00\xf0?'
tbsS'precone'
p83
F4
sS'nacelle_transportMultiplier'
p84
F0
sS'Mxb_damage'
p85
g7
(g8
(I0
tS'b'
tRp86
(I1
(I51
tg48
I00
S'\x11\xea-\x81\x99\x97q=\x11\xea-\x81\x99\x97q=\x11\xea-\x81\x99\x97q=\x11\xea-\x81\x99\x97q=\x11\xea-\x81\x99\x97q=\x11\xea-\x81\x99\x97q=\x11\xea-\x81\x99\x97q=\x11\xea-\x81\x99\x97q=\x11\xea-\x81\x99\x97q=\x11\xea-\x81\x99\x97q=\x11\xea-\x81\x99\x97q=\x11\xea-\x81\x99\x97q=\x11\xea-\x81\x99\x97q=\x11\xea-\x81\x99\x97q=\x11\xea-\x81\x99\x97q=\x11\xea-\x81\x99\x97q=\x11\xea-\x81\x99\x97q=\x11\xea-\x81\x99\x97q=\x11\xea-\x81\x99\x97q=\x11\xea-\x81\x99\x97q=\x11\xea-\x81\x99\x97q=\x11\xea-\x81\x99\x97q=\x11\xea-\x81\x99\x97q=\x11\xea-\x81\x99\x97q=\x11\xea-\x81\x99\x97q=\x11\xea-\x81\x99\x97q=\x11\xea-\x81\x99\x97q=\x11\xea-\x81\x99\x97q=\x11\xea-\x81\x99\x97q=\x11\xea-\x81\x99\x97q=\x11\xea-\x81\x99\x97q=\x11\xea-\x81\x99\x97q=\x11\xea-\x81\x99\x97q=\x11\xea-\x81\x99\x97q=\x11\xea-\x81\x99\x97q=\x11\xea-\x81\x99\x97q=\x11\xea-\x81\x99\x97q=\x11\xea-\x81\x99\x97q=\x11\xea-\x81\x99\x97q=\x11\xea-\x81\x99\x97q=\x11\xea-\x81\x99\x97q=\x11\xea-\x81\x99\x97q=\x11\xea-\x81\x99\x97q=\x11\xea-\x81\x99\x97q=\x11\xea-\x81\x99\x97q=\x11\xea-\x81\x99\x97q=\x11\xea-\x81\x99\x97q=\x11\xea-\x81\x99\x97q=\x11\xea-\x81\x99\x97q=\x11\xea-\x81\x99\x97q=\x11\xea-\x81\x99\x97q='
tbsS'mooring_diameter'
p87
g13
(g14
S'\xff\xef\x07\xc7\x8c\xad\xd1?'
tRp88
sS'hub_mass'
p89
F105520
sS'cab1CR'
p90
F185.88900000000001
sS'cd_usr'
p91
Finf
sS'buryDepth'
p92
F2
sS'nac_I'
p93
g7
(g8
(I0
tS'b'
tRp94
(I1
(I6
tg48
I00
S'\x00\x00\x00`\xb4[\\A\x00\x00\x00\x8e\x82\ngA\x00\x00\x00\x8e\x82\ngA\x00\x00\x00\x00\x00\x00\x00\x00\x00\x00\x00\x00\x00\x00\x00\x00\x00\x00\x00\x00\x00\x00\x00\x00'
tbsS'monoFasten'
p95
F12
sS'tilt'
p96
F6
sS'nSector'
p97
I4
sS'tower_wall_thickness'
p98
g7
(g8
(I0
tS'b'
tRp99
(I1
(I6
tg10
(S'f8'
I0
I1
tRp100
(I3
S'<'
NNNI-1
I-1
I0
tbI00
S'\xe0\xa3p=\n\xd7\xd3?@33333\xd3?\x00R\xb8\x1e\x85\xeb\xc1?@\\\x8f\xc2\xf5(\xbc?\x80\x1e\x85\xebQ\xb8\xae?\x80\x1e\x85\xebQ\xb8\xae?'
tbsS'controls_cost_main'
p101
g7
(g8
(I0
tS'b'
tRp102
(I1
(I2
tg48
I00
S'\x00\x00\x00\x00\x00\x17\xe1@\x00\x00\x00\x00\x80K\xeb@'
tbsS'offshore'
p103
I01
sS'substructure'
p104
I3
sS'interest_during_construction'
p105
F0.080000000000000002
sS'offset_stiffener_flange_thickness'
p106
g7
(g8
(I0
tS'b'
tRp107
(I1
(I5
tg11
I00
S'3\xf9[\x15\x97\x15\xd3?\x8e\xf3n\xff\x89\xd6\xdf?\x8f\x8f^\x11q\xa4\xcb?\x0b/a\xb8)$\xc4?#\x16\xfd\x03\xd9y\xc4?'
tbsS'placeMP'
p108
F3
sS'hubFraction'
p109
F0.023784901758014475
sS'feedStudy'
p110
F10000000
sS'preFEEDStudy'
p111
F5000000
sS'cableOptimizer'
p112
I00
sS'platforms_mass_cost_coeff'
p113
F8.6999999999999993
sS'hvac_mass_cost_coeff'
p114
F163.94999999999999
sS'upper_attachment_pontoons_int'
p115
g13
(g14
S'\x00\x00\x00\x00\x00\x00\x00\x00'
tRp116
sS'nepaEisMet'
p117
F2000000
sS'pontoon_cost_rate'
p118
F6.25
sS'yaw_mass_cost_coeff'
p119
F11.01
sS'subsTopFab'
p120
F14500
sS'dummy_mass'
p121
F9.9999999999999998e-13
sS'elec_connec_machine_rating_cost_coeff'
p122
F40
sS'fixed_charge_rate'
p123
F0.12
sS'water_viscosity'
p124
F0.00088999999999999995
sS'spMoorCon'
p125
F20
sS'wind_reference_height'
p126
F119
sS'outfitting_cost_rate'
p127
F6980
sS'air_viscosity'
p128
F1.8099999999999999e-05
sS'shape_parameter'
p129
F0
sS'prepSemi'
p130
F12
sS'prepTow'
p131
F12
sS'control_Vout'
p132
F25
sS'max_taper_ratio'
p133
F0.40000000000000002
sS'hub_profitMultiplier'
p134
F0
sS'tower_overheadCostMultiplier'
p135
F0
sS'platforms_mass'
p136
F1000
sS'socEconStudyProj'
p137
F200000
sS'gust_stddev'
p138
I3
sS'boltRotor'
p139
F7
sS'wave_period_range_high'
p140
F20
sS'vs_electronics_mass'
p141
F1000
sS'inspectClear'
p142
F2
sS'teT_in'
p143
g7
(g8
(I0
tS'b'
tRp144
(I1
(I5
tg48
I00
S'\xf4(\xfb\x97\x18\x81\xa5?\xad\xb1B\x13!\x8a\xb0?\xaf\xbf\xedj\xe1\xd6\xab?Y\xc3\xb4`\x17}\x90?\xe24"\xc9\xe3Gl?'
tbsS'offset_ballast_heave_box_height'
p145
g13
(g14
S'\x07\xaa\x17\xb9\x08\x84\x0b@'
tRp146
sS'morison_mass_coefficient'
p147
F2
sS'offset_ballast_heave_box_diameter'
p148
g13
(g14
S"\xc4\xf9V\t@'%@"
tRp149
sS'wind_bottom_height'
p150
F0
sS'main_ballast_heave_box_location'
p151
g13
(g14
S'\xdc,cj6?\xf1>'
tRp152
sS'wave_period_range_low'
p153
F2
sS'stateLease'
p154
F250000
sS'offset_permanent_ballast_height'
p155
g13
(g14
S'\xe3\x8a\x15\xd9\xbdB\xd4?'
tRp156
sS'ssMoorCheck'
p157
F12
sS'main_stiffener_spacing'
p158
g7
(g8
(I0
tS'b'
tRp159
(I1
(I5
tg11
I00
S'zy\xcc\x18\x14/%@8:\xb5\x03\xf7\x8a"@\x80*xfbf-@\xb2z6\xe4\xee\xb40@\xfbV\x08`\xc0\x9f:@'
tbsS'tower_outer_diameter'
p160
g7
(g8
(I0
tS'b'
tRp161
(I1
(I6
tg100
I00
S'\x00\x00\x00\x00\x00\x00"@\x00\x00\x00\x00\x00\x00"@\x9a\x99\x99\x99\x99\x99 @\xa4p=\n\xd7\xa3\x1b@\x00\x00\x00\x00\x00\x00\x16@\x00\x00\x00\x00\x00\x00\x16@'
tbsS'conOpPlan'
p162
F1000000
sS'outfitting_mass_fraction'
p163
F0.059999999999999998
sS'capital_cost_year_2'
p164
F0.10000000000000001
sS'capital_cost_year_3'
p165
F0.10000000000000001
sS'capital_cost_year_0'
p166
F0.20000000000000001
sS'capital_cost_year_1'
p167
F0.59999999999999998
sS'G'
F79300000000
sS'capital_cost_year_5'
p168
F0
sS'max_offset'
p169
F100
sS'control_minOmega'
p170
F6
sS'prepGripperMono'
p171
F1.5
sS'cabTerm'
p172
F5.5
sS'workSpace'
p173
F2000000
sS'main_bulkhead_thickness'
p174
g7
(g8
(I0
tS'b'
tRp175
(I1
(I6
tg100
I00
S'\x9a\x99\x99\x99\x99\x99\xa9?\x9a\x99\x99\x99\x99\x99\xa9?\x00\x00\x00\x00\x00\x00\x00\x00\x00\x00\x00\x00\x00\x00\x00\x00\x00\x00\x00\x00\x00\x00\x00\x00\x9a\x99\x99\x99\x99\x99\xa9?'
tbsS'vesselPosMono'
p176
F3
sS'boltBlade1'
p177
F3.5
sS'groutTP'
p178
F8
sS'boltBlade2'
p179
F3.5
sS'wind_beta'
p180
F0
sS'landConstruct'
p181
F7
sS'subsJackCR'
p182
F6250
sS'tiploss'
p183
I01
sS'hub_overheadCostMultiplier'
p184
F0
sS'control_pitch'
p185
F0
sS'azimuth_extreme'
p186
F0
sS'prepSpar'
p187
F18
sS'number_install_seasons'
p188
F1
sS'transformer_mass_cost_coeff'
p189
F26.5
sS'turbine_class'
p190
I0
sS'distInterCon'
p191
F3
sS'rivsnHarbsAct'
p192
F100000
sS'navStudyMet'
p193
F500000
sS'jackFasten'
p194
F20
sS'coastZoneManAct'
p195
F100000
sS'distPtoA'
p196
F90
sS'saPlan'
p197
F500000
sS'nCrane1000'
p198
F0
sS'bioResStudyMet'
p199
F1500000
sS'procurement_contingency'
p200
F0.050000000000000003
sS'jpileCR'
p201
F2250
sS'metTowCR'
p202
F11518
sS'jlatticeCR'
p203
F4680
sS'outer_cross_pontoons_int'
p204
g13
(g14
S'\x00\x00\x00\x00\x00\x00\x00\x00'
tRp205
sS'main_hardware_cost_coeff'
p206
F0.69999999999999996
sS'water_depth'
p207
F320
sS'control_tsr'
p208
F10.58
sS'VfactorPC'
p209
F0.69999999999999996
sS'levJack'
p210
F24
sS'pwrFac'
p211
F0.94999999999999996
sS'placeJack'
p212
F12
sS'upper_ring_pontoons_int'
p213
g13
(g14
S'\x00\x00\x00\x00\x00\x00\x00\x00'
tRp214
sS'main_stiffener_web_thickness'
p215
g7
(g8
(I0
tS'b'
tRp216
(I1
(I5
tg11
I00
S'\x1c\xfa\x18\xa6\xbb#\xb7?q\xb5\xdc[\xfa\xea\xdf?\xac\xafk\xceL\xa4\xc5?\x1e:\r\x8c\xc6\\\xc1?\x1eB\xc6&\xdfb\xac?'
tbsS'endSpecAct'
p217
F500000
sS'AEP_loss_factor'
p218
F1
sS'prepHamJack'
p219
F2
sS'water_density'
p220
F1025
sS'arrayX'
p221
F9
sS'expSubsInterCR'
p222
F57500
sS'min_diameter_thickness_ratio'
p223
F120
sS'offset_wall_thickness'
p224
g7
(g8
(I0
tS'b'
tRp225
(I1
(I6
tg11
I00
S'\xfcM\xf5$)\x8b\xb9?0P\xdc\xe9*0\xc9?]\xaf\x9fH\x11\x16\xb4?\xbeZhV}\x10\x96?r[\xf4d\xc00\xa6?\xe7J\x1c\r\x83Fq?'
tbsS'blade_mass_cost_coeff'
p226
F13.08
sS'turbFasten'
p227
F8
sS'hub_transportMultiplier'
p228
F0
sS'pitch_system_mass_cost_coeff'
p229
F22.91
sS'upendSpar'
p230
F36
sS'hub_I'
p231
g7
(g8
(I0
tS'b'
tRp232
(I1
(I6
tg48
I00
S'\x9eV\xe4\xeaZ\xe2\x13AGl\x9d\xa5\xf1\xda\x08AGl\x9d\xa5\xf1\xda\x08A\x00\x00\x00\x00\x00\x00\x00\x00\x00\x00\x00\x00\x00\x00\x00\x00\x00\x00\x00\x00\x00\x00\x00\x00'
tbsS'expCurrRating'
p233
F530
sS'turbulence_class'
p234
I1
sS'cover_mass_cost_coeff'
p235
F7.6100000000000003
sS'main_pontoon_attach_lower'
p236
g13
(g14
S'Xk\xb4\xa2\xf5\xd8\xb9?'
tRp237
sS'entranceExitRate'
p238
F0.52500000000000002
sS'lss_mass_cost_coeff'
p239
F12.6
sS'exCabFac'
p240
F0.10000000000000001
sS'moorSurvey'
p241
F4
sS'hub_height'
p242
F149
sS'offset_stiffener_web_height'
p243
g7
(g8
(I0
tS'b'
tRp244
(I1
(I5
tg11
I00
S'\xc88rg6:\xc7?\xcc2\xa6jd\xb8\xda?;J\xb1\xd6\xc1\xe3\xc0?]\xcf\x9c\xadZ;\xb3?\xec\x12oNa\x1d\xbc?'
tbsS'groutSpreadDR'
p245
F3000
sS'craneMobDemob'
p246
F150000
sS'bladeLength'
p247
F96.700000000000003
sS'placeTop'
p248
F24
sS'discount_rate'
p249
F0.070000000000000007
sS'presweep_tip'
p250
F0
sS'gamma_fatigue'
p251
F1.7550000000000001
sS'tower_transportMultiplier'
p252
F0
sS'mptCR'
p253
F12500
sS'winchDR'
p254
F1000
sS'instScour'
p255
F6
sS'r_max_chord'
p256
g13
(g14
S'\x9b\xe6\x1d\xa7\xe8H\xce?'
tRp257
sS'ssMoorCon'
p258
F22
sS'bioResStudyProj'
p259
F500000
sS'placeTemplate'
p260
F4
sS'elecWork'
p261
F25000
sS'compRacks'
p262
F1000000
sS'distShore'
p263
F90
sS'bulkhead_mass_factor'
p264
F1
sS'elecCont'
p265
F0.29999999999999999
sS'cabSurveyCR'
p266
F240
sS'ssHeaveCR'
p267
F6250
sS'highVoltSG'
p268
F950000
sS'pitch_system_mass'
p269
F17004
sS'main_outer_diameter'
p270
g7
(g8
(I0
tS'b'
tRp271
(I1
(I6
tg11
I00
S'\x93>l\xb6\x8eI9@\x8a/\x97U\xe9\xe8&@#\r\xd6\x8adn\x1d@\xf3fS\x16\xa0\x97$@&\x99\x91\xed"\xa4!@rNIa\x01\x97#@'
tbsS'nacelleL'
p272
F-inf
sS'cab2TurbInterCR'
p273
F8615
sS'hamRate'
p274
F20
sS'nacelle_overheadCostMultiplier'
p275
F0
sS'crane1000DR'
p276
F8000
sS'nacelle_profitMultiplier'
p277
F0
sS'nacelleW'
p278
F-inf
sS'main_pontoon_attach_upper'
p279
g13
(g14
S'6\x8e#;\xc2\xb5\xed?'
tRp280
sS'offset_ballast_heave_box_location'
p281
g13
(g14
S'\xee\r\xc7Z\x03\xf1\xa4?'
tRp282
sS'tower_buckling_length'
p283
F30
sS'substructCont'
p284
F0.29999999999999999
sS'control_Vin'
p285
F4
sS'turbCont'
p286
F0.29999999999999999
sS'wave_period'
p287
F9.8000000000000007
sS'prepHamMono'
p288
F2
sS'wakerotation'
p289
I01
sS'tower_profitMultiplier'
p290
F0
sS'main_stiffener_flange_thickness'
p291
g7
(g8
(I0
tS'b'
tRp292
(I1
(I5
tg11
I00
S'+\xe2F\xc6\xba\xb4\xb1?\xc9x\xe9q,|\xd7?\x10\xb2\xef\xf7\x17\xcd\xc1?\xdeJ\xfe\xe9\xb0\xe5\xdf?\xe6\x94\x94K\xa9!\xc8?'
tbsS'nepaEisProj'
p293
F5000000
sS'pontoon_wall_thickness'
p294
g13
(g14
S'~\xc5\x01P\x03b\x94?'
tRp295
sS'cabDrillCR'
p296
F3200
sS'physResStudyMet'
p297
F1500000
sS'strain_ult_spar'
p298
F0.01
sS'expCabCR'
p299
F495.411
sS'base_hardware_cost_coeff'
p300
F0.69999999999999996
sS'annual_opex'
p301
F700000
sS'hub_cm'
p302
g7
(g8
(I0
tS'b'
tRp303
(I1
(I3
tg48
I00
S'ffffff\x1c\xc0\x00\x00\x00\x00\x00\x00\x00\x00\x00\x00\x00\x00\x00\x00\x06@'
tbsS'marMamProtAct'
p304
F500000
sS'sparT_in'
p305
g7
(g8
(I0
tS'b'
tRp306
(I1
(I5
tg48
I00
S'Xh\x82\xe1[b\xa0?\xfc\x8d\xa5=\x19\xa0\xa9?\xdcC!\x10\xd0\xcc\xb5?k\xcbD\xc9\xbc\xe8\xb3?~&\x13\xd1\x020\x88?'
tbsS'backUpGen'
p307
F1000000
sS'gamma_m'
p308
F1.3
sS'gamma_n'
p309
F1
sS'number_of_offset_columns'
p310
I3
sS'yaw'
p311
F0
sS'gamma_f'
p312
F1.3500000000000001
sS'offset_freeboard'
p313
g13
(g14
S'-@u\xd8T\xe2+@'
tRp314
sS'gamma_b'
p315
F1.1000000000000001
sS'bearings_mass_cost_coeff'
p316
F6.3499999999999996
sS'pileSpreadMob'
p317
F750000
sS'ballast_cost_rate'
p318
F100
sS'yaw_mass'
p319
F11878.24
sS'number_of_turbines'
p320
I20
sS'downwind'
p321
I00
sS'spinner_mass'
p322
F1810.5
sS'crane_cost'
p323
F0
sS'turbine_transportMultiplier'
p324
F0
sS'ssBall'
p325
F6
sS'vesselPosTurb'
p326
F2
sS'ring_mass_factor'
p327
F1
sS'wave_height'
p328
F10.800000000000001
sS'cleanWatAct404'
p329
F100000
sS'anchor'
p330
I0
sS'estEnMFac'
p331
F0.040000000000000001
sS'gearbox_mass_cost_coeff'
p332
F17.399999999999999
sS'chord_in'
p333
g7
(g8
(I0
tS'b'
tRp334
(I1
(I5
tg48
I00
S'gfffff\x12@\rnk\x0b\xcf\xab\x12@r\xe0\xd5rg\xf6\x17@t\xc8\xb4\xe7\x15\x10\x08@ \r\xe0-\x90\xa0\xb8?'
tbsS'precurve_in'
p335
g7
(g8
(I0
tS'b'
tRp336
(I1
(I5
tg48
I00
S'\x00\x00\x00\x00\x00\x00\x00\x80\x97\xcc\xb1\xbc\xab\x1e\xa0\xbf\x11\x02\xf2%Tp\xc6\xbf\xc5\xd5\x86\xdf>1\xeb\xbfU\x84\x9b\x8c*\xd3\x18\xc0'
tbsS'catLengFac'
p337
F0.040000000000000001
sS'Myb_damage'
p338
g7
(g8
(I0
tS'b'
tRp339
(I1
(I51
tg48
I00
S'\x11\xea-\x81\x99\x97q=\x11\xea-\x81\x99\x97q=\x11\xea-\x81\x99\x97q=\x11\xea-\x81\x99\x97q=\x11\xea-\x81\x99\x97q=\x11\xea-\x81\x99\x97q=\x11\xea-\x81\x99\x97q=\x11\xea-\x81\x99\x97q=\x11\xea-\x81\x99\x97q=\x11\xea-\x81\x99\x97q=\x11\xea-\x81\x99\x97q=\x11\xea-\x81\x99\x97q=\x11\xea-\x81\x99\x97q=\x11\xea-\x81\x99\x97q=\x11\xea-\x81\x99\x97q=\x11\xea-\x81\x99\x97q=\x11\xea-\x81\x99\x97q=\x11\xea-\x81\x99\x97q=\x11\xea-\x81\x99\x97q=\x11\xea-\x81\x99\x97q=\x11\xea-\x81\x99\x97q=\x11\xea-\x81\x99\x97q=\x11\xea-\x81\x99\x97q=\x11\xea-\x81\x99\x97q=\x11\xea-\x81\x99\x97q=\x11\xea-\x81\x99\x97q=\x11\xea-\x81\x99\x97q=\x11\xea-\x81\x99\x97q=\x11\xea-\x81\x99\x97q=\x11\xea-\x81\x99\x97q=\x11\xea-\x81\x99\x97q=\x11\xea-\x81\x99\x97q=\x11\xea-\x81\x99\x97q=\x11\xea-\x81\x99\x97q=\x11\xea-\x81\x99\x97q=\x11\xea-\x81\x99\x97q=\x11\xea-\x81\x99\x97q=\x11\xea-\x81\x99\x97q=\x11\xea-\x81\x99\x97q=\x11\xea-\x81\x99\x97q=\x11\xea-\x81\x99\x97q=\x11\xea-\x81\x99\x97q=\x11\xea-\x81\x99\x97q=\x11\xea-\x81\x99\x97q=\x11\xea-\x81\x99\x97q=\x11\xea-\x81\x99\x97q=\x11\xea-\x81\x99\x97q=\x11\xea-\x81\x99\x97q=\x11\xea-\x81\x99\x97q=\x11\xea-\x81\x99\x97q=\x11\xea-\x81\x99\x97q='
tbsS'offset_stiffener_spacing'
p340
g7
(g8
(I0
tS'b'
tRp341
(I1
(I5
tg11
I00
S'\xef\x8c\xa1*\x15\x1f\x0b@w\x97\x0b\x1cvt>@\xde\xe0$\x9e\x94~J@$:\x14\x84z\r*@\x12m\x0b\xed\x9d\xa1/@'
tbsS'gamma_freq'
p342
F1.1000000000000001
sS'hss_mass'
p343
F1492.45
sS'placeTP'
p344
F3
sS'nac_mass'
p345
F334527.1875
sS'buryRate'
p346
F125
sS'main_ballast_heave_box_height'
p347
g13
(g14
S'V\x84\xda\xb7\xb2b\xfe?'
tRp348
sS'max_survival_heel'
p349
F15
sS'shearExp'
p350
F0.11
sS'outConShelfLease'
p351
F1000000
sS'addLocPerm'
p352
F200000
sS'project_lifetime'
p353
F20
sS'hvac_mass'
p354
F1000
sS'offset_stiffener_flange_width'
p355
g7
(g8
(I0
tS'b'
tRp356
(I1
(I5
tg11
I00
S'X\x83(\x1cL)\xe1?\xc7\xd3),,\xd6\xa8?\x97\xe8~Y\xd0\xee\xd8?\x8d7\x83\xc4\x91H\xc5?5h\x98+k\xb7\xed?'
tbsS'nCrane600'
p357
F0
sS'installStrategy'
p358
I0
sS'distPort'
p359
F90
sS'removeHamJack'
p360
F4
sS'mtransCR'
p361
F3230
sS'boltNacelle1'
p362
F7
sS'mpileCR'
p363
F2250
sS'boltNacelle3'
p364
F7
sS'boltNacelle2'
p365
F7
sS'hubloss'
p366
I01
sS'cab1TurbInterCR'
p367
F8410
sS'bearing_number'
p368
I2
sS'loading'
p369
S'hydrostatic'
p370
sS'lower_ring_pontoons_int'
p371
g13
(g14
S'\x00\x00\x00\x00\x00\x00\x00\x00'
tRp372
sS'main_stiffener_web_height'
p373
g7
(g8
(I0
tS'b'
tRp374
(I1
(I5
tg11
I00
S'\x80\x12\x1a$\xe2:\xdd? \xb1f\xb3\x7f\xff\xef?\xf7\xa4?[i"\xd1?P\xf0(`\x95\x90\xe3?_mD*\x94\xea\x86?'
tbsS'expVoltage'
p375
F220
sS'theta_in'
p376
g7
(g8
(I0
tS'b'
tRp377
(I1
(I5
tg48
I00
S'\x00\x00\x00\x00\x00\x00-@9\xb4\xc8v\xbe\x9f*@L7\x89A`\xe5\x1a@<r\x8e\x14\xc5X\xa1\xbf\x84l\xe7\xfb\xa9\xf1\xa2\xbf'
tbsS'controls_cost_base'
p378
g7
(g8
(I0
tS'b'
tRp379
(I1
(I2
tg14
I00
S'\x00\x00\x00\x00\x00\x17\xe1@\x00\x00\x00\x00\x80K\xeb@'
tbsS'fairlead_offset_from_shell'
p380
F6.0004865405187147
sS'rna_weightM'
p381
I01
sS'shuntCR'
p382
F35000
sS'dockRate'
p383
F3000
sS'subsVessPos'
p384
F6
sS'civilWork'
p385
F40000
sS'towerInstallMethod'
p386
I0
sS'migBirdAct'
p387
F500000
sS'fairlead_support_wall_thickness'
p388
g13
(g14
S"\x91\x18\xde'^\t\x93?"
tRp389
sS'main_ballast_heave_box_diameter'
p390
g13
(g14
S'\xc5\xf9\x02\x11~^\x1d@'
tRp391
sS'cabDrillDist'
p392
F500
sS'topAssemblyFac'
p393
F0.074999999999999997
sS'fairlead_support_outer_diameter'
p394
g13
(g14
S's\xf0\x17K\xf3\xff#@'
tRp395
sS'interConVolt'
p396
F345
sS'offset_bulkhead_thickness'
p397
g7
(g8
(I0
tS'b'
tRp398
(I1
(I6
tg100
I00
S'\x9a\x99\x99\x99\x99\x99\xa9?\x9a\x99\x99\x99\x99\x99\xa9?\x00\x00\x00\x00\x00\x00\x00\x00\x00\x00\x00\x00\x00\x00\x00\x00\x00\x00\x00\x00\x00\x00\x00\x00\x9a\x99\x99\x99\x99\x99\xa9?'
tbsS'controls_esc'
p399
F1.5
sS'm_damage'
p400
F10
sS'shell_mass_factor'
p401
F1
sS'tower_mass_cost_coeff'
p402
F3.2000000000000002
sS'nBlades'
p403
I3
sS'expCabMass'
p404
F71.900000000000006
sS'subsPileCR'
p405
F2250
sS'wharfRate'
p406
F2.75
sS'Rhub'
p407
F1.125
sS'vs_electronics_mass_cost_coeff'
p408
F26.5
sS'tower_outfitting_factor'
p409
F1.0700000000000001
sS'scourMat'
p410
F250000
sS'laydownCR'
p411
F0.25
sS'hub_assemblyCostMultiplier'
p412
F0
sS'anchor_type'
p413
S'suctionpile'
p414
sS'jlatticeA'
p415
F26
sS'drivetrainType'
p416
I0
sS'pitch_extreme'
p417
F0
sS'main_wall_thickness'
p418
g7
(g8
(I0
tS'b'
tRp419
(I1
(I6
tg11
I00
S'\x89b\xc3+\xbb:\xaa?\x82\x19\nsD\x8b\xaf?)\xb6Ah\x12z\xae?\xd3[Gc\x12V\xa4?\x1d\xb7\xac]\xc3\xde\xa6?\x9eq\xe6\xbe\xce\t\xae?'
tbsS'mean_current_speed'
p420
F0
sS'nac_cm'
p421
g7
(g8
(I0
tS'b'
tRp422
(I1
(I3
tg48
I00
S'\x85\xebQ\xb8\x1e\x85\x05@\x00\x00\x00\x00\x00\x00\x00\x00333333\x03@'
tbsS'subsTopDes'
p423
F4500000
sS'moorLoadout'
p424
F5
sS'fairlead'
p425
g13
(g14
S'u\xbe\xae\x8e\xae\x8b\x1f@'
tRp426
sS'tower_section_height'
p427
g7
(g8
(I0
tS'b'
tRp428
(I1
(I5
tg100
I00
S'\x00\x00\x00\x00\x00\x00$@\x00\x10\xaeG\xe1z\x84?\xc3\xf5(\\\x8fBJ@\xcc\xcc\xcc\xcc\xcc\x8cJ@\x00)\\\x8f\xc2\xf5\n@'
tbsS'navStudyProj'
p429
F250000
sS'buryFac'
p430
F0.10000000000000001
sS'tapered_col_cost_rate'
p431
F4720
sS'cab2CR'
p432
F202.78800000000001
sS'air_density'
p433
F1.198
sS'offset_section_height'
p434
g7
(g8
(I0
tS'b'
tRp435
(I1
(I5
tg11
I00
S'cr\xf5\xce,\x9d\xee?w\x00\xad\xac#C\xfc?<\t\xcc\xf2E\xfe2@\xbaQ\xe8\xb6>\x0f\xd8?0\xbaq\xd5\xde7\x17@'
tbsS'strain_ult_te'
p436
F0.0050000000000000001
sS'turbine_overheadCostMultiplier'
p437
F0
sS'placePiles'
p438
F12
sS'main_permanent_ballast_height'
p439
g13
(g14
S'\xad\xf4^(E\xac\x13@'
tRp440
sS'diveTeamDR'
p441
F3200
sS'arrayY'
p442
F9
sS'bedplate_mass'
p443
F93090.600000000006
sS'mooring_line_length'
p444
g13
(g14
S'\xfc`i\x821\x9a\xa6@'
tRp445
sS'wind_reference_speed'
p446
F11
sS'control_maxOmega'
p447
F8.887659696962098
sS'crane'
p448
I00
sS'hub_mass_cost_coeff'
p449
F3.7999999999999998
sS'operational_heel'
p450
F6
sS'removeHamMono'
p451
F2
sS'connection_ratio_max'
p452
F0.25
sS'hss_mass_cost_coeff'
p453
F8.25
sS'spMoorCheck'
p454
F16
sS'seaSpreadMob'
p455
F4500000
sS'spinner_mass_cost_coeff'
p456
F23
sS'pileSpreadDR'
p457
F2500
sS'lss_mass'
p458
F31257.299999999999
sS'mooring_lines_per_connection'
p459
g13
(g14
S'\x00\x00\x00\x00\x00\x00\x00@'
tRp460
sS'anchor_radius'
p461
g13
(g14
S'nfjM\x14\xd8\xa5@'
tRp462
sS'pontoon_outer_diameter'
p463
g13
(g14
S'\xd4\x8b\xe2\x9fO\xd2!@'
tRp464
sS'moorTimeFac'
p465
F0.0050000000000000001
sS'shorePullIn'
p466
F96
sS'natHisPresAct'
p467
F250000
sS'scrapVal'
p468
F0
sS'mooring_cost_rate'
p469
F1.1000000000000001
sS'bedplate_mass_cost_coeff'
p470
F4.5
sS'nu'
p471
F0.26000000000000001
sS'arrCab2Mass'
p472
F21.853999999999999
sS'E'
F200000000000
sS'cab2CurrRating'
p473
F340
sS'boltTower'
p474
F7
sS'cabLoadout'
p475
F14
sS'subsPullIn'
p476
F48
sS'vesselPosJack'
p477
F8
sS'nacelle_assemblyCostMultiplier'
p478
F0
sS'install_contingency'
p479
F0.29999999999999999
sS'mooring_type'
p480
S'chain'
p481
sS'decomDiscRate'
p482
F0.029999999999999999
s(lp483
(lp484
S'fairlead'
p485
aF0
aF20
aa(lp486
S'fairlead_support_wall_thickness'
p487
aF0.001
aF1
aa(lp488
S'fairlead_support_outer_diameter'
p489
aF0.10000000000000001
aF10
aa(lp490
S'main_freeboard'
p491
aF0
aF50
aa(lp492
S'main_section_height'
p493
aF0.10000000000000001
aF50
aa(lp494
S'main_outer_diameter'
p495
aF2.1000000000000001
aF40
aa(lp496
S'main_wall_thickness'
p497
aF0.001
aF0.5
aa(lp498
S'main_ballast_heave_box_diameter'
p499
aF0
aF50
aa(lp500
S'main_ballast_heave_box_height'
p501
aF0
aF20
aa(lp502
S'main_ballast_heave_box_location'
p503
aF0
aF1
aa(lp504
S'offset_freeboard'
p505
aF2
aF15
aa(lp506
S'offset_section_height'
p507
aF0.10000000000000001
aF50
aa(lp508
S'offset_outer_diameter'
p509
aF1.1000000000000001
aF40
aa(lp510
S'offset_wall_thickness'
p511
aF0.001
aF0.5
aa(lp512
S'offset_ballast_heave_box_diameter'
p513
aF0
aF50
aa(lp514
S'offset_ballast_heave_box_height'
p515
aF0
aF20
aa(lp516
S'offset_ballast_heave_box_location'
p517
aF0
aF1
aa(lp518
S'pontoon_outer_diameter'
p519
aF1
aF10
aa(lp520
S'pontoon_wall_thickness'
p521
aF0.01
aF1
aa(lp522
S'main_pontoon_attach_lower'
p523
aF0
aF0.5
aa(lp524
S'main_pontoon_attach_upper'
p525
aF0.5
aF1
aa(lp526
S'mooring_line_length'
p527
aF200
aF3000
aa(lp528
S'anchor_radius'
p529
aF100
aF5000
aa(lp530
S'mooring_diameter'
p531
aF0.050000000000000003
aF2
aa(lp532
S'main_permanent_ballast_height'
p533
aF0.10000000000000001
aF50
aa(lp534
S'main_stiffener_web_height'
p535
aF0.01
aF1
aa(lp536
S'main_stiffener_web_thickness'
p537
aF0.001
aF0.5
aa(lp538
S'main_stiffener_flange_width'
p539
aF0.01
aF5
aa(lp540
S'main_stiffener_flange_thickness'
p541
aF0.001
aF0.5
aa(lp542
S'main_stiffener_spacing'
p543
aF0.10000000000000001
aF100
aa(lp544
S'offset_stiffener_web_height'
p545
aF0.01
aF1
aa(lp546
S'offset_stiffener_web_thickness'
p547
aF0.001
aF0.5
aa(lp548
S'offset_stiffener_flange_width'
p549
aF0.01
aF5
aa(lp550
S'offset_stiffener_flange_thickness'
p551
aF0.001
aF0.5
aa(lp552
S'offset_stiffener_spacing'
p553
aF0.10000000000000001
aF100
aa(lp554
S'offset_permanent_ballast_height'
p555
aF0.10000000000000001
aF50
aa(lp556
S'radius_to_offset_column'
p557
aF5
aF100
aa(lp558
(lp559
S'tow.height_constraint'
p560
aF-0.01
aF0.01
aNaa(lp561
S'main.draft'
p562
aF0
aF20
aNaa(lp563
S'off.draft'
p564
aF0
aF20
aNaa(lp565
S'main.draft_depth_ratio'
p566
aNaF0.90000000000000002
aNaa(lp567
S'off.draft_depth_ratio'
p568
aNaF0.90000000000000002
aNaa(lp569
S'main.wave_height_freeboard_ratio'
p570
aNaF1
aNaa(lp571
S'off.wave_height_freeboard_ratio'
p572
aNaF1
aNaa(lp573
S'off.fairlead_draft_ratio'
p574
aF0
aF20
aNaa(lp575
S'main_offset_spacing'
p576
aF1
aNaNaa(lp577
S'main.manufacturability'
p578
aF0
aNaNaa(lp579
S'main.weldability'
p580
aNaF0
aNaa(lp581
S'off.manufacturability'
p582
aF0
aNaNaa(lp583
S'off.weldability'
p584
aNaF0
aNaa(lp585
S'tower_transition_buffer'
p586
aF-1
aF1
aNaa(lp587
S'nacelle_transition_buffer'
p588
aF0
aNaNaa(lp589
S'offset_freeboard_heel_margin'
p590
aF0
aNaNaa(lp591
S'offset_draft_heel_margin'
p592
aF0
aF20
aNaa(lp593
S'axial_unity'
p594
aF0
aF1
aNaa(lp595
S'mooring_length_max'
p596
aNaF1
aNaa(lp597
S'main.flange_spacing_ratio'
p598
aNaF1
aNaa(lp599
S'main.stiffener_radius_ratio'
p600
aNaF0.5
aNaa(lp601
S'main.flange_compactness'
p602
aF1
aNaNaa(lp603
S'main.web_compactness'
p604
aF1
aNaNaa(lp605
S'main.axial_local_api'
p606
aNaF1
aNaa(lp607
S'main.axial_general_api'
p608
aNaF1
aNaa(lp609
S'main.external_local_api'
p610
aNaF1
aNaa(lp611
S'main.external_general_api'
p612
aNaF1
aNaa(lp613
S'off.flange_spacing_ratio'
p614
aNaF1
aNaa(lp615
S'off.stiffener_radius_ratio'
p616
aNaF0.5
aNaa(lp617
S'off.flange_compactness'
p618
aF1
aNaNaa(lp619
S'off.web_compactness'
p620
aF1
aNaNaa(lp621
S'off.axial_local_api'
p622
aNaF1
aNaa(lp623
S'off.axial_general_api'
p624
aNaF1
aNaa(lp625
S'off.external_local_api'
p626
aNaF1
aNaa(lp627
S'off.external_general_api'
p628
aNaF1
aNaa(lp629
S'pontoon_stress'
p630
aNaF1
aNaa(lp631
S'tower_stress'
p632
aNaF1
aNaa(lp633
S'tower_shell_buckling'
p634
aNaF1
aNaa(lp635
S'tower_global_buckling'
p636
aNaF1
aNaa(lp637
S'main_stress'
p638
aNaF1
aNaa(lp639
S'main_shell_buckling'
p640
aNaF1
aNaa(lp641
S'main_global_buckling'
p642
aNaF1
aNaa(lp643
S'offset_stress'
p644
aNaF1
aNaa(lp645
S'offset_shell_buckling'
p646
aNaF1
aNaa(lp647
S'offset_global_buckling'
p648
aNaF1
aNaa(lp649
S'variable_ballast_height_ratio'
p650
aF0
aF1
aNaa(lp651
S'variable_ballast_mass'
p652
aF0
aNaNaa(lp653
S'metacentric_height'
p654
aF0.10000000000000001
aNaNaa(lp655
S'offset_force_ratio'
p656
aNaF1
aNaa(lp657
S'heel_moment_ratio'
p658
aNaF1
aNaa(lp659
S'period_margin_low'
p660
aNaF1
aNaa(lp661
S'period_margin_high'
p662
aF1
aNaNaa(lp663
S'Pn_margin'
p664
aNaF1
aNaa(lp665
S'P1_margin'
p666
aNaF1
aNaa(lp667
S'Pn_margin_cfem'
p668
aNaF1
aNaa(lp669
S'P1_margin_cfem'
p670
aNaF1
aNaa(lp671
S'rotor_strain_sparU'
p672
aF-1
aNaNaa(lp673
S'rotor_strain_sparL'
p674
aNaF1
aNaa(lp675
S'rotor_strain_teU'
p676
aF-1
aNaNaa(lp677
S'rotor_strain_teL'
p678
aNaF1
aNaa(lp679
S'rotor_buckling_sparU'
p680
aNaF1
aNaa(lp681
S'rotor_buckling_sparL'
p682
aNaF1
aNaa(lp683
S'rotor_buckling_teU'
p684
aNaF1
aNaa(lp685
S'rotor_buckling_teL'
p686
aNaF1
aNaa(lp687
S'rotor_damage_sparU'
p688
aNaF0
aNaa(lp689
S'rotor_damage_sparL'
p690
aNaF0
aNaa(lp691
S'rotor_damage_teU'
p692
aNaF0
aNaa(lp693
S'rotor_damage_teL'
p694
aNaF0
aNaa(lp695
S'ground_clearance'
p696
aF20
aNaNaa(S'total_cost'
p697
F1.0000000000000001e-09
tp698
S'NM'
p699
t.