((dp1
S'groutSpreadDR'
p2
F3000
sS'generator_mass'
p3
F16699.849999999999
sS'turbine_profitMultiplier'
p4
F0
sS'prepGripperJack'
p5
F8
sS'tpCover'
p6
F1.5
sS'main_stiffener_flange_width'
p7
cnumpy.core.multiarray
_reconstruct
p8
(cnumpy
ndarray
p9
(I0
tS'b'
tRp10
(I1
(I5
tcnumpy
dtype
p11
(S'f8'
I0
I1
tRp12
(I3
S'<'
NNNI-1
I-1
I0
tbI00
S'BI\xaeG\xe1z\x84?=a\x8f\x01\xe1\xe7\x04@{\x14\xaeG\xe1z\x84?\xa0r#\xba\x01\xca\xef?\xcc\x0c\xc8\xd3\xdf\xee\xde?'
tbsS'cross_attachment_pontoons_int'
p13
cnumpy.core.multiarray
scalar
p14
(g11
(S'f8'
I0
I1
tRp15
(I3
S'<'
NNNI-1
I-1
I0
tbS'\x00\x00\x00\x00\x00\x00\x00\x00'
tRp16
sS'faaPlan'
p17
F10000
sS'main_section_height'
p18
g8
(g9
(I0
tS'b'
tRp19
(I1
(I5
tg12
I00
S"0a\xe8\xee*\xfb'@8\xb7n\xb3\xfb\xf6\xf8?f{0\xc2\xc0|\x1b@,u\x00O4\xd4&@\xe0\xff$M.C'@"
tbsS'transformer_mass'
p20
F1000
sS'otherAncillary'
p21
F3000000
sS'precurve_tip'
p22
F0
sS'jtransCR'
p23
F4500
sS'offset_buoyancy_tank_diameter'
p24
g14
(g15
S'Qv|cM\xa3$@'
tRp25
sS'medVoltSG'
p26
F500000
sS'generator_mass_cost_coeff'
p27
F17.43
sS'jpileL'
p28
F47.5
sS'plantComm'
p29
F0.01
sS'subsLoad'
p30
F60
sS'jpileD'
p31
F1.6000000000000001
sS'capital_cost_year_4'
p32
F0
sS'main_bearing_mass'
p33
F4865.7049999999999
sS'main_freeboard'
p34
g14
(g15
S'\x05\x98\xbb\xcbp\xfd=@'
tRp35
sS'capital_cost_year_5'
p36
F0
sS'material_density'
p37
F7850
sS'dynCabFac'
p38
F2
sS'cab1CurrRating'
p39
F300
sS'crane600DR'
p40
F5000
sS'ring_mass_factor'
p41
F1
sS'arrVoltage'
p42
F33
sS'elec_connec_cost_esc'
p43
F1.5
sS'gearbox_mass'
p44
F30237.599999999999
sS'construction_insurance'
p45
F0.01
sS'cab2SubsInterCR'
p46
F19815
sS'tax_rate'
p47
F0.40000000000000002
sS'presweep_in'
p48
g8
(g9
(I0
tS'b'
tRp49
(I1
(I5
tg11
(S'f8'
I0
I1
tRp50
(I3
S'<'
NNNI-1
I-1
I0
tbI00
S'\x00\x00\x00\x00\x00\x00\x00\x00\x00\x00\x00\x00\x00\x00\x00\x00\x00\x00\x00\x00\x00\x00\x00\x00\x00\x00\x00\x00\x00\x00\x00\x00\x00\x00\x00\x00\x00\x00\x00\x00'
tbsS'permanent_ballast_density'
p51
F4492
sS'expCabLoad'
p52
F24
sS'groutSpreadMob'
p53
F1000000
sS'machine_rating'
p54
F10000000
sS'socEconStudyMet'
p55
F500000
sS'cleanWatAct402'
p56
F100000
sS'mpvRentalDR'
p57
F72000
sS'distAtoS'
p58
F90
sS'cover_mass'
p59
F1000
sS'lower_attachment_pontoons_int'
p60
g14
(g15
S'\x00\x00\x00\x00\x00\x00\xf0?'
tRp61
sS'usecd'
p62
I01
sS'radius_to_offset_column'
p63
g14
(g15
S'\x1cf\xfdb\x11\xebJ@'
tRp64
sS'surfLayRate'
p65
F375
sS'physResStudyProj'
p66
F500000
sS'seaSpreadDR'
p67
F165000
sS'z_offset'
p68
F0
sS'prepAA'
p69
F168
sS'number_of_mooring_connections'
p70
I3
sS'material_cost_rate'
p71
F1.1000000000000001
sS'dynamic_amplication_tip_deflection'
p72
F1.3500000000000001
sS'arrCab1Mass'
p73
F20.384
sS'turbine_assemblyCostMultiplier'
p74
F0
sS'turbInstallMethod'
p75
I0
sS'tower_assemblyCostMultiplier'
p76
F0
sS'column_mass_factor'
p77
F1.05
sS'offset_outer_diameter'
p78
g8
(g9
(I0
tS'b'
tRp79
(I1
(I6
tg12
I00
S"\xcc\xd4\xfbJ4\xff'@\xc4\xf17\xe57M:@\x0e\x0c\xb6\xa1\xca\xb6$@4\xc3\xbc0\xa7r!@s\t\xaf\xdc\xea\xf1\x0e@M;z1\xb4\x94\xfa?"
tbsS'yield_stress'
p80
F345000000
sS'rstar_damage'
p81
g8
(g9
(I0
tS'b'
tRp82
(I1
(I51
tg50
I00
S'\x00\x00\x00\x00\x00\x00\x00\x00{\x14\xaeG\xe1z\x94?{\x14\xaeG\xe1z\xa4?\xb8\x1e\x85\xebQ\xb8\xae?{\x14\xaeG\xe1z\xb4?\x9a\x99\x99\x99\x99\x99\xb9?\xb8\x1e\x85\xebQ\xb8\xbe?\xecQ\xb8\x1e\x85\xeb\xc1?{\x14\xaeG\xe1z\xc4?\n\xd7\xa3p=\n\xc7?\x9a\x99\x99\x99\x99\x99\xc9?)\\\x8f\xc2\xf5(\xcc?\xb8\x1e\x85\xebQ\xb8\xce?\xa4p=\n\xd7\xa3\xd0?\xecQ\xb8\x1e\x85\xeb\xd1?333333\xd3?{\x14\xaeG\xe1z\xd4?\xc3\xf5(\\\x8f\xc2\xd5?\n\xd7\xa3p=\n\xd7?R\xb8\x1e\x85\xebQ\xd8?\x9a\x99\x99\x99\x99\x99\xd9?\xe1z\x14\xaeG\xe1\xda?)\\\x8f\xc2\xf5(\xdc?q=\n\xd7\xa3p\xdd?\xb8\x1e\x85\xebQ\xb8\xde?\x00\x00\x00\x00\x00\x00\xe0?\xa4p=\n\xd7\xa3\xe0?H\xe1z\x14\xaeG\xe1?\xecQ\xb8\x1e\x85\xeb\xe1?\x8f\xc2\xf5(\\\x8f\xe2?333333\xe3?\xd7\xa3p=\n\xd7\xe3?{\x14\xaeG\xe1z\xe4?\x1f\x85\xebQ\xb8\x1e\xe5?\xc3\xf5(\\\x8f\xc2\xe5?gfffff\xe6?\n\xd7\xa3p=\n\xe7?\xaeG\xe1z\x14\xae\xe7?R\xb8\x1e\x85\xebQ\xe8?\xf6(\\\x8f\xc2\xf5\xe8?\x9a\x99\x99\x99\x99\x99\xe9?>\n\xd7\xa3p=\xea?\xe1z\x14\xaeG\xe1\xea?\x85\xebQ\xb8\x1e\x85\xeb?)\\\x8f\xc2\xf5(\xec?\xcd\xcc\xcc\xcc\xcc\xcc\xec?q=\n\xd7\xa3p\xed?\x15\xaeG\xe1z\x14\xee?\xb8\x1e\x85\xebQ\xb8\xee?\\\x8f\xc2\xf5(\\\xef?\x00\x00\x00\x00\x00\x00\xf0?'
tbsS'precone'
p83
F4
sS'nacelle_transportMultiplier'
p84
F0
sS'Mxb_damage'
p85
g8
(g9
(I0
tS'b'
tRp86
(I1
(I51
tg50
I00
S'\x11\xea-\x81\x99\x97q=\x11\xea-\x81\x99\x97q=\x11\xea-\x81\x99\x97q=\x11\xea-\x81\x99\x97q=\x11\xea-\x81\x99\x97q=\x11\xea-\x81\x99\x97q=\x11\xea-\x81\x99\x97q=\x11\xea-\x81\x99\x97q=\x11\xea-\x81\x99\x97q=\x11\xea-\x81\x99\x97q=\x11\xea-\x81\x99\x97q=\x11\xea-\x81\x99\x97q=\x11\xea-\x81\x99\x97q=\x11\xea-\x81\x99\x97q=\x11\xea-\x81\x99\x97q=\x11\xea-\x81\x99\x97q=\x11\xea-\x81\x99\x97q=\x11\xea-\x81\x99\x97q=\x11\xea-\x81\x99\x97q=\x11\xea-\x81\x99\x97q=\x11\xea-\x81\x99\x97q=\x11\xea-\x81\x99\x97q=\x11\xea-\x81\x99\x97q=\x11\xea-\x81\x99\x97q=\x11\xea-\x81\x99\x97q=\x11\xea-\x81\x99\x97q=\x11\xea-\x81\x99\x97q=\x11\xea-\x81\x99\x97q=\x11\xea-\x81\x99\x97q=\x11\xea-\x81\x99\x97q=\x11\xea-\x81\x99\x97q=\x11\xea-\x81\x99\x97q=\x11\xea-\x81\x99\x97q=\x11\xea-\x81\x99\x97q=\x11\xea-\x81\x99\x97q=\x11\xea-\x81\x99\x97q=\x11\xea-\x81\x99\x97q=\x11\xea-\x81\x99\x97q=\x11\xea-\x81\x99\x97q=\x11\xea-\x81\x99\x97q=\x11\xea-\x81\x99\x97q=\x11\xea-\x81\x99\x97q=\x11\xea-\x81\x99\x97q=\x11\xea-\x81\x99\x97q=\x11\xea-\x81\x99\x97q=\x11\xea-\x81\x99\x97q=\x11\xea-\x81\x99\x97q=\x11\xea-\x81\x99\x97q=\x11\xea-\x81\x99\x97q=\x11\xea-\x81\x99\x97q=\x11\xea-\x81\x99\x97q='
tbsS'mooring_diameter'
p87
g14
(g15
S'\xb4\xc2\xa8v\xa9\xaf\xcd?'
tRp88
sS'hub_mass'
p89
F105520
sS'cab1CR'
p90
F185.88900000000001
sS'cd_usr'
p91
Finf
sS'main_buoyancy_tank_height'
p92
g14
(g15
S'\x02\xc1\x03\x90\x109\xf9?'
tRp93
sS'buryDepth'
p94
F2
sS'nac_I'
p95
g8
(g9
(I0
tS'b'
tRp96
(I1
(I6
tg50
I00
S'\x00\x00\x00`\xb4[\\A\x00\x00\x00\x8e\x82\ngA\x00\x00\x00\x8e\x82\ngA\x00\x00\x00\x00\x00\x00\x00\x00\x00\x00\x00\x00\x00\x00\x00\x00\x00\x00\x00\x00\x00\x00\x00\x00'
tbsS'monoFasten'
p97
F12
sS'tilt'
p98
F6
sS'nSector'
p99
I4
sS'offset_buoyancy_tank_location'
p100
g14
(g15
S',\xb0\xcc\xed\x94\x1c\xa6?'
tRp101
sS'tower_wall_thickness'
p102
g8
(g9
(I0
tS'b'
tRp103
(I1
(I5
tg11
(S'f8'
I0
I1
tRp104
(I3
S'<'
NNNI-1
I-1
I0
tbI00
S'\x90\xebQ\xb8\x1e\x85\xd3?@\\\x8f\xc2\xf5(\xcc?\x10\x00\x00\x00\x00\x00\xc0?\xc0\xf5(\\\x8f\xc2\xb5?\x80\x1e\x85\xebQ\xb8\xae?'
tbsS'offshore'
p105
I01
sS'substructure'
p106
I3
sS'interest_during_construction'
p107
F0.080000000000000002
sS'offset_stiffener_flange_thickness'
p108
g8
(g9
(I0
tS'b'
tRp109
(I1
(I5
tg12
I00
S'\xa8F\xbc\xcb\xb1\x11\xd3?\xc6\xa7\x01\x15\x9b\x0e\xdf?v\x02\xf0c;\x8d\xcc?\xfc\xa9\xf1\xd2MbP?23\xf0\x1c\xa4p\xc4?'
tbsS'placeMP'
p110
F3
sS'hubFraction'
p111
F0.023784901758014475
sS'feedStudy'
p112
F10000000
sS'preFEEDStudy'
p113
F5000000
sS'cableOptimizer'
p114
I00
sS'platforms_mass_cost_coeff'
p115
F8.6999999999999993
sS'hvac_mass_cost_coeff'
p116
F163.94999999999999
sS'upper_attachment_pontoons_int'
p117
g14
(g15
S'\x00\x00\x00\x00\x00\x00\x00\x00'
tRp118
sS'nepaEisMet'
p119
F2000000
sS'yaw_mass_cost_coeff'
p120
F11.01
sS'subsTopFab'
p121
F14500
sS'dummy_mass'
p122
F9.9999999999999998e-13
sS'elec_connec_machine_rating_cost_coeff'
p123
F40
sS'fixed_charge_rate'
p124
F0.12
sS'water_viscosity'
p125
F0.00088999999999999995
sS'spMoorCon'
p126
F20
sS'wind_reference_height'
p127
F119
sS'outfitting_cost_rate'
p128
F1.6500000000000001
sS'air_viscosity'
p129
F1.8099999999999999e-05
sS'shape_parameter'
p130
F0
sS'prepSemi'
p131
F12
sS'prepTow'
p132
F12
sS'control_Vout'
p133
F25
sS'max_taper_ratio'
p134
F0.40000000000000002
sS'hub_profitMultiplier'
p135
F0
sS'tower_overheadCostMultiplier'
p136
F0
sS'platforms_mass'
p137
F1000
sS'socEconStudyProj'
p138
F200000
sS'gust_stddev'
p139
I3
sS'boltRotor'
p140
F7
sS'wave_period_range_high'
p141
F20
sS'vs_electronics_mass'
p142
F1000
sS'inspectClear'
p143
F2
sS'teT_in'
p144
g8
(g9
(I0
tS'b'
tRp145
(I1
(I5
tg50
I00
S'\xf4(\xfb\x97\x18\x81\xa5?\xad\xb1B\x13!\x8a\xb0?\xaf\xbf\xedj\xe1\xd6\xab?Y\xc3\xb4`\x17}\x90?\xe24"\xc9\xe3Gl?'
tbsS'morison_mass_coefficient'
p146
F2
sS'seaSpreadMob'
p147
F4500000
sS'wind_bottom_height'
p148
F0
sS'wave_period_range_low'
p149
F2
sS'stateLease'
p150
F250000
sS'offset_permanent_ballast_height'
p151
g14
(g15
S'o\xaa\x99\xcf\\0\xd3?'
tRp152
sS'ssMoorCheck'
p153
F12
sS'main_stiffener_spacing'
p154
g8
(g9
(I0
tS'b'
tRp155
(I1
(I5
tg12
I00
S'\x96\xe8t\x9d}\xe1$@\x0f\rr\x11\x1f\x83"@\x08\xac\xba$\xb0\xd1)@\xae8\xa6X/j\x0b@\x96\xfee\xf7G\xa8:@'
tbsS'tower_outer_diameter'
p156
g8
(g9
(I0
tS'b'
tRp157
(I1
(I6
tg11
(S'f8'
I0
I1
tRp158
(I3
S'<'
NNNI-1
I-1
I0
tbI00
S'\x00\x00\x00\x00\x00\x00"@\x00\x00\x00\x00\x00\x00"@\x9a\x99\x99\x99\x99\x99 @\xa4p=\n\xd7\xa3\x1b@\x00\x00\x00\x00\x00\x00\x16@\x00\x00\x00\x00\x00\x00\x16@'
tbsS'conOpPlan'
p159
F1000000
sS'outfitting_mass_fraction'
p160
F0.059999999999999998
sS'capital_cost_year_2'
p161
F0.10000000000000001
sS'capital_cost_year_3'
p162
F0.10000000000000001
sS'capital_cost_year_0'
p163
F0.20000000000000001
sS'capital_cost_year_1'
p164
F0.59999999999999998
sS'G'
F79300000000
sS'fairlead_location'
p165
g14
(g15
S'j\x1f\xdf\x19@\x08\xcb?'
tRp166
sS'max_offset'
p167
F100
sS'control_minOmega'
p168
F6
sS'prepGripperMono'
p169
F1.5
sS'cabTerm'
p170
F5.5
sS'workSpace'
p171
F2000000
sS'main_bulkhead_thickness'
p172
g8
(g9
(I0
tS'b'
tRp173
(I1
(I6
tg158
I00
S'\x9a\x99\x99\x99\x99\x99\xa9?\x9a\x99\x99\x99\x99\x99\xa9?\x00\x00\x00\x00\x00\x00\x00\x00\x00\x00\x00\x00\x00\x00\x00\x00\x00\x00\x00\x00\x00\x00\x00\x00\x9a\x99\x99\x99\x99\x99\xa9?'
tbsS'vesselPosMono'
p174
F3
sS'boltBlade1'
p175
F3.5
sS'groutTP'
p176
F8
sS'boltBlade2'
p177
F3.5
sS'wind_beta'
p178
F0
sS'landConstruct'
p179
F7
sS'subsJackCR'
p180
F6250
sS'tiploss'
p181
I01
sS'hub_overheadCostMultiplier'
p182
F0
sS'control_pitch'
p183
F0
sS'azimuth_extreme'
p184
F0
sS'prepSpar'
p185
F18
sS'number_install_seasons'
p186
F1
sS'transformer_mass_cost_coeff'
p187
F26.5
sS'turbine_class'
p188
I0
sS'distInterCon'
p189
F3
sS'rivsnHarbsAct'
p190
F100000
sS'navStudyMet'
p191
F500000
sS'jackFasten'
p192
F20
sS'coastZoneManAct'
p193
F100000
sS'distPtoA'
p194
F90
sS'saPlan'
p195
F500000
sS'nCrane1000'
p196
F0
sS'bioResStudyMet'
p197
F1500000
sS'procurement_contingency'
p198
F0.050000000000000003
sS'jpileCR'
p199
F2250
sS'metTowCR'
p200
F11518
sS'jlatticeCR'
p201
F4680
sS'outer_cross_pontoons_int'
p202
g14
(g15
S'\x00\x00\x00\x00\x00\x00\x00\x00'
tRp203
sS'water_depth'
p204
F320
sS'control_tsr'
p205
F10.58
sS'VfactorPC'
p206
F0.69999999999999996
sS'levJack'
p207
F24
sS'pwrFac'
p208
F0.94999999999999996
sS'placeJack'
p209
F12
sS'upper_ring_pontoons_int'
p210
g14
(g15
S'\x00\x00\x00\x00\x00\x00\x00\x00'
tRp211
sS'main_stiffener_web_thickness'
p212
g8
(g9
(I0
tS'b'
tRp213
(I1
(I5
tg12
I00
S'\x02\xb0&\x89\xbc\xda\xb6?L\x90\xe2m\xad\xeb\xdf?\xb1Rp&\x07O\xc6?\xa2\x9el\x05\xf9\xde\xa4?M\xda\x19\xf7(\xe5\x9a?'
tbsS'endSpecAct'
p214
F500000
sS'AEP_loss_factor'
p215
F1
sS'prepHamJack'
p216
F2
sS'water_density'
p217
F1025
sS'arrayX'
p218
F9
sS'expSubsInterCR'
p219
F57500
sS'min_diameter_thickness_ratio'
p220
F120
sS'offset_wall_thickness'
p221
g8
(g9
(I0
tS'b'
tRp222
(I1
(I5
tg104
I00
S'4\\S\xc6\x95\xbd\xbc?\xedP\x96/gw\xc1?\xe1\x08WE\xa7\x1d\xa4?\xd2M;k\x1a\xba\x8e?\xfa\xee\xa7*\xdc\xed\x8e?'
tbsS'blade_mass_cost_coeff'
p223
F13.08
sS'turbFasten'
p224
F8
sS'hub_transportMultiplier'
p225
F0
sS'pitch_system_mass_cost_coeff'
p226
F22.91
sS'upendSpar'
p227
F36
sS'hub_I'
p228
g8
(g9
(I0
tS'b'
tRp229
(I1
(I6
tg50
I00
S'\x9eV\xe4\xeaZ\xe2\x13AGl\x9d\xa5\xf1\xda\x08AGl\x9d\xa5\xf1\xda\x08A\x00\x00\x00\x00\x00\x00\x00\x00\x00\x00\x00\x00\x00\x00\x00\x00\x00\x00\x00\x00\x00\x00\x00\x00'
tbsS'expCurrRating'
p230
F530
sS'turbulence_class'
p231
I1
sS'cover_mass_cost_coeff'
p232
F7.6100000000000003
sS'main_pontoon_attach_lower'
p233
g14
(g15
S'\nW\xee\xea\x9b\x9b\xb9?'
tRp234
sS'entranceExitRate'
p235
F0.52500000000000002
sS'lss_mass_cost_coeff'
p236
F12.6
sS'exCabFac'
p237
F0.10000000000000001
sS'moorSurvey'
p238
F4
sS'hub_height'
p239
F149
sS'offset_stiffener_web_height'
p240
g8
(g9
(I0
tS'b'
tRp241
(I1
(I5
tg12
I00
S'\x0e3\xeb\x0e\xf84\xc7?v,\xc3\x9f\x19\xba\xda?\xf2ho\x1ev3\xc1?{\x14\xaeG\xe1z\x84?\xbdr\xdeu\xe5#\xbc?'
tbsS'cabPullIn'
p242
F5.5
sS'craneMobDemob'
p243
F150000
sS'bladeLength'
p244
F96.700000000000003
sS'placeTop'
p245
F24
sS'discount_rate'
p246
F0.070000000000000007
sS'presweep_tip'
p247
F0
sS'gamma_fatigue'
p248
F1.7549999999999999
sS'tower_transportMultiplier'
p249
F0
sS'mptCR'
p250
F12500
sS'winchDR'
p251
F1000
sS'instScour'
p252
F6
sS'r_max_chord'
p253
g14
(g15
S'\x9b\xe6\x1d\xa7\xe8H\xce?'
tRp254
sS'ssMoorCon'
p255
F22
sS'bioResStudyProj'
p256
F500000
sS'placeTemplate'
p257
F4
sS'elecWork'
p258
F25000
sS'compRacks'
p259
F1000000
sS'distShore'
p260
F90
sS'bulkhead_mass_factor'
p261
F1
sS'elecCont'
p262
F0.29999999999999999
sS'cabSurveyCR'
p263
F240
sS'ssHeaveCR'
p264
F6250
sS'highVoltSG'
p265
F950000
sS'pitch_system_mass'
p266
F17004
sS'main_outer_diameter'
p267
g8
(g9
(I0
tS'b'
tRp268
(I1
(I6
tg12
I00
S'\xfd\xe9\xaa\xdd\xb9Q9@\x16\x83\x13&;\xc0\'@\xa2\x11v\x90Uk\x1d@\xe5|\xe7\x1f\x05\xa5$@\x178\x10`\x82\x91!@\x82\xbd\x01\x17g5"@'
tbsS'nacelleL'
p269
F-inf
sS'cab2TurbInterCR'
p270
F8615
sS'hamRate'
p271
F20
sS'nacelle_overheadCostMultiplier'
p272
F0
sS'crane1000DR'
p273
F8000
sS'nacelle_profitMultiplier'
p274
F0
sS'nacelleW'
p275
F-inf
sS'main_pontoon_attach_upper'
p276
g14
(g15
S'M\x9c\xd4\xd2\x9a\xad\xed?'
tRp277
sS'tower_buckling_length'
p278
F30
sS'substructCont'
p279
F0.29999999999999999
sS'control_Vin'
p280
F4
sS'turbCont'
p281
F0.29999999999999999
sS'wave_period'
p282
F9.8000000000000007
sS'prepHamMono'
p283
F2
sS'wakerotation'
p284
I01
sS'tower_profitMultiplier'
p285
F0
sS'main_stiffener_flange_thickness'
p286
g8
(g9
(I0
tS'b'
tRp287
(I1
(I5
tg12
I00
S'\xfc\xa9\xf1\xd2MbP?\x7f.\xcf\x08M{\xdc?X2%\xa75\x90\\?\x93\xeb\x14]\x9f4\xac?U\t\rS,\t\xc9?'
tbsS'nepaEisProj'
p288
F5000000
sS'pontoon_wall_thickness'
p289
g14
(g15
S't\xb3\xf2!\xf0N\x91?'
tRp290
sS'cabDrillCR'
p291
F3200
sS'physResStudyMet'
p292
F1500000
sS'main_buoyancy_tank_location'
p293
g14
(g15
S'y\x15\xb9\xed\xe0\xc6\xf1='
tRp294
sS'strain_ult_spar'
p295
F0.01
sS'expCabCR'
p296
F495.411
sS'base_hardware_cost_coeff'
p297
F0.69999999999999996
sS'annual_opex'
p298
F700000
sS'hub_cm'
p299
g8
(g9
(I0
tS'b'
tRp300
(I1
(I3
tg50
I00
S'ffffff\x1c\xc0\x00\x00\x00\x00\x00\x00\x00\x00\x00\x00\x00\x00\x00\x00\x06@'
tbsS'marMamProtAct'
p301
F500000
sS'sparT_in'
p302
g8
(g9
(I0
tS'b'
tRp303
(I1
(I5
tg50
I00
S'Xh\x82\xe1[b\xa0?\xfc\x8d\xa5=\x19\xa0\xa9?\xdcC!\x10\xd0\xcc\xb5?k\xcbD\xc9\xbc\xe8\xb3?~&\x13\xd1\x020\x88?'
tbsS'backUpGen'
p304
F1000000
sS'gamma_m'
p305
F1.1000000000000001
sS'gamma_n'
p306
F1
sS'number_of_offset_columns'
p307
I3
sS'yaw'
p308
F0
sS'gamma_f'
p309
F1.3500000000000001
sS'offset_freeboard'
p310
g14
(g15
S'\xad\x01K\xa9W\xde+@'
tRp311
sS'gamma_b'
p312
F1.1000000000000001
sS'bearings_mass_cost_coeff'
p313
F6.3499999999999996
sS'pileSpreadMob'
p314
F750000
sS'ballast_cost_rate'
p315
F0.10000000000000001
sS'yaw_mass'
p316
F11878.24
sS'number_of_turbines'
p317
I20
sS'downwind'
p318
I00
sS'spinner_mass'
p319
F1810.5
sS'main_buoyancy_tank_diameter'
p320
g14
(g15
S'\xb0\xfdd\n\xd5[\x1d@'
tRp321
sS'crane_cost'
p322
F0
sS'turbine_transportMultiplier'
p323
F0
sS'ssBall'
p324
F6
sS'vesselPosTurb'
p325
F2
sS'deaFixLeng'
p326
F0
sS'wave_height'
p327
F10.800000000000001
sS'cleanWatAct404'
p328
F100000
sS'anchor'
p329
I0
sS'estEnMFac'
p330
F0.040000000000000001
sS'gearbox_mass_cost_coeff'
p331
F17.399999999999999
sS'chord_in'
p332
g8
(g9
(I0
tS'b'
tRp333
(I1
(I5
tg50
I00
S'gfffff\x12@\rnk\x0b\xcf\xab\x12@r\xe0\xd5rg\xf6\x17@t\xc8\xb4\xe7\x15\x10\x08@ \r\xe0-\x90\xa0\xb8?'
tbsS'precurve_in'
p334
g8
(g9
(I0
tS'b'
tRp335
(I1
(I5
tg50
I00
S'\x00\x00\x00\x00\x00\x00\x00\x80\x97\xcc\xb1\xbc\xab\x1e\xa0\xbf\x11\x02\xf2%Tp\xc6\xbf\xc5\xd5\x86\xdf>1\xeb\xbfU\x84\x9b\x8c*\xd3\x18\xc0'
tbsS'catLengFac'
p336
F0.040000000000000001
sS'Myb_damage'
p337
g8
(g9
(I0
tS'b'
tRp338
(I1
(I51
tg50
I00
S'\x11\xea-\x81\x99\x97q=\x11\xea-\x81\x99\x97q=\x11\xea-\x81\x99\x97q=\x11\xea-\x81\x99\x97q=\x11\xea-\x81\x99\x97q=\x11\xea-\x81\x99\x97q=\x11\xea-\x81\x99\x97q=\x11\xea-\x81\x99\x97q=\x11\xea-\x81\x99\x97q=\x11\xea-\x81\x99\x97q=\x11\xea-\x81\x99\x97q=\x11\xea-\x81\x99\x97q=\x11\xea-\x81\x99\x97q=\x11\xea-\x81\x99\x97q=\x11\xea-\x81\x99\x97q=\x11\xea-\x81\x99\x97q=\x11\xea-\x81\x99\x97q=\x11\xea-\x81\x99\x97q=\x11\xea-\x81\x99\x97q=\x11\xea-\x81\x99\x97q=\x11\xea-\x81\x99\x97q=\x11\xea-\x81\x99\x97q=\x11\xea-\x81\x99\x97q=\x11\xea-\x81\x99\x97q=\x11\xea-\x81\x99\x97q=\x11\xea-\x81\x99\x97q=\x11\xea-\x81\x99\x97q=\x11\xea-\x81\x99\x97q=\x11\xea-\x81\x99\x97q=\x11\xea-\x81\x99\x97q=\x11\xea-\x81\x99\x97q=\x11\xea-\x81\x99\x97q=\x11\xea-\x81\x99\x97q=\x11\xea-\x81\x99\x97q=\x11\xea-\x81\x99\x97q=\x11\xea-\x81\x99\x97q=\x11\xea-\x81\x99\x97q=\x11\xea-\x81\x99\x97q=\x11\xea-\x81\x99\x97q=\x11\xea-\x81\x99\x97q=\x11\xea-\x81\x99\x97q=\x11\xea-\x81\x99\x97q=\x11\xea-\x81\x99\x97q=\x11\xea-\x81\x99\x97q=\x11\xea-\x81\x99\x97q=\x11\xea-\x81\x99\x97q=\x11\xea-\x81\x99\x97q=\x11\xea-\x81\x99\x97q=\x11\xea-\x81\x99\x97q=\x11\xea-\x81\x99\x97q=\x11\xea-\x81\x99\x97q='
tbsS'offset_buoyancy_tank_height'
p339
g14
(g15
S'\xea\xfa$}y`\xff?'
tRp340
sS'offset_stiffener_spacing'
p341
g8
(g9
(I0
tS'b'
tRp342
(I1
(I5
tg12
I00
S'\x8e\xbe\xac\x11\xc2\xdc\x02@\xe4.W\xaf\x81u>@\xc2\xcc3\x02\xd4qJ@\x002t\xbd\xd0\x01*@\xd2Z\xb1\x00\x13\x8d/@'
tbsS'gamma_freq'
p343
F1.1000000000000001
sS'hss_mass'
p344
F1492.45
sS'painting_cost_rate'
p345
F14.4
sS'placeTP'
p346
F3
sS'nac_mass'
p347
F401432.625
sS'buryRate'
p348
F125
sS'max_survival_heel'
p349
F15
sS'shearExp'
p350
F0.11
sS'outConShelfLease'
p351
F1000000
sS'addLocPerm'
p352
F200000
sS'project_lifetime'
p353
F20
sS'hvac_mass'
p354
F1000
sS'offset_stiffener_flange_width'
p355
g8
(g9
(I0
tS'b'
tRp356
(I1
(I5
tg12
I00
S"h\x0bnE3'\xe1?m\xf2\xb9\x87!\xc8\xa8?'PZ\xc7v$\xe3?{\x14\xaeG\xe1z\x84?\x04\t\x9ek=\x8a\xed?"
tbsS'nCrane600'
p357
F0
sS'installStrategy'
p358
I0
sS'distPort'
p359
F90
sS'fairlead_support_wall_thickness'
p360
g14
(g15
S'\xfc\xa9\xf1\xd2MbP?'
tRp361
sS'removeHamJack'
p362
F4
sS'labor_cost_rate'
p363
F1
sS'mtransCR'
p364
F3230
sS'boltNacelle1'
p365
F7
sS'mpileCR'
p366
F2250
sS'boltNacelle3'
p367
F7
sS'boltNacelle2'
p368
F7
sS'hubloss'
p369
I01
sS'cab1TurbInterCR'
p370
F8410
sS'bearing_number'
p371
I2
sS'offset_stiffener_web_thickness'
p372
g8
(g9
(I0
tS'b'
tRp373
(I1
(I5
tg12
I00
S'v98/\x99\xa8\xdf?6j\x95\x04\xae\xe0\xc3?\x97\xc8\xbf\x7f\x17sy?\xfc\xa9\xf1\xd2MbP?\xa6\xdf\xe8H\x9e\xc8\x97?'
tbsS'loading'
p374
S'hydrostatic'
p375
sS'lower_ring_pontoons_int'
p376
g14
(g15
S'\x00\x00\x00\x00\x00\x00\x00\x00'
tRp377
sS'main_stiffener_web_height'
p378
g8
(g9
(I0
tS'b'
tRp379
(I1
(I5
tg12
I00
S'VP\xd3sq\xad\xda?\x03\n}\x8b\xaf{\xa8?\xb6;$\x0e\xe1O\xcf?\xdf\xfeEh\xc8M\xdb?\xe1\x03\xff\xe680\x91?'
tbsS'expVoltage'
p380
F220
sS'controls_cost_base'
p381
g8
(g9
(I0
tS'b'
tRp382
(I1
(I2
tg50
I00
S'\x00\x00\x00\x00\x00\x17\xe1@\x00\x00\x00\x00\x80K\xeb@'
tbsS'fairlead_offset_from_shell'
p383
F6.0004865405187147
sS'rna_weightM'
p384
I01
sS'shuntCR'
p385
F35000
sS'dockRate'
p386
F3000
sS'subsVessPos'
p387
F6
sS'civilWork'
p388
F40000
sS'towerInstallMethod'
p389
I0
sS'migBirdAct'
p390
F500000
sS'max_draft'
p391
F20
sS'theta_in'
p392
g8
(g9
(I0
tS'b'
tRp393
(I1
(I5
tg50
I00
S'\x00\x00\x00\x00\x00\x00-@9\xb4\xc8v\xbe\x9f*@L7\x89A`\xe5\x1a@<r\x8e\x14\xc5X\xa1\xbf\x84l\xe7\xfb\xa9\xf1\xa2\xbf'
tbsS'cabDrillDist'
p394
F500
sS'topAssemblyFac'
p395
F0.074999999999999997
sS'fairlead_support_outer_diameter'
p396
g14
(g15
S'\x9a\x99\x99\x99\x99\x99\xb9?'
tRp397
sS'interConVolt'
p398
F345
sS'offset_bulkhead_thickness'
p399
g8
(g9
(I0
tS'b'
tRp400
(I1
(I6
tg158
I00
S'\x9a\x99\x99\x99\x99\x99\xa9?\x9a\x99\x99\x99\x99\x99\xa9?\x00\x00\x00\x00\x00\x00\x00\x00\x00\x00\x00\x00\x00\x00\x00\x00\x00\x00\x00\x00\x00\x00\x00\x00\x9a\x99\x99\x99\x99\x99\xa9?'
tbsS'controls_esc'
p401
F1.5
sS'm_damage'
p402
F10
sS'shell_mass_factor'
p403
F1
sS'tower_mass_cost_coeff'
p404
F3.2000000000000002
sS'nBlades'
p405
I3
sS'expCabMass'
p406
F71.900000000000006
sS'subsPileCR'
p407
F2250
sS'wharfRate'
p408
F2.75
sS'Rhub'
p409
F2.2999999999999998
sS'vs_electronics_mass_cost_coeff'
p410
F26.5
sS'tower_outfitting_factor'
p411
F1.0700000000000001
sS'scourMat'
p412
F250000
sS'laydownCR'
p413
F0.25
sS'hub_assemblyCostMultiplier'
p414
F0
sS'anchor_type'
p415
S'suctionpile'
p416
sS'jlatticeA'
p417
F26
sS'drivetrainType'
p418
I0
sS'pitch_extreme'
p419
F0
sS'main_wall_thickness'
p420
g8
(g9
(I0
tS'b'
tRp421
(I1
(I5
tg104
I00
S'\x02\xd8\xe2^gq\xac?\xbe\x10e\x86\xf0o\xae?H#[\xe4\xfb\x00\xa9?\xbc\x03\xb6c\xc7\x86\xa5?f\xbe\xe4\x1a\x1e%\xaa?'
tbsS'mean_current_speed'
p422
F0
sS'nac_cm'
p423
g8
(g9
(I0
tS'b'
tRp424
(I1
(I3
tg50
I00
S'\x85\xebQ\xb8\x1e\x85\x05@\x00\x00\x00\x00\x00\x00\x00\x00333333\x03@'
tbsS'subsTopDes'
p425
F4500000
sS'moorLoadout'
p426
F5
sS'tower_section_height'
p427
g8
(g9
(I0
tS'b'
tRp428
(I1
(I5
tg158
I00
S'\x00\x00\x00\x00\x00\x00$@\x00\x10\xaeG\xe1z\x84?\xc3\xf5(\\\x8fBJ@\xcc\xcc\xcc\xcc\xcc\x8cJ@\x00)\\\x8f\xc2\xf5\n@'
tbsS'navStudyProj'
p429
F250000
sS'buryFac'
p430
F0.10000000000000001
sS'cab2CR'
p431
F202.78800000000001
sS'air_density'
p432
F1.198
sS'offset_section_height'
p433
g8
(g9
(I0
tS'b'
tRp434
(I1
(I5
tg12
I00
S'\x9d\xa2\\\xe4\x8b\x97\xee?\x94\xfa\xb1\xd1S?\xfc?\xd2\xe8p\x1d\xce\xfb2@r\x8c\xea\xa6x\r\xd7?|\x94n\x17\xb46\x17@'
tbsS'strain_ult_te'
p435
F0.0050000000000000001
sS'turbine_overheadCostMultiplier'
p436
F0
sS'placePiles'
p437
F12
sS'main_permanent_ballast_height'
p438
g14
(g15
S'\x8a&C!\xf5"\r@'
tRp439
sS'diveTeamDR'
p440
F3200
sS'arrayY'
p441
F9
sS'bedplate_mass'
p442
F93090.600000000006
sS'mooring_line_length'
p443
g14
(g15
S'\xa6\x823Y\x19\x7f\xa6@'
tRp444
sS'wind_reference_speed'
p445
F11
sS'control_maxOmega'
p446
F8.887659696962098
sS'crane'
p447
I00
sS'hub_mass_cost_coeff'
p448
F3.7999999999999998
sS'operational_heel'
p449
F6
sS'removeHamMono'
p450
F2
sS'connection_ratio_max'
p451
F0.25
sS'hss_mass_cost_coeff'
p452
F8.25
sS'spMoorCheck'
p453
F16
sS'spinner_mass_cost_coeff'
p454
F23
sS'pileSpreadDR'
p455
F2500
sS'lss_mass'
p456
F31257.299999999999
sS'mooring_lines_per_connection'
p457
g14
(g15
S'\x00\x00\x00\x00\x00\x00\x00@'
tRp458
sS'anchor_radius'
p459
g14
(g15
S'\xe8\xbd\xccD9\xd7\xa5@'
tRp460
sS'pontoon_outer_diameter'
p461
g14
(g15
S',\xae\xff\xd6\xa0\x9c!@'
tRp462
sS'moorTimeFac'
p463
F0.0050000000000000001
sS'shorePullIn'
p464
F96
sS'natHisPresAct'
p465
F250000
sS'scrapVal'
p466
F0
sS'mooring_cost_rate'
p467
F1.1000000000000001
sS'bedplate_mass_cost_coeff'
p468
F4.5
sS'nu'
p469
F0.26000000000000001
sS'arrCab2Mass'
p470
F21.853999999999999
sS'E'
F200000000000
sS'cab2CurrRating'
p471
F340
sS'boltTower'
p472
F7
sS'cabLoadout'
p473
F14
sS'subsPullIn'
p474
F48
sS'vesselPosJack'
p475
F8
sS'nacelle_assemblyCostMultiplier'
p476
F0
sS'install_contingency'
p477
F0.29999999999999999
sS'mooring_type'
p478
S'chain'
p479
sS'decomDiscRate'
p480
F0.029999999999999999
s(lp481
(lp482
S'fairlead_location'
p483
aF0
aF1
aa(lp484
S'fairlead_support_wall_thickness'
p485
aF0.001
aF1
aa(lp486
S'fairlead_support_outer_diameter'
p487
aF0.10000000000000001
aF10
aa(lp488
S'main_freeboard'
p489
aF0
aF50
aa(lp490
S'main_section_height'
p491
aF0.10000000000000001
aF50
aa(lp492
S'main_outer_diameter'
p493
aF2.1000000000000001
aF40
aa(lp494
S'main_wall_thickness'
p495
aF0.001
aF0.5
aa(lp496
S'main_buoyancy_tank_diameter'
p497
aF0
aF50
aa(lp498
S'main_buoyancy_tank_height'
p499
aF0
aF20
aa(lp500
S'main_buoyancy_tank_location'
p501
aF0
aF1
aa(lp502
S'offset_freeboard'
p503
aF2
aF15
aa(lp504
S'offset_section_height'
p505
aF0.10000000000000001
aF50
aa(lp506
S'offset_outer_diameter'
p507
aF1.1000000000000001
aF40
aa(lp508
S'offset_wall_thickness'
p509
aF0.001
aF0.5
aa(lp510
S'offset_buoyancy_tank_diameter'
p511
aF0
aF50
aa(lp512
S'offset_buoyancy_tank_height'
p513
aF0
aF20
aa(lp514
S'offset_buoyancy_tank_location'
p515
aF0
aF1
aa(lp516
S'pontoon_outer_diameter'
p517
aF1
aF10
aa(lp518
S'pontoon_wall_thickness'
p519
aF0.01
aF1
aa(lp520
S'main_pontoon_attach_lower'
p521
aF0
aF0.5
aa(lp522
S'main_pontoon_attach_upper'
p523
aF0.5
aF1
aa(lp524
S'mooring_line_length'
p525
aF200
aF3000
aa(lp526
S'anchor_radius'
p527
aF100
aF5000
aa(lp528
S'mooring_diameter'
p529
aF0.050000000000000003
aF2
aa(lp530
S'main_permanent_ballast_height'
p531
aF0.10000000000000001
aF50
aa(lp532
S'main_stiffener_web_height'
p533
aF0.01
aF1
aa(lp534
S'main_stiffener_web_thickness'
p535
aF0.001
aF0.5
aa(lp536
S'main_stiffener_flange_width'
p537
aF0.01
aF5
aa(lp538
S'main_stiffener_flange_thickness'
p539
aF0.001
aF0.5
aa(lp540
S'main_stiffener_spacing'
p541
aF0.10000000000000001
aF100
aa(lp542
S'offset_stiffener_web_height'
p543
aF0.01
aF1
aa(lp544
S'offset_stiffener_web_thickness'
p545
aF0.001
aF0.5
aa(lp546
S'offset_stiffener_flange_width'
p547
aF0.01
aF5
aa(lp548
S'offset_stiffener_flange_thickness'
p549
aF0.001
aF0.5
aa(lp550
S'offset_stiffener_spacing'
p551
aF0.10000000000000001
aF100
aa(lp552
S'offset_permanent_ballast_height'
p553
aF0.10000000000000001
aF50
aa(lp554
S'radius_to_offset_column'
p555
aF5
aF100
aa(lp556
(lp557
S'tow.height_constraint'
p558
aF-0.01
aF0.01
aNaa(lp559
S'main.draft'
p560
aF0
aF20
aNaa(lp561
S'off.draft'
p562
aF0
aF20
aNaa(lp563
S'main.draft_margin'
p564
aF0
aF1
aNaa(lp565
S'off.draft_margin'
p566
aF0
aF1
aNaa(lp567
S'main.wave_height_freeboard_ratio'
p568
aNaF1
aNaa(lp569
S'off.wave_height_freeboard_ratio'
p570
aNaF1
aNaa(lp571
S'main_offset_spacing'
p572
aF1
aNaNaa(lp573
S'main.manufacturability'
p574
aF0
aNaNaa(lp575
S'main.weldability'
p576
aNaF0
aNaa(lp577
S'off.manufacturability'
p578
aF0
aNaNaa(lp579
S'off.weldability'
p580
aNaF0
aNaa(lp581
S'tower_transition_buffer'
p582
aF-1
aF1
aNaa(lp583
S'nacelle_transition_buffer'
p584
aF0
aNaNaa(lp585
S'offset_freeboard_heel_margin'
p586
aF0
aNaNaa(lp587
S'offset_draft_heel_margin'
p588
aF0
aF20
aNaa(lp589
S'axial_unity'
p590
aF0
aF1
aNaa(lp591
S'mooring_length_max'
p592
aNaF1
aNaa(lp593
S'main.flange_spacing_ratio'
p594
aNaF1
aNaa(lp595
S'main.stiffener_radius_ratio'
p596
aNaF0.5
aNaa(lp597
S'main.flange_compactness'
p598
aF1
aNaNaa(lp599
S'main.web_compactness'
p600
aF1
aNaNaa(lp601
S'main.axial_local_api'
p602
aNaF1
aNaa(lp603
S'main.axial_general_api'
p604
aNaF1
aNaa(lp605
S'main.external_local_api'
p606
aNaF1
aNaa(lp607
S'main.external_general_api'
p608
aNaF1
aNaa(lp609
S'off.flange_spacing_ratio'
p610
aNaF1
aNaa(lp611
S'off.stiffener_radius_ratio'
p612
aNaF0.5
aNaa(lp613
S'off.flange_compactness'
p614
aF1
aNaNaa(lp615
S'off.web_compactness'
p616
aF1
aNaNaa(lp617
S'off.axial_local_api'
p618
aNaF1
aNaa(lp619
S'off.axial_general_api'
p620
aNaF1
aNaa(lp621
S'off.external_local_api'
p622
aNaF1
aNaa(lp623
S'off.external_general_api'
p624
aNaF1
aNaa(lp625
S'pontoon_stress'
p626
aNaF1
aNaa(lp627
S'tower_stress'
p628
aNaF1
aNaa(lp629
S'tower_shell_buckling'
p630
aNaF1
aNaa(lp631
S'tower_global_buckling'
p632
aNaF1
aNaa(lp633
S'main_stress'
p634
aNaF1
aNaa(lp635
S'main_shell_buckling'
p636
aNaF1
aNaa(lp637
S'main_global_buckling'
p638
aNaF1
aNaa(lp639
S'offset_stress'
p640
aNaF1
aNaa(lp641
S'offset_shell_buckling'
p642
aNaF1
aNaa(lp643
S'offset_global_buckling'
p644
aNaF1
aNaa(lp645
S'variable_ballast_height_ratio'
p646
aF0
aF1
aNaa(lp647
S'variable_ballast_mass'
p648
aF0
aNaNaa(lp649
S'metacentric_height'
p650
aF0.10000000000000001
aNaNaa(lp651
S'offset_force_ratio'
p652
aNaF1
aNaa(lp653
S'heel_moment_ratio'
p654
aNaF1
aNaa(lp655
S'period_margin_low'
p656
aNaF1
aNaa(lp657
S'period_margin_high'
p658
aF1
aNaNaa(lp659
S'Pn_margin'
p660
aNaF1
aNaa(lp661
S'P1_margin'
p662
aNaF1
aNaa(lp663
S'Pn_margin_cfem'
p664
aNaF1
aNaa(lp665
S'P1_margin_cfem'
p666
aNaF1
aNaa(lp667
S'rotor_strain_sparU'
p668
aF-1
aNaNaa(lp669
S'rotor_strain_sparL'
p670
aNaF1
aNaa(lp671
S'rotor_strain_teU'
p672
aF-1
aNaNaa(lp673
S'rotor_strain_teL'
p674
aNaF1
aNaa(lp675
S'rotor_buckling_sparU'
p676
aNaF1
aNaa(lp677
S'rotor_buckling_sparL'
p678
aNaF1
aNaa(lp679
S'rotor_buckling_teU'
p680
aNaF1
aNaa(lp681
S'rotor_buckling_teL'
p682
aNaF1
aNaa(lp683
S'rotor_damage_sparU'
p684
aNaF0
aNaa(lp685
S'rotor_damage_sparL'
p686
aNaF0
aNaa(lp687
S'rotor_damage_teU'
p688
aNaF0
aNaa(lp689
S'rotor_damage_teL'
p690
aNaF0
aNaa(lp691
S'ground_clearance'
p692
aF20
aNaNaa(S'total_cost'
p693
F1.0000000000000001e-09
tp694
S'NM'
p695
t.