((dp1
S'groutSpreadDR'
p2
F3000
sS'generator_mass'
p3
F16699.849999999999
sS'turbine_profitMultiplier'
p4
F0
sS'prepGripperJack'
p5
F8
sS'tpCover'
p6
F1.5
sS'main_stiffener_flange_width'
p7
cnumpy.core.multiarray
_reconstruct
p8
(cnumpy
ndarray
p9
(I0
tS'b'
tRp10
(I1
(I4
tcnumpy
dtype
p11
(S'f8'
I0
I1
tRp12
(I3
S'<'
NNNI-1
I-1
I0
tbI00
S'M\xbe;\xb4\xb6\xee\xfe?M\xbe;\xb4\xb6\xee\xfe?M\xbe;\xb4\xb6\xee\xfe?M\xbe;\xb4\xb6\xee\xfe?'
tbsS'cross_attachment_pontoons_int'
p13
cnumpy.core.multiarray
scalar
p14
(g11
(S'f8'
I0
I1
tRp15
(I3
S'<'
NNNI-1
I-1
I0
tbS'\x00\x00\x00\x00\x00\x00\x00\x00'
tRp16
sS'faaPlan'
p17
F10000
sS'main_section_height'
p18
g8
(g9
(I0
tS'b'
tRp19
(I1
(I4
tg11
(S'f8'
I0
I1
tRp20
(I3
S'<'
NNNI-1
I-1
I0
tbI00
S"\x04\x9bs3Q\x03(@S\\\x8c\x1e\xef\xbe\xf8?\x88\xd6^G+\x8f2@\x06\x1d\xa56\xd0<'@"
tbsS'transformer_mass'
p21
F1000
sS'otherAncillary'
p22
F3000000
sS'precurve_tip'
p23
F0
sS'jtransCR'
p24
F4500
sS'offset_buoyancy_tank_diameter'
p25
g14
(g15
S"\xc4\xf9V\t@'%@"
tRp26
sS'medVoltSG'
p27
F500000
sS'generator_mass_cost_coeff'
p28
F17.43
sS'jpileL'
p29
F47.5
sS'plantComm'
p30
F0.01
sS'subsLoad'
p31
F60
sS'jpileD'
p32
F1.6000000000000001
sS'capital_cost_year_4'
p33
F0
sS'main_bearing_mass'
p34
F4865.7049999999999
sS'main_freeboard'
p35
g14
(g15
S'n\x16\xf6\x9c\xb5\xff=@'
tRp36
sS'capital_cost_year_5'
p37
F0
sS'material_density'
p38
F7850
sS'dynCabFac'
p39
F2
sS'cab1CurrRating'
p40
F300
sS'crane600DR'
p41
F5000
sS'ring_mass_factor'
p42
F1
sS'arrVoltage'
p43
F33
sS'elec_connec_cost_esc'
p44
F1.5
sS'gearbox_mass'
p45
F30237.599999999999
sS'construction_insurance'
p46
F0.01
sS'cab2SubsInterCR'
p47
F19815
sS'tax_rate'
p48
F0.40000000000000002
sS'presweep_in'
p49
g8
(g9
(I0
tS'b'
tRp50
(I1
(I5
tg11
(S'f8'
I0
I1
tRp51
(I3
S'<'
NNNI-1
I-1
I0
tbI00
S'\x00\x00\x00\x00\x00\x00\x00\x00\x00\x00\x00\x00\x00\x00\x00\x00\x00\x00\x00\x00\x00\x00\x00\x00\x00\x00\x00\x00\x00\x00\x00\x00\x00\x00\x00\x00\x00\x00\x00\x00'
tbsS'permanent_ballast_density'
p52
F4492
sS'expCabLoad'
p53
F24
sS'groutSpreadMob'
p54
F1000000
sS'machine_rating'
p55
F10000000
sS'socEconStudyMet'
p56
F500000
sS'cleanWatAct402'
p57
F100000
sS'mpvRentalDR'
p58
F72000
sS'distAtoS'
p59
F90
sS'cover_mass'
p60
F1000
sS'lower_attachment_pontoons_int'
p61
g14
(g15
S'\x00\x00\x00\x00\x00\x00\xf0?'
tRp62
sS'usecd'
p63
I01
sS'radius_to_offset_column'
p64
g14
(g15
S'\x8euq8\xa4\xecJ@'
tRp65
sS'surfLayRate'
p66
F375
sS'physResStudyProj'
p67
F500000
sS'seaSpreadDR'
p68
F165000
sS'z_offset'
p69
F0
sS'prepAA'
p70
F168
sS'number_of_mooring_connections'
p71
I3
sS'material_cost_rate'
p72
F1.1000000000000001
sS'dynamic_amplication_tip_deflection'
p73
F1.3500000000000001
sS'arrCab1Mass'
p74
F20.384
sS'turbine_assemblyCostMultiplier'
p75
F0
sS'turbInstallMethod'
p76
I0
sS'tower_assemblyCostMultiplier'
p77
F0
sS'column_mass_factor'
p78
F1.05
sS'offset_outer_diameter'
p79
g8
(g9
(I0
tS'b'
tRp80
(I1
(I5
tg20
I00
S'\x8a\x05&\xe6\x16\x02(@\x91M\xbf\x9c\x06~:@\x9f\xder\xeb1\x86%@\x0b*_\xe7\xdd\x92"@U\x93\x9e-,\xce\x18@'
tbsS'yield_stress'
p81
F345000000
sS'rstar_damage'
p82
g8
(g9
(I0
tS'b'
tRp83
(I1
(I51
tg51
I00
S'\x00\x00\x00\x00\x00\x00\x00\x00{\x14\xaeG\xe1z\x94?{\x14\xaeG\xe1z\xa4?\xb8\x1e\x85\xebQ\xb8\xae?{\x14\xaeG\xe1z\xb4?\x9a\x99\x99\x99\x99\x99\xb9?\xb8\x1e\x85\xebQ\xb8\xbe?\xecQ\xb8\x1e\x85\xeb\xc1?{\x14\xaeG\xe1z\xc4?\n\xd7\xa3p=\n\xc7?\x9a\x99\x99\x99\x99\x99\xc9?)\\\x8f\xc2\xf5(\xcc?\xb8\x1e\x85\xebQ\xb8\xce?\xa4p=\n\xd7\xa3\xd0?\xecQ\xb8\x1e\x85\xeb\xd1?333333\xd3?{\x14\xaeG\xe1z\xd4?\xc3\xf5(\\\x8f\xc2\xd5?\n\xd7\xa3p=\n\xd7?R\xb8\x1e\x85\xebQ\xd8?\x9a\x99\x99\x99\x99\x99\xd9?\xe1z\x14\xaeG\xe1\xda?)\\\x8f\xc2\xf5(\xdc?q=\n\xd7\xa3p\xdd?\xb8\x1e\x85\xebQ\xb8\xde?\x00\x00\x00\x00\x00\x00\xe0?\xa4p=\n\xd7\xa3\xe0?H\xe1z\x14\xaeG\xe1?\xecQ\xb8\x1e\x85\xeb\xe1?\x8f\xc2\xf5(\\\x8f\xe2?333333\xe3?\xd7\xa3p=\n\xd7\xe3?{\x14\xaeG\xe1z\xe4?\x1f\x85\xebQ\xb8\x1e\xe5?\xc3\xf5(\\\x8f\xc2\xe5?gfffff\xe6?\n\xd7\xa3p=\n\xe7?\xaeG\xe1z\x14\xae\xe7?R\xb8\x1e\x85\xebQ\xe8?\xf6(\\\x8f\xc2\xf5\xe8?\x9a\x99\x99\x99\x99\x99\xe9?>\n\xd7\xa3p=\xea?\xe1z\x14\xaeG\xe1\xea?\x85\xebQ\xb8\x1e\x85\xeb?)\\\x8f\xc2\xf5(\xec?\xcd\xcc\xcc\xcc\xcc\xcc\xec?q=\n\xd7\xa3p\xed?\x15\xaeG\xe1z\x14\xee?\xb8\x1e\x85\xebQ\xb8\xee?\\\x8f\xc2\xf5(\\\xef?\x00\x00\x00\x00\x00\x00\xf0?'
tbsS'precone'
p84
F4
sS'nacelle_transportMultiplier'
p85
F0
sS'Mxb_damage'
p86
g8
(g9
(I0
tS'b'
tRp87
(I1
(I51
tg51
I00
S'\x11\xea-\x81\x99\x97q=\x11\xea-\x81\x99\x97q=\x11\xea-\x81\x99\x97q=\x11\xea-\x81\x99\x97q=\x11\xea-\x81\x99\x97q=\x11\xea-\x81\x99\x97q=\x11\xea-\x81\x99\x97q=\x11\xea-\x81\x99\x97q=\x11\xea-\x81\x99\x97q=\x11\xea-\x81\x99\x97q=\x11\xea-\x81\x99\x97q=\x11\xea-\x81\x99\x97q=\x11\xea-\x81\x99\x97q=\x11\xea-\x81\x99\x97q=\x11\xea-\x81\x99\x97q=\x11\xea-\x81\x99\x97q=\x11\xea-\x81\x99\x97q=\x11\xea-\x81\x99\x97q=\x11\xea-\x81\x99\x97q=\x11\xea-\x81\x99\x97q=\x11\xea-\x81\x99\x97q=\x11\xea-\x81\x99\x97q=\x11\xea-\x81\x99\x97q=\x11\xea-\x81\x99\x97q=\x11\xea-\x81\x99\x97q=\x11\xea-\x81\x99\x97q=\x11\xea-\x81\x99\x97q=\x11\xea-\x81\x99\x97q=\x11\xea-\x81\x99\x97q=\x11\xea-\x81\x99\x97q=\x11\xea-\x81\x99\x97q=\x11\xea-\x81\x99\x97q=\x11\xea-\x81\x99\x97q=\x11\xea-\x81\x99\x97q=\x11\xea-\x81\x99\x97q=\x11\xea-\x81\x99\x97q=\x11\xea-\x81\x99\x97q=\x11\xea-\x81\x99\x97q=\x11\xea-\x81\x99\x97q=\x11\xea-\x81\x99\x97q=\x11\xea-\x81\x99\x97q=\x11\xea-\x81\x99\x97q=\x11\xea-\x81\x99\x97q=\x11\xea-\x81\x99\x97q=\x11\xea-\x81\x99\x97q=\x11\xea-\x81\x99\x97q=\x11\xea-\x81\x99\x97q=\x11\xea-\x81\x99\x97q=\x11\xea-\x81\x99\x97q=\x11\xea-\x81\x99\x97q=\x11\xea-\x81\x99\x97q='
tbsS'mooring_diameter'
p88
g14
(g15
S'\xff\xef\x07\xc7\x8c\xad\xd1?'
tRp89
sS'hub_mass'
p90
F105520
sS'cab1CR'
p91
F185.88900000000001
sS'cd_usr'
p92
Finf
sS'main_buoyancy_tank_height'
p93
g14
(g15
S'V\x84\xda\xb7\xb2b\xfe?'
tRp94
sS'buryDepth'
p95
F2
sS'nac_I'
p96
g8
(g9
(I0
tS'b'
tRp97
(I1
(I6
tg51
I00
S'\x00\x00\x00`\xb4[\\A\x00\x00\x00\x8e\x82\ngA\x00\x00\x00\x8e\x82\ngA\x00\x00\x00\x00\x00\x00\x00\x00\x00\x00\x00\x00\x00\x00\x00\x00\x00\x00\x00\x00\x00\x00\x00\x00'
tbsS'monoFasten'
p98
F12
sS'tilt'
p99
F6
sS'nSector'
p100
I4
sS'offset_buoyancy_tank_location'
p101
g14
(g15
S'\xee\r\xc7Z\x03\xf1\xa4?'
tRp102
sS'tower_wall_thickness'
p103
g8
(g9
(I0
tS'b'
tRp104
(I1
(I3
tg12
I00
S'\x90\xebQ\xb8\x1e\x85\xd3?\x90\xebQ\xb8\x1e\x85\xd3?\x90\xebQ\xb8\x1e\x85\xd3?'
tbsS'offshore'
p105
I01
sS'substructure'
p106
I3
sS'interest_during_construction'
p107
F0.080000000000000002
sS'offset_stiffener_flange_thickness'
p108
g8
(g9
(I0
tS'b'
tRp109
(I1
(I4
tg12
I00
S'\x8e\xf3n\xff\x89\xd6\xdf?\x8e\xf3n\xff\x89\xd6\xdf?\x8e\xf3n\xff\x89\xd6\xdf?\x8e\xf3n\xff\x89\xd6\xdf?'
tbsS'placeMP'
p110
F3
sS'hubFraction'
p111
F0.023784901758014475
sS'feedStudy'
p112
F10000000
sS'preFEEDStudy'
p113
F5000000
sS'cableOptimizer'
p114
I00
sS'platforms_mass_cost_coeff'
p115
F8.6999999999999993
sS'hvac_mass_cost_coeff'
p116
F163.94999999999999
sS'upper_attachment_pontoons_int'
p117
g14
(g15
S'\x00\x00\x00\x00\x00\x00\x00\x00'
tRp118
sS'nepaEisMet'
p119
F2000000
sS'yaw_mass_cost_coeff'
p120
F11.01
sS'subsTopFab'
p121
F14500
sS'dummy_mass'
p122
F9.9999999999999998e-13
sS'elec_connec_machine_rating_cost_coeff'
p123
F40
sS'fixed_charge_rate'
p124
F0.12
sS'water_viscosity'
p125
F0.00088999999999999995
sS'spMoorCon'
p126
F20
sS'wind_reference_height'
p127
F119
sS'outfitting_cost_rate'
p128
F1.6500000000000001
sS'air_viscosity'
p129
F1.8099999999999999e-05
sS'shape_parameter'
p130
F0
sS'prepSemi'
p131
F12
sS'prepTow'
p132
F12
sS'control_Vout'
p133
F25
sS'max_taper_ratio'
p134
F0.40000000000000002
sS'hub_profitMultiplier'
p135
F0
sS'tower_overheadCostMultiplier'
p136
F0
sS'platforms_mass'
p137
F1000
sS'socEconStudyProj'
p138
F200000
sS'gust_stddev'
p139
I3
sS'boltRotor'
p140
F7
sS'wave_period_range_high'
p141
F20
sS'vs_electronics_mass'
p142
F1000
sS'inspectClear'
p143
F2
sS'teT_in'
p144
g8
(g9
(I0
tS'b'
tRp145
(I1
(I5
tg51
I00
S'\xf4(\xfb\x97\x18\x81\xa5?\xad\xb1B\x13!\x8a\xb0?\xaf\xbf\xedj\xe1\xd6\xab?Y\xc3\xb4`\x17}\x90?\xe24"\xc9\xe3Gl?'
tbsS'morison_mass_coefficient'
p146
F2
sS'seaSpreadMob'
p147
F4500000
sS'wind_bottom_height'
p148
F0
sS'wave_period_range_low'
p149
F2
sS'stateLease'
p150
F250000
sS'offset_permanent_ballast_height'
p151
g14
(g15
S'\xe3\x8a\x15\xd9\xbdB\xd4?'
tRp152
sS'ssMoorCheck'
p153
F12
sS'main_stiffener_spacing'
p154
g8
(g9
(I0
tS'b'
tRp155
(I1
(I4
tg12
I00
S'8:\xb5\x03\xf7\x8a"@8:\xb5\x03\xf7\x8a"@8:\xb5\x03\xf7\x8a"@8:\xb5\x03\xf7\x8a"@'
tbsS'tower_outer_diameter'
p156
g8
(g9
(I0
tS'b'
tRp157
(I1
(I4
tg12
I00
S'\x00\x00\x00\x00\x00\x00"@\x00\x00\x00\x00\x00\x00\x1d@\x00\x00\x00\x00\x00\x00\x1d@\x00\x00\x00\x00\x00\x00\x16@'
tbsS'conOpPlan'
p158
F1000000
sS'outfitting_mass_fraction'
p159
F0.059999999999999998
sS'capital_cost_year_2'
p160
F0.10000000000000001
sS'capital_cost_year_3'
p161
F0.10000000000000001
sS'capital_cost_year_0'
p162
F0.20000000000000001
sS'capital_cost_year_1'
p163
F0.59999999999999998
sS'G'
F79300000000
sS'fairlead_location'
p164
g14
(g15
S'\x98\xde\xfb\xc6\xfb\xd7\xcb?'
tRp165
sS'max_offset'
p166
F100
sS'control_minOmega'
p167
F6
sS'prepGripperMono'
p168
F1.5
sS'cabTerm'
p169
F5.5
sS'workSpace'
p170
F2000000
sS'main_bulkhead_thickness'
p171
g8
(g9
(I0
tS'b'
tRp172
(I1
(I5
tg11
(S'f8'
I0
I1
tRp173
(I3
S'<'
NNNI-1
I-1
I0
tbI00
S'\x9a\x99\x99\x99\x99\x99\xa9?\x9a\x99\x99\x99\x99\x99\xa9?\x00\x00\x00\x00\x00\x00\x00\x00\x00\x00\x00\x00\x00\x00\x00\x00\x9a\x99\x99\x99\x99\x99\xa9?'
tbsS'vesselPosMono'
p174
F3
sS'boltBlade1'
p175
F3.5
sS'groutTP'
p176
F8
sS'boltBlade2'
p177
F3.5
sS'wind_beta'
p178
F0
sS'landConstruct'
p179
F7
sS'subsJackCR'
p180
F6250
sS'tiploss'
p181
I01
sS'hub_overheadCostMultiplier'
p182
F0
sS'control_pitch'
p183
F0
sS'azimuth_extreme'
p184
F0
sS'prepSpar'
p185
F18
sS'number_install_seasons'
p186
F1
sS'transformer_mass_cost_coeff'
p187
F26.5
sS'turbine_class'
p188
I0
sS'distInterCon'
p189
F3
sS'rivsnHarbsAct'
p190
F100000
sS'navStudyMet'
p191
F500000
sS'jackFasten'
p192
F20
sS'coastZoneManAct'
p193
F100000
sS'distPtoA'
p194
F90
sS'saPlan'
p195
F500000
sS'nCrane1000'
p196
F0
sS'bioResStudyMet'
p197
F1500000
sS'procurement_contingency'
p198
F0.050000000000000003
sS'jpileCR'
p199
F2250
sS'metTowCR'
p200
F11518
sS'jlatticeCR'
p201
F4680
sS'outer_cross_pontoons_int'
p202
g14
(g15
S'\x00\x00\x00\x00\x00\x00\x00\x00'
tRp203
sS'water_depth'
p204
F320
sS'control_tsr'
p205
F10.58
sS'VfactorPC'
p206
F0.69999999999999996
sS'levJack'
p207
F24
sS'pwrFac'
p208
F0.94999999999999996
sS'placeJack'
p209
F12
sS'upper_ring_pontoons_int'
p210
g14
(g15
S'\x00\x00\x00\x00\x00\x00\x00\x00'
tRp211
sS'main_stiffener_web_thickness'
p212
g8
(g9
(I0
tS'b'
tRp213
(I1
(I4
tg12
I00
S'q\xb5\xdc[\xfa\xea\xdf?q\xb5\xdc[\xfa\xea\xdf?q\xb5\xdc[\xfa\xea\xdf?q\xb5\xdc[\xfa\xea\xdf?'
tbsS'endSpecAct'
p214
F500000
sS'AEP_loss_factor'
p215
F1
sS'prepHamJack'
p216
F2
sS'water_density'
p217
F1025
sS'arrayX'
p218
F9
sS'expSubsInterCR'
p219
F57500
sS'min_diameter_thickness_ratio'
p220
F120
sS'offset_wall_thickness'
p221
g8
(g9
(I0
tS'b'
tRp222
(I1
(I4
tg12
I00
S'\x97{+\xbe\xdf\xfa\xc2?\x97{+\xbe\xdf\xfa\xc2?\x97{+\xbe\xdf\xfa\xc2?\x97{+\xbe\xdf\xfa\xc2?'
tbsS'blade_mass_cost_coeff'
p223
F13.08
sS'turbFasten'
p224
F8
sS'hub_transportMultiplier'
p225
F0
sS'pitch_system_mass_cost_coeff'
p226
F22.91
sS'upendSpar'
p227
F36
sS'hub_I'
p228
g8
(g9
(I0
tS'b'
tRp229
(I1
(I6
tg51
I00
S'\x9eV\xe4\xeaZ\xe2\x13AGl\x9d\xa5\xf1\xda\x08AGl\x9d\xa5\xf1\xda\x08A\x00\x00\x00\x00\x00\x00\x00\x00\x00\x00\x00\x00\x00\x00\x00\x00\x00\x00\x00\x00\x00\x00\x00\x00'
tbsS'expCurrRating'
p230
F530
sS'turbulence_class'
p231
I1
sS'cover_mass_cost_coeff'
p232
F7.6100000000000003
sS'main_pontoon_attach_lower'
p233
g14
(g15
S'Xk\xb4\xa2\xf5\xd8\xb9?'
tRp234
sS'entranceExitRate'
p235
F0.52500000000000002
sS'lss_mass_cost_coeff'
p236
F12.6
sS'exCabFac'
p237
F0.10000000000000001
sS'moorSurvey'
p238
F4
sS'hub_height'
p239
F149
sS'offset_stiffener_web_height'
p240
g8
(g9
(I0
tS'b'
tRp241
(I1
(I4
tg12
I00
S'\xcc2\xa6jd\xb8\xda?\xcc2\xa6jd\xb8\xda?\xcc2\xa6jd\xb8\xda?\xcc2\xa6jd\xb8\xda?'
tbsS'cabPullIn'
p242
F5.5
sS'craneMobDemob'
p243
F150000
sS'bladeLength'
p244
F96.700000000000003
sS'placeTop'
p245
F24
sS'discount_rate'
p246
F0.070000000000000007
sS'presweep_tip'
p247
F0
sS'gamma_fatigue'
p248
F1.7550000000000001
sS'tower_transportMultiplier'
p249
F0
sS'mptCR'
p250
F12500
sS'winchDR'
p251
F1000
sS'instScour'
p252
F6
sS'r_max_chord'
p253
g14
(g15
S'\x9b\xe6\x1d\xa7\xe8H\xce?'
tRp254
sS'ssMoorCon'
p255
F22
sS'bioResStudyProj'
p256
F500000
sS'placeTemplate'
p257
F4
sS'elecWork'
p258
F25000
sS'compRacks'
p259
F1000000
sS'distShore'
p260
F90
sS'bulkhead_mass_factor'
p261
F1
sS'elecCont'
p262
F0.29999999999999999
sS'cabSurveyCR'
p263
F240
sS'ssHeaveCR'
p264
F6250
sS'highVoltSG'
p265
F950000
sS'pitch_system_mass'
p266
F17004
sS'main_outer_diameter'
p267
g8
(g9
(I0
tS'b'
tRp268
(I1
(I5
tg20
I00
S'\x93>l\xb6\x8eI9@\x8a/\x97U\xe9\xe8&@#\r\xd6\x8adn\x1d@\xf3fS\x16\xa0\x97$@rNIa\x01\x97#@'
tbsS'nacelleL'
p269
F-inf
sS'cab2TurbInterCR'
p270
F8615
sS'hamRate'
p271
F20
sS'nacelle_overheadCostMultiplier'
p272
F0
sS'crane1000DR'
p273
F8000
sS'nacelle_profitMultiplier'
p274
F0
sS'nacelleW'
p275
F-inf
sS'main_pontoon_attach_upper'
p276
g14
(g15
S'6\x8e#;\xc2\xb5\xed?'
tRp277
sS'tower_buckling_length'
p278
F30
sS'substructCont'
p279
F0.29999999999999999
sS'control_Vin'
p280
F4
sS'turbCont'
p281
F0.29999999999999999
sS'wave_period'
p282
F9.8000000000000007
sS'prepHamMono'
p283
F2
sS'wakerotation'
p284
I01
sS'tower_profitMultiplier'
p285
F0
sS'main_stiffener_flange_thickness'
p286
g8
(g9
(I0
tS'b'
tRp287
(I1
(I4
tg12
I00
S'\xdeJ\xfe\xe9\xb0\xe5\xdf?\xdeJ\xfe\xe9\xb0\xe5\xdf?\xdeJ\xfe\xe9\xb0\xe5\xdf?\xdeJ\xfe\xe9\xb0\xe5\xdf?'
tbsS'nepaEisProj'
p288
F5000000
sS'pontoon_wall_thickness'
p289
g14
(g15
S'~\xc5\x01P\x03b\x94?'
tRp290
sS'cabDrillCR'
p291
F3200
sS'physResStudyMet'
p292
F1500000
sS'main_buoyancy_tank_location'
p293
g14
(g15
S'\xdc,cj6?\xf1>'
tRp294
sS'strain_ult_spar'
p295
F0.01
sS'expCabCR'
p296
F495.411
sS'base_hardware_cost_coeff'
p297
F0.69999999999999996
sS'annual_opex'
p298
F700000
sS'hub_cm'
p299
g8
(g9
(I0
tS'b'
tRp300
(I1
(I3
tg51
I00
S'ffffff\x1c\xc0\x00\x00\x00\x00\x00\x00\x00\x00\x00\x00\x00\x00\x00\x00\x06@'
tbsS'marMamProtAct'
p301
F500000
sS'sparT_in'
p302
g8
(g9
(I0
tS'b'
tRp303
(I1
(I5
tg51
I00
S'Xh\x82\xe1[b\xa0?\xfc\x8d\xa5=\x19\xa0\xa9?\xdcC!\x10\xd0\xcc\xb5?k\xcbD\xc9\xbc\xe8\xb3?~&\x13\xd1\x020\x88?'
tbsS'backUpGen'
p304
F1000000
sS'gamma_m'
p305
F1.3
sS'gamma_n'
p306
F1
sS'number_of_offset_columns'
p307
I3
sS'yaw'
p308
F0
sS'gamma_f'
p309
F1.3500000000000001
sS'offset_freeboard'
p310
g14
(g15
S'-@u\xd8T\xe2+@'
tRp311
sS'gamma_b'
p312
F1.1000000000000001
sS'bearings_mass_cost_coeff'
p313
F6.3499999999999996
sS'pileSpreadMob'
p314
F750000
sS'ballast_cost_rate'
p315
F0.10000000000000001
sS'yaw_mass'
p316
F11878.24
sS'number_of_turbines'
p317
I20
sS'downwind'
p318
I00
sS'spinner_mass'
p319
F1810.5
sS'main_buoyancy_tank_diameter'
p320
g14
(g15
S'\xc5\xf9\x02\x11~^\x1d@'
tRp321
sS'crane_cost'
p322
F0
sS'turbine_transportMultiplier'
p323
F0
sS'ssBall'
p324
F6
sS'vesselPosTurb'
p325
F2
sS'deaFixLeng'
p326
F0
sS'wave_height'
p327
F10.800000000000001
sS'cleanWatAct404'
p328
F100000
sS'anchor'
p329
I0
sS'estEnMFac'
p330
F0.040000000000000001
sS'gearbox_mass_cost_coeff'
p331
F17.399999999999999
sS'chord_in'
p332
g8
(g9
(I0
tS'b'
tRp333
(I1
(I5
tg51
I00
S'gfffff\x12@\rnk\x0b\xcf\xab\x12@r\xe0\xd5rg\xf6\x17@t\xc8\xb4\xe7\x15\x10\x08@ \r\xe0-\x90\xa0\xb8?'
tbsS'precurve_in'
p334
g8
(g9
(I0
tS'b'
tRp335
(I1
(I5
tg51
I00
S'\x00\x00\x00\x00\x00\x00\x00\x80\x97\xcc\xb1\xbc\xab\x1e\xa0\xbf\x11\x02\xf2%Tp\xc6\xbf\xc5\xd5\x86\xdf>1\xeb\xbfU\x84\x9b\x8c*\xd3\x18\xc0'
tbsS'catLengFac'
p336
F0.040000000000000001
sS'Myb_damage'
p337
g8
(g9
(I0
tS'b'
tRp338
(I1
(I51
tg51
I00
S'\x11\xea-\x81\x99\x97q=\x11\xea-\x81\x99\x97q=\x11\xea-\x81\x99\x97q=\x11\xea-\x81\x99\x97q=\x11\xea-\x81\x99\x97q=\x11\xea-\x81\x99\x97q=\x11\xea-\x81\x99\x97q=\x11\xea-\x81\x99\x97q=\x11\xea-\x81\x99\x97q=\x11\xea-\x81\x99\x97q=\x11\xea-\x81\x99\x97q=\x11\xea-\x81\x99\x97q=\x11\xea-\x81\x99\x97q=\x11\xea-\x81\x99\x97q=\x11\xea-\x81\x99\x97q=\x11\xea-\x81\x99\x97q=\x11\xea-\x81\x99\x97q=\x11\xea-\x81\x99\x97q=\x11\xea-\x81\x99\x97q=\x11\xea-\x81\x99\x97q=\x11\xea-\x81\x99\x97q=\x11\xea-\x81\x99\x97q=\x11\xea-\x81\x99\x97q=\x11\xea-\x81\x99\x97q=\x11\xea-\x81\x99\x97q=\x11\xea-\x81\x99\x97q=\x11\xea-\x81\x99\x97q=\x11\xea-\x81\x99\x97q=\x11\xea-\x81\x99\x97q=\x11\xea-\x81\x99\x97q=\x11\xea-\x81\x99\x97q=\x11\xea-\x81\x99\x97q=\x11\xea-\x81\x99\x97q=\x11\xea-\x81\x99\x97q=\x11\xea-\x81\x99\x97q=\x11\xea-\x81\x99\x97q=\x11\xea-\x81\x99\x97q=\x11\xea-\x81\x99\x97q=\x11\xea-\x81\x99\x97q=\x11\xea-\x81\x99\x97q=\x11\xea-\x81\x99\x97q=\x11\xea-\x81\x99\x97q=\x11\xea-\x81\x99\x97q=\x11\xea-\x81\x99\x97q=\x11\xea-\x81\x99\x97q=\x11\xea-\x81\x99\x97q=\x11\xea-\x81\x99\x97q=\x11\xea-\x81\x99\x97q=\x11\xea-\x81\x99\x97q=\x11\xea-\x81\x99\x97q=\x11\xea-\x81\x99\x97q='
tbsS'offset_buoyancy_tank_height'
p339
g14
(g15
S'\x07\xaa\x17\xb9\x08\x84\x0b@'
tRp340
sS'offset_stiffener_spacing'
p341
g8
(g9
(I0
tS'b'
tRp342
(I1
(I4
tg12
I00
S'\xef\x8c\xa1*\x15\x1f\x0b@\xef\x8c\xa1*\x15\x1f\x0b@\xef\x8c\xa1*\x15\x1f\x0b@\xef\x8c\xa1*\x15\x1f\x0b@'
tbsS'gamma_freq'
p343
F1.1000000000000001
sS'hss_mass'
p344
F1492.45
sS'painting_cost_rate'
p345
F14.4
sS'placeTP'
p346
F3
sS'nac_mass'
p347
F334527.1875
sS'buryRate'
p348
F125
sS'max_survival_heel'
p349
F15
sS'shearExp'
p350
F0.11
sS'outConShelfLease'
p351
F1000000
sS'addLocPerm'
p352
F200000
sS'project_lifetime'
p353
F20
sS'hvac_mass'
p354
F1000
sS'offset_stiffener_flange_width'
p355
g8
(g9
(I0
tS'b'
tRp356
(I1
(I4
tg12
I00
S'5h\x98+k\xb7\xed?5h\x98+k\xb7\xed?5h\x98+k\xb7\xed?5h\x98+k\xb7\xed?'
tbsS'nCrane600'
p357
F0
sS'installStrategy'
p358
I0
sS'distPort'
p359
F90
sS'fairlead_support_wall_thickness'
p360
g14
(g15
S"\x91\x18\xde'^\t\x93?"
tRp361
sS'removeHamJack'
p362
F4
sS'labor_cost_rate'
p363
F1
sS'mtransCR'
p364
F3230
sS'boltNacelle1'
p365
F7
sS'mpileCR'
p366
F2250
sS'boltNacelle3'
p367
F7
sS'boltNacelle2'
p368
F7
sS'hubloss'
p369
I01
sS'cab1TurbInterCR'
p370
F8410
sS'bearing_number'
p371
I2
sS'offset_stiffener_web_thickness'
p372
g8
(g9
(I0
tS'b'
tRp373
(I1
(I4
tg12
I00
S'7\xea\x14\xee\xc1\xb1\xdf?7\xea\x14\xee\xc1\xb1\xdf?7\xea\x14\xee\xc1\xb1\xdf?7\xea\x14\xee\xc1\xb1\xdf?'
tbsS'loading'
p374
S'hydrostatic'
p375
sS'lower_ring_pontoons_int'
p376
g14
(g15
S'\x00\x00\x00\x00\x00\x00\x00\x00'
tRp377
sS'main_stiffener_web_height'
p378
g8
(g9
(I0
tS'b'
tRp379
(I1
(I4
tg12
I00
S' \xb1f\xb3\x7f\xff\xef? \xb1f\xb3\x7f\xff\xef? \xb1f\xb3\x7f\xff\xef? \xb1f\xb3\x7f\xff\xef?'
tbsS'expVoltage'
p380
F220
sS'controls_cost_base'
p381
g8
(g9
(I0
tS'b'
tRp382
(I1
(I2
tg11
(S'f8'
I0
I1
tRp383
(I3
S'<'
NNNI-1
I-1
I0
tbI00
S'\x00\x00\x00\x00\x00\x17\xe1@\x00\x00\x00\x00\x80K\xeb@'
tbsS'fairlead_offset_from_shell'
p384
F6.0004865405187147
sS'rna_weightM'
p385
I01
sS'shuntCR'
p386
F35000
sS'dockRate'
p387
F3000
sS'subsVessPos'
p388
F6
sS'civilWork'
p389
F40000
sS'towerInstallMethod'
p390
I0
sS'migBirdAct'
p391
F500000
sS'max_draft'
p392
F20
sS'theta_in'
p393
g8
(g9
(I0
tS'b'
tRp394
(I1
(I5
tg51
I00
S'\x00\x00\x00\x00\x00\x00-@9\xb4\xc8v\xbe\x9f*@L7\x89A`\xe5\x1a@<r\x8e\x14\xc5X\xa1\xbf\x84l\xe7\xfb\xa9\xf1\xa2\xbf'
tbsS'cabDrillDist'
p395
F500
sS'topAssemblyFac'
p396
F0.074999999999999997
sS'fairlead_support_outer_diameter'
p397
g14
(g15
S's\xf0\x17K\xf3\xff#@'
tRp398
sS'interConVolt'
p399
F345
sS'offset_bulkhead_thickness'
p400
g8
(g9
(I0
tS'b'
tRp401
(I1
(I5
tg173
I00
S'\x9a\x99\x99\x99\x99\x99\xa9?\x9a\x99\x99\x99\x99\x99\xa9?\x00\x00\x00\x00\x00\x00\x00\x00\x00\x00\x00\x00\x00\x00\x00\x00\x9a\x99\x99\x99\x99\x99\xa9?'
tbsS'controls_esc'
p402
F1.5
sS'm_damage'
p403
F10
sS'shell_mass_factor'
p404
F1
sS'tower_mass_cost_coeff'
p405
F3.2000000000000002
sS'nBlades'
p406
I3
sS'expCabMass'
p407
F71.900000000000006
sS'subsPileCR'
p408
F2250
sS'wharfRate'
p409
F2.75
sS'Rhub'
p410
F1.125
sS'vs_electronics_mass_cost_coeff'
p411
F26.5
sS'tower_outfitting_factor'
p412
F1.0700000000000001
sS'scourMat'
p413
F250000
sS'laydownCR'
p414
F0.25
sS'hub_assemblyCostMultiplier'
p415
F0
sS'anchor_type'
p416
S'suctionpile'
p417
sS'jlatticeA'
p418
F26
sS'drivetrainType'
p419
I0
sS'pitch_extreme'
p420
F0
sS'main_wall_thickness'
p421
g8
(g9
(I0
tS'b'
tRp422
(I1
(I4
tg12
I00
S'\xd6\xe7\xa5m\xab\x02\xaf?\xd6\xe7\xa5m\xab\x02\xaf?\xd6\xe7\xa5m\xab\x02\xaf?\xd6\xe7\xa5m\xab\x02\xaf?'
tbsS'mean_current_speed'
p423
F0
sS'nac_cm'
p424
g8
(g9
(I0
tS'b'
tRp425
(I1
(I3
tg51
I00
S'\x85\xebQ\xb8\x1e\x85\x05@\x00\x00\x00\x00\x00\x00\x00\x00333333\x03@'
tbsS'subsTopDes'
p426
F4500000
sS'moorLoadout'
p427
F5
sS'tower_section_height'
p428
g8
(g9
(I0
tS'b'
tRp429
(I1
(I3
tg12
I00
S'UUUUU\xd5C@UUUUU\xd5C@UUUUU\xd5C@'
tbsS'navStudyProj'
p430
F250000
sS'buryFac'
p431
F0.10000000000000001
sS'cab2CR'
p432
F202.78800000000001
sS'air_density'
p433
F1.198
sS'offset_section_height'
p434
g8
(g9
(I0
tS'b'
tRp435
(I1
(I4
tg20
I00
S'cr\xf5\xce,\x9d\xee?w\x00\xad\xac#C\xfc?\x83\xaa\xa7\xed\x82^3@0\xbaq\xd5\xde7\x17@'
tbsS'strain_ult_te'
p436
F0.0050000000000000001
sS'turbine_overheadCostMultiplier'
p437
F0
sS'placePiles'
p438
F12
sS'main_permanent_ballast_height'
p439
g14
(g15
S'\xad\xf4^(E\xac\x13@'
tRp440
sS'diveTeamDR'
p441
F3200
sS'arrayY'
p442
F9
sS'bedplate_mass'
p443
F93090.600000000006
sS'mooring_line_length'
p444
g14
(g15
S'\xfc`i\x821\x9a\xa6@'
tRp445
sS'wind_reference_speed'
p446
F11
sS'control_maxOmega'
p447
F8.887659696962098
sS'crane'
p448
I00
sS'hub_mass_cost_coeff'
p449
F3.7999999999999998
sS'operational_heel'
p450
F6
sS'removeHamMono'
p451
F2
sS'connection_ratio_max'
p452
F0.25
sS'hss_mass_cost_coeff'
p453
F8.25
sS'spMoorCheck'
p454
F16
sS'spinner_mass_cost_coeff'
p455
F23
sS'pileSpreadDR'
p456
F2500
sS'lss_mass'
p457
F31257.299999999999
sS'mooring_lines_per_connection'
p458
g14
(g15
S'\x00\x00\x00\x00\x00\x00\x00@'
tRp459
sS'anchor_radius'
p460
g14
(g15
S'nfjM\x14\xd8\xa5@'
tRp461
sS'pontoon_outer_diameter'
p462
g14
(g15
S'\xd4\x8b\xe2\x9fO\xd2!@'
tRp463
sS'moorTimeFac'
p464
F0.0050000000000000001
sS'shorePullIn'
p465
F96
sS'natHisPresAct'
p466
F250000
sS'scrapVal'
p467
F0
sS'mooring_cost_rate'
p468
F1.1000000000000001
sS'bedplate_mass_cost_coeff'
p469
F4.5
sS'nu'
p470
F0.26000000000000001
sS'arrCab2Mass'
p471
F21.853999999999999
sS'E'
F200000000000
sS'cab2CurrRating'
p472
F340
sS'boltTower'
p473
F7
sS'cabLoadout'
p474
F14
sS'subsPullIn'
p475
F48
sS'vesselPosJack'
p476
F8
sS'nacelle_assemblyCostMultiplier'
p477
F0
sS'install_contingency'
p478
F0.29999999999999999
sS'mooring_type'
p479
S'chain'
p480
sS'decomDiscRate'
p481
F0.029999999999999999
s(lp482
(lp483
S'fairlead_location'
p484
aF0
aF1
aa(lp485
S'fairlead_support_wall_thickness'
p486
aF0.001
aF1
aa(lp487
S'fairlead_support_outer_diameter'
p488
aF0.10000000000000001
aF10
aa(lp489
S'main_freeboard'
p490
aF0
aF50
aa(lp491
S'main_section_height'
p492
aF0.10000000000000001
aF50
aa(lp493
S'main_outer_diameter'
p494
aF2.1000000000000001
aF40
aa(lp495
S'main_wall_thickness'
p496
aF0.001
aF0.5
aa(lp497
S'main_buoyancy_tank_diameter'
p498
aF0
aF50
aa(lp499
S'main_buoyancy_tank_height'
p500
aF0
aF20
aa(lp501
S'main_buoyancy_tank_location'
p502
aF0
aF1
aa(lp503
S'offset_freeboard'
p504
aF2
aF15
aa(lp505
S'offset_section_height'
p506
aF0.10000000000000001
aF50
aa(lp507
S'offset_outer_diameter'
p508
aF1.1000000000000001
aF40
aa(lp509
S'offset_wall_thickness'
p510
aF0.001
aF0.5
aa(lp511
S'offset_buoyancy_tank_diameter'
p512
aF0
aF50
aa(lp513
S'offset_buoyancy_tank_height'
p514
aF0
aF20
aa(lp515
S'offset_buoyancy_tank_location'
p516
aF0
aF1
aa(lp517
S'pontoon_outer_diameter'
p518
aF1
aF10
aa(lp519
S'pontoon_wall_thickness'
p520
aF0.01
aF1
aa(lp521
S'main_pontoon_attach_lower'
p522
aF0
aF0.5
aa(lp523
S'main_pontoon_attach_upper'
p524
aF0.5
aF1
aa(lp525
S'mooring_line_length'
p526
aF200
aF3000
aa(lp527
S'anchor_radius'
p528
aF100
aF5000
aa(lp529
S'mooring_diameter'
p530
aF0.050000000000000003
aF2
aa(lp531
S'main_permanent_ballast_height'
p532
aF0.10000000000000001
aF50
aa(lp533
S'main_stiffener_web_height'
p534
aF0.01
aF1
aa(lp535
S'main_stiffener_web_thickness'
p536
aF0.001
aF0.5
aa(lp537
S'main_stiffener_flange_width'
p538
aF0.01
aF5
aa(lp539
S'main_stiffener_flange_thickness'
p540
aF0.001
aF0.5
aa(lp541
S'main_stiffener_spacing'
p542
aF0.10000000000000001
aF100
aa(lp543
S'offset_stiffener_web_height'
p544
aF0.01
aF1
aa(lp545
S'offset_stiffener_web_thickness'
p546
aF0.001
aF0.5
aa(lp547
S'offset_stiffener_flange_width'
p548
aF0.01
aF5
aa(lp549
S'offset_stiffener_flange_thickness'
p550
aF0.001
aF0.5
aa(lp551
S'offset_stiffener_spacing'
p552
aF0.10000000000000001
aF100
aa(lp553
S'offset_permanent_ballast_height'
p554
aF0.10000000000000001
aF50
aa(lp555
S'radius_to_offset_column'
p556
aF5
aF100
aa(lp557
(lp558
S'tow.height_constraint'
p559
aF-0.01
aF0.01
aNaa(lp560
S'main.draft'
p561
aF0
aF20
aNaa(lp562
S'off.draft'
p563
aF0
aF20
aNaa(lp564
S'main.draft_margin'
p565
aF0
aF1
aNaa(lp566
S'off.draft_margin'
p567
aF0
aF1
aNaa(lp568
S'main.wave_height_freeboard_ratio'
p569
aNaF1
aNaa(lp570
S'off.wave_height_freeboard_ratio'
p571
aNaF1
aNaa(lp572
S'main_offset_spacing'
p573
aF1
aNaNaa(lp574
S'main.manufacturability'
p575
aF0
aNaNaa(lp576
S'main.weldability'
p577
aNaF0
aNaa(lp578
S'off.manufacturability'
p579
aF0
aNaNaa(lp580
S'off.weldability'
p581
aNaF0
aNaa(lp582
S'tower_transition_buffer'
p583
aF-1
aF1
aNaa(lp584
S'nacelle_transition_buffer'
p585
aF0
aNaNaa(lp586
S'offset_freeboard_heel_margin'
p587
aF0
aNaNaa(lp588
S'offset_draft_heel_margin'
p589
aF0
aF20
aNaa(lp590
S'axial_unity'
p591
aF0
aF1
aNaa(lp592
S'mooring_length_max'
p593
aNaF1
aNaa(lp594
S'main.flange_spacing_ratio'
p595
aNaF1
aNaa(lp596
S'main.stiffener_radius_ratio'
p597
aNaF0.5
aNaa(lp598
S'main.flange_compactness'
p599
aF1
aNaNaa(lp600
S'main.web_compactness'
p601
aF1
aNaNaa(lp602
S'main.axial_local_api'
p603
aNaF1
aNaa(lp604
S'main.axial_general_api'
p605
aNaF1
aNaa(lp606
S'main.external_local_api'
p607
aNaF1
aNaa(lp608
S'main.external_general_api'
p609
aNaF1
aNaa(lp610
S'off.flange_spacing_ratio'
p611
aNaF1
aNaa(lp612
S'off.stiffener_radius_ratio'
p613
aNaF0.5
aNaa(lp614
S'off.flange_compactness'
p615
aF1
aNaNaa(lp616
S'off.web_compactness'
p617
aF1
aNaNaa(lp618
S'off.axial_local_api'
p619
aNaF1
aNaa(lp620
S'off.axial_general_api'
p621
aNaF1
aNaa(lp622
S'off.external_local_api'
p623
aNaF1
aNaa(lp624
S'off.external_general_api'
p625
aNaF1
aNaa(lp626
S'pontoon_stress'
p627
aNaF1
aNaa(lp628
S'tower_stress'
p629
aNaF1
aNaa(lp630
S'tower_shell_buckling'
p631
aNaF1
aNaa(lp632
S'tower_global_buckling'
p633
aNaF1
aNaa(lp634
S'main_stress'
p635
aNaF1
aNaa(lp636
S'main_shell_buckling'
p637
aNaF1
aNaa(lp638
S'main_global_buckling'
p639
aNaF1
aNaa(lp640
S'offset_stress'
p641
aNaF1
aNaa(lp642
S'offset_shell_buckling'
p643
aNaF1
aNaa(lp644
S'offset_global_buckling'
p645
aNaF1
aNaa(lp646
S'variable_ballast_height_ratio'
p647
aF0
aF1
aNaa(lp648
S'variable_ballast_mass'
p649
aF0
aNaNaa(lp650
S'metacentric_height'
p651
aF0.10000000000000001
aNaNaa(lp652
S'offset_force_ratio'
p653
aNaF1
aNaa(lp654
S'heel_moment_ratio'
p655
aNaF1
aNaa(lp656
S'period_margin_low'
p657
aNaF1
aNaa(lp658
S'period_margin_high'
p659
aF1
aNaNaa(lp660
S'Pn_margin'
p661
aNaF1
aNaa(lp662
S'P1_margin'
p663
aNaF1
aNaa(lp664
S'Pn_margin_cfem'
p665
aNaF1
aNaa(lp666
S'P1_margin_cfem'
p667
aNaF1
aNaa(lp668
S'rotor_strain_sparU'
p669
aF-1
aNaNaa(lp670
S'rotor_strain_sparL'
p671
aNaF1
aNaa(lp672
S'rotor_strain_teU'
p673
aF-1
aNaNaa(lp674
S'rotor_strain_teL'
p675
aNaF1
aNaa(lp676
S'rotor_buckling_sparU'
p677
aNaF1
aNaa(lp678
S'rotor_buckling_sparL'
p679
aNaF1
aNaa(lp680
S'rotor_buckling_teU'
p681
aNaF1
aNaa(lp682
S'rotor_buckling_teL'
p683
aNaF1
aNaa(lp684
S'rotor_damage_sparU'
p685
aNaF0
aNaa(lp686
S'rotor_damage_sparL'
p687
aNaF0
aNaa(lp688
S'rotor_damage_teU'
p689
aNaF0
aNaa(lp690
S'rotor_damage_teL'
p691
aNaF0
aNaa(lp692
S'ground_clearance'
p693
aF20
aNaNaa(S'total_cost'
p694
F1.0000000000000001e-09
tp695
S'NM'
p696
t.