((dp1
S'generator_mass'
p2
F16699.849999999999
sS'turbine_profitMultiplier'
p3
F0
sS'prepGripperJack'
p4
F8
sS'tpCover'
p5
F1.5
sS'main_stiffener_flange_width'
p6
cnumpy.core.multiarray
_reconstruct
p7
(cnumpy
ndarray
p8
(I0
tS'b'
tRp9
(I1
(I5
tcnumpy
dtype
p10
(S'f8'
I0
I1
tRp11
(I3
S'<'
NNNI-1
I-1
I0
tbI00
S'6\xba\x88\xbeV\xaf\xb0?\xe3C(E\xd7:\xd7?M\xbe;\xb4\xb6\xee\xfe?#\x07hE\xe3\xe9\xef?\xc1\xd9%,\x8e\xe9\xde?'
tbsS'cross_attachment_pontoons_int'
p12
cnumpy.core.multiarray
scalar
p13
(g10
(S'f8'
I0
I1
tRp14
(I3
S'<'
NNNI-1
I-1
I0
tbS'\x00\x00\x00\x00\x00\x00\x00\x00'
tRp15
sS'faaPlan'
p16
F10000
sS'main_section_height'
p17
g7
(g8
(I0
tS'b'
tRp18
(I1
(I5
tg11
I00
S"\x04\x9bs3Q\x03(@S\\\x8c\x1e\xef\xbe\xf8?\x0c\xa6\xa1\x17\xc2v\x1b@\t\xda\xec\x82\xf5b'@\x06\x1d\xa56\xd0<'@"
tbsS'transformer_mass'
p19
F1000
sS'otherAncillary'
p20
F3000000
sS'precurve_tip'
p21
F0
sS'jtransCR'
p22
F4500
sS'mpileD'
p23
F0
sS'offset_buoyancy_tank_diameter'
p24
g13
(g14
S"\xc4\xf9V\t@'%@"
tRp25
sS'medVoltSG'
p26
F500000
sS'mpileL'
p27
F0
sS'generator_mass_cost_coeff'
p28
F17.43
sS'jpileL'
p29
F47.5
sS'plantComm'
p30
F0.01
sS'subsLoad'
p31
F60
sS'jpileD'
p32
F1.6000000000000001
sS'capital_cost_year_4'
p33
F0
sS'main_bearing_mass'
p34
F4865.7049999999999
sS'main_freeboard'
p35
g13
(g14
S'n\x16\xf6\x9c\xb5\xff=@'
tRp36
sS'cabPullIn'
p37
F5.5
sS'material_density'
p38
F7850
sS'dynCabFac'
p39
F2
sS'cab1CurrRating'
p40
F300
sS'crane600DR'
p41
F5000
sS'arrVoltage'
p42
F33
sS'elec_connec_cost_esc'
p43
F1.5
sS'gearbox_mass'
p44
F30237.599999999999
sS'construction_insurance'
p45
F0.01
sS'cab2SubsInterCR'
p46
F19815
sS'tax_rate'
p47
F0.40000000000000002
sS'presweep_in'
p48
g7
(g8
(I0
tS'b'
tRp49
(I1
(I5
tg10
(S'f8'
I0
I1
tRp50
(I3
S'<'
NNNI-1
I-1
I0
tbI00
S'\x00\x00\x00\x00\x00\x00\x00\x00\x00\x00\x00\x00\x00\x00\x00\x00\x00\x00\x00\x00\x00\x00\x00\x00\x00\x00\x00\x00\x00\x00\x00\x00\x00\x00\x00\x00\x00\x00\x00\x00'
tbsS'permanent_ballast_density'
p51
F4492
sS'expCabLoad'
p52
F24
sS'groutSpreadMob'
p53
F1000000
sS'machine_rating'
p54
F10000000
sS'socEconStudyMet'
p55
F500000
sS'cleanWatAct402'
p56
F100000
sS'mpvRentalDR'
p57
F72000
sS'distAtoS'
p58
F90
sS'cover_mass'
p59
F1000
sS'lower_attachment_pontoons_int'
p60
g13
(g14
S'\x00\x00\x00\x00\x00\x00\xf0?'
tRp61
sS'usecd'
p62
I01
sS'radius_to_offset_column'
p63
g13
(g14
S'\x8euq8\xa4\xecJ@'
tRp64
sS'surfLayRate'
p65
F375
sS'physResStudyProj'
p66
F500000
sS'seaSpreadDR'
p67
F165000
sS'z_offset'
p68
F0
sS'prepAA'
p69
F168
sS'number_of_mooring_connections'
p70
I3
sS'offset_stiffener_web_thickness'
p71
g7
(g8
(I0
tS'b'
tRp72
(I1
(I5
tg11
I00
S'7\xea\x14\xee\xc1\xb1\xdf?+\xb7\xfb@\x88\xe7\xc3?\xf6d\xf3q\x1a\x8cx?rDJh\x87\xbck?\x1a\xad3\x12h\xdf\x97?'
tbsS'dynamic_amplication_tip_deflection'
p73
F1.3500000000000001
sS'mpEmbedL'
p74
F30
sS'arrCab1Mass'
p75
F20.384
sS'turbine_assemblyCostMultiplier'
p76
F0
sS'turbInstallMethod'
p77
I0
sS'tower_assemblyCostMultiplier'
p78
F0
sS'column_mass_factor'
p79
F1.05
sS'offset_outer_diameter'
p80
g7
(g8
(I0
tS'b'
tRp81
(I1
(I6
tg11
I00
S'\x8a\x05&\xe6\x16\x02(@\x91M\xbf\x9c\x06~:@\x9f\xder\xeb1\x86%@\x0b*_\xe7\xdd\x92"@H\x05\xf9z\xbc\x0c\x1b@U\x93\x9e-,\xce\x18@'
tbsS'yield_stress'
p82
F345000000
sS'rstar_damage'
p83
g7
(g8
(I0
tS'b'
tRp84
(I1
(I51
tg50
I00
S'\x00\x00\x00\x00\x00\x00\x00\x00{\x14\xaeG\xe1z\x94?{\x14\xaeG\xe1z\xa4?\xb8\x1e\x85\xebQ\xb8\xae?{\x14\xaeG\xe1z\xb4?\x9a\x99\x99\x99\x99\x99\xb9?\xb8\x1e\x85\xebQ\xb8\xbe?\xecQ\xb8\x1e\x85\xeb\xc1?{\x14\xaeG\xe1z\xc4?\n\xd7\xa3p=\n\xc7?\x9a\x99\x99\x99\x99\x99\xc9?)\\\x8f\xc2\xf5(\xcc?\xb8\x1e\x85\xebQ\xb8\xce?\xa4p=\n\xd7\xa3\xd0?\xecQ\xb8\x1e\x85\xeb\xd1?333333\xd3?{\x14\xaeG\xe1z\xd4?\xc3\xf5(\\\x8f\xc2\xd5?\n\xd7\xa3p=\n\xd7?R\xb8\x1e\x85\xebQ\xd8?\x9a\x99\x99\x99\x99\x99\xd9?\xe1z\x14\xaeG\xe1\xda?)\\\x8f\xc2\xf5(\xdc?q=\n\xd7\xa3p\xdd?\xb8\x1e\x85\xebQ\xb8\xde?\x00\x00\x00\x00\x00\x00\xe0?\xa4p=\n\xd7\xa3\xe0?H\xe1z\x14\xaeG\xe1?\xecQ\xb8\x1e\x85\xeb\xe1?\x8f\xc2\xf5(\\\x8f\xe2?333333\xe3?\xd7\xa3p=\n\xd7\xe3?{\x14\xaeG\xe1z\xe4?\x1f\x85\xebQ\xb8\x1e\xe5?\xc3\xf5(\\\x8f\xc2\xe5?gfffff\xe6?\n\xd7\xa3p=\n\xe7?\xaeG\xe1z\x14\xae\xe7?R\xb8\x1e\x85\xebQ\xe8?\xf6(\\\x8f\xc2\xf5\xe8?\x9a\x99\x99\x99\x99\x99\xe9?>\n\xd7\xa3p=\xea?\xe1z\x14\xaeG\xe1\xea?\x85\xebQ\xb8\x1e\x85\xeb?)\\\x8f\xc2\xf5(\xec?\xcd\xcc\xcc\xcc\xcc\xcc\xec?q=\n\xd7\xa3p\xed?\x15\xaeG\xe1z\x14\xee?\xb8\x1e\x85\xebQ\xb8\xee?\\\x8f\xc2\xf5(\\\xef?\x00\x00\x00\x00\x00\x00\xf0?'
tbsS'precone'
p85
F4
sS'nacelle_transportMultiplier'
p86
F0
sS'Mxb_damage'
p87
g7
(g8
(I0
tS'b'
tRp88
(I1
(I51
tg50
I00
S'\x11\xea-\x81\x99\x97q=\x11\xea-\x81\x99\x97q=\x11\xea-\x81\x99\x97q=\x11\xea-\x81\x99\x97q=\x11\xea-\x81\x99\x97q=\x11\xea-\x81\x99\x97q=\x11\xea-\x81\x99\x97q=\x11\xea-\x81\x99\x97q=\x11\xea-\x81\x99\x97q=\x11\xea-\x81\x99\x97q=\x11\xea-\x81\x99\x97q=\x11\xea-\x81\x99\x97q=\x11\xea-\x81\x99\x97q=\x11\xea-\x81\x99\x97q=\x11\xea-\x81\x99\x97q=\x11\xea-\x81\x99\x97q=\x11\xea-\x81\x99\x97q=\x11\xea-\x81\x99\x97q=\x11\xea-\x81\x99\x97q=\x11\xea-\x81\x99\x97q=\x11\xea-\x81\x99\x97q=\x11\xea-\x81\x99\x97q=\x11\xea-\x81\x99\x97q=\x11\xea-\x81\x99\x97q=\x11\xea-\x81\x99\x97q=\x11\xea-\x81\x99\x97q=\x11\xea-\x81\x99\x97q=\x11\xea-\x81\x99\x97q=\x11\xea-\x81\x99\x97q=\x11\xea-\x81\x99\x97q=\x11\xea-\x81\x99\x97q=\x11\xea-\x81\x99\x97q=\x11\xea-\x81\x99\x97q=\x11\xea-\x81\x99\x97q=\x11\xea-\x81\x99\x97q=\x11\xea-\x81\x99\x97q=\x11\xea-\x81\x99\x97q=\x11\xea-\x81\x99\x97q=\x11\xea-\x81\x99\x97q=\x11\xea-\x81\x99\x97q=\x11\xea-\x81\x99\x97q=\x11\xea-\x81\x99\x97q=\x11\xea-\x81\x99\x97q=\x11\xea-\x81\x99\x97q=\x11\xea-\x81\x99\x97q=\x11\xea-\x81\x99\x97q=\x11\xea-\x81\x99\x97q=\x11\xea-\x81\x99\x97q=\x11\xea-\x81\x99\x97q=\x11\xea-\x81\x99\x97q=\x11\xea-\x81\x99\x97q='
tbsS'mooring_diameter'
p89
g13
(g14
S'\xff\xef\x07\xc7\x8c\xad\xd1?'
tRp90
sS'hub_mass'
p91
F105520
sS'cab1CR'
p92
F185.88900000000001
sS'cd_usr'
p93
Finf
sS'main_buoyancy_tank_height'
p94
g13
(g14
S'V\x84\xda\xb7\xb2b\xfe?'
tRp95
sS'buryDepth'
p96
F2
sS'nac_I'
p97
g7
(g8
(I0
tS'b'
tRp98
(I1
(I6
tg50
I00
S'\x00\x00\x00`\xb4[\\A\x00\x00\x00\x8e\x82\ngA\x00\x00\x00\x8e\x82\ngA\x00\x00\x00\x00\x00\x00\x00\x00\x00\x00\x00\x00\x00\x00\x00\x00\x00\x00\x00\x00\x00\x00\x00\x00'
tbsS'monoFasten'
p99
F12
sS'tilt'
p100
F6
sS'nSector'
p101
I4
sS'offset_buoyancy_tank_location'
p102
g13
(g14
S'\xee\r\xc7Z\x03\xf1\xa4?'
tRp103
sS'tower_wall_thickness'
p104
g7
(g8
(I0
tS'b'
tRp105
(I1
(I6
tg10
(S'f8'
I0
I1
tRp106
(I3
S'<'
NNNI-1
I-1
I0
tbI00
S'\xe0\xa3p=\n\xd7\xd3?@33333\xd3?\x00R\xb8\x1e\x85\xeb\xc1?@\\\x8f\xc2\xf5(\xbc?\x80\x1e\x85\xebQ\xb8\xae?\x80\x1e\x85\xebQ\xb8\xae?'
tbsS'controls_cost_main'
p107
g7
(g8
(I0
tS'b'
tRp108
(I1
(I2
tg50
I00
S'\x00\x00\x00\x00\x00\x17\xe1@\x00\x00\x00\x00\x80K\xeb@'
tbsS'offshore'
p109
I01
sS'substructure'
p110
I3
sS'interest_during_construction'
p111
F0.080000000000000002
sS'offset_stiffener_flange_thickness'
p112
g7
(g8
(I0
tS'b'
tRp113
(I1
(I5
tg11
I00
S'3\xf9[\x15\x97\x15\xd3?\x8e\xf3n\xff\x89\xd6\xdf?\x8f\x8f^\x11q\xa4\xcb?\x0b/a\xb8)$\xc4?#\x16\xfd\x03\xd9y\xc4?'
tbsS'placeMP'
p114
F3
sS'hubFraction'
p115
F0.023784901758014475
sS'feedStudy'
p116
F10000000
sS'preFEEDStudy'
p117
F5000000
sS'cableOptimizer'
p118
I00
sS'platforms_mass_cost_coeff'
p119
F8.6999999999999993
sS'hvac_mass_cost_coeff'
p120
F163.94999999999999
sS'upper_attachment_pontoons_int'
p121
g13
(g14
S'\x00\x00\x00\x00\x00\x00\x00\x00'
tRp122
sS'nepaEisMet'
p123
F2000000
sS'pontoon_cost_rate'
p124
F6.25
sS'yaw_mass_cost_coeff'
p125
F11.01
sS'subsTopFab'
p126
F14500
sS'dummy_mass'
p127
F9.9999999999999998e-13
sS'elec_connec_machine_rating_cost_coeff'
p128
F40
sS'fixed_charge_rate'
p129
F0.12
sS'water_viscosity'
p130
F0.00088999999999999995
sS'spMoorCon'
p131
F20
sS'wind_reference_height'
p132
F119
sS'outfitting_cost_rate'
p133
F6980
sS'air_viscosity'
p134
F1.8099999999999999e-05
sS'shape_parameter'
p135
F0
sS'prepSemi'
p136
F12
sS'prepTow'
p137
F12
sS'control_Vout'
p138
F25
sS'max_taper_ratio'
p139
F0.40000000000000002
sS'hub_profitMultiplier'
p140
F0
sS'tower_overheadCostMultiplier'
p141
F0
sS'platforms_mass'
p142
F1000
sS'socEconStudyProj'
p143
F200000
sS'gust_stddev'
p144
I3
sS'boltRotor'
p145
F7
sS'wave_period_range_high'
p146
F20
sS'vs_electronics_mass'
p147
F1000
sS'inspectClear'
p148
F2
sS'teT_in'
p149
g7
(g8
(I0
tS'b'
tRp150
(I1
(I5
tg50
I00
S'\xf4(\xfb\x97\x18\x81\xa5?\xad\xb1B\x13!\x8a\xb0?\xaf\xbf\xedj\xe1\xd6\xab?Y\xc3\xb4`\x17}\x90?\xe24"\xc9\xe3Gl?'
tbsS'morison_mass_coefficient'
p151
F2
sS'seaSpreadMob'
p152
F4500000
sS'wind_bottom_height'
p153
F0
sS'wave_period_range_low'
p154
F2
sS'stateLease'
p155
F250000
sS'offset_permanent_ballast_height'
p156
g13
(g14
S'\xe3\x8a\x15\xd9\xbdB\xd4?'
tRp157
sS'ssMoorCheck'
p158
F12
sS'main_stiffener_spacing'
p159
g7
(g8
(I0
tS'b'
tRp160
(I1
(I5
tg11
I00
S'zy\xcc\x18\x14/%@8:\xb5\x03\xf7\x8a"@\x80*xfbf-@\xb2z6\xe4\xee\xb40@\xfbV\x08`\xc0\x9f:@'
tbsS'tower_outer_diameter'
p161
g7
(g8
(I0
tS'b'
tRp162
(I1
(I6
tg106
I00
S'\x00\x00\x00\x00\x00\x00"@\x00\x00\x00\x00\x00\x00"@\x9a\x99\x99\x99\x99\x99 @\xa4p=\n\xd7\xa3\x1b@\x00\x00\x00\x00\x00\x00\x16@\x00\x00\x00\x00\x00\x00\x16@'
tbsS'conOpPlan'
p163
F1000000
sS'outfitting_mass_fraction'
p164
F0.059999999999999998
sS'capital_cost_year_2'
p165
F0.10000000000000001
sS'capital_cost_year_3'
p166
F0.10000000000000001
sS'capital_cost_year_0'
p167
F0.20000000000000001
sS'capital_cost_year_1'
p168
F0.59999999999999998
sS'G'
F79300000000
sS'capital_cost_year_5'
p169
F0
sS'max_offset'
p170
F100
sS'control_minOmega'
p171
F6
sS'prepGripperMono'
p172
F1.5
sS'cabTerm'
p173
F5.5
sS'workSpace'
p174
F2000000
sS'main_bulkhead_thickness'
p175
g7
(g8
(I0
tS'b'
tRp176
(I1
(I6
tg106
I00
S'\x9a\x99\x99\x99\x99\x99\xa9?\x9a\x99\x99\x99\x99\x99\xa9?\x00\x00\x00\x00\x00\x00\x00\x00\x00\x00\x00\x00\x00\x00\x00\x00\x00\x00\x00\x00\x00\x00\x00\x00\x9a\x99\x99\x99\x99\x99\xa9?'
tbsS'vesselPosMono'
p177
F3
sS'boltBlade1'
p178
F3.5
sS'groutTP'
p179
F8
sS'boltBlade2'
p180
F3.5
sS'wind_beta'
p181
F0
sS'landConstruct'
p182
F7
sS'subsJackCR'
p183
F6250
sS'tiploss'
p184
I01
sS'hub_overheadCostMultiplier'
p185
F0
sS'control_pitch'
p186
F0
sS'azimuth_extreme'
p187
F0
sS'prepSpar'
p188
F18
sS'number_install_seasons'
p189
F1
sS'transformer_mass_cost_coeff'
p190
F26.5
sS'turbine_class'
p191
I0
sS'distInterCon'
p192
F3
sS'rivsnHarbsAct'
p193
F100000
sS'navStudyMet'
p194
F500000
sS'jackFasten'
p195
F20
sS'coastZoneManAct'
p196
F100000
sS'distPtoA'
p197
F90
sS'saPlan'
p198
F500000
sS'nCrane1000'
p199
F0
sS'bioResStudyMet'
p200
F1500000
sS'procurement_contingency'
p201
F0.050000000000000003
sS'jpileCR'
p202
F2250
sS'metTowCR'
p203
F11518
sS'jlatticeCR'
p204
F4680
sS'outer_cross_pontoons_int'
p205
g13
(g14
S'\x00\x00\x00\x00\x00\x00\x00\x00'
tRp206
sS'main_hardware_cost_coeff'
p207
F0.69999999999999996
sS'water_depth'
p208
F320
sS'control_tsr'
p209
F10.58
sS'VfactorPC'
p210
F0.69999999999999996
sS'levJack'
p211
F24
sS'pwrFac'
p212
F0.94999999999999996
sS'placeJack'
p213
F12
sS'upper_ring_pontoons_int'
p214
g13
(g14
S'\x00\x00\x00\x00\x00\x00\x00\x00'
tRp215
sS'main_stiffener_web_thickness'
p216
g7
(g8
(I0
tS'b'
tRp217
(I1
(I5
tg11
I00
S'\x1c\xfa\x18\xa6\xbb#\xb7?q\xb5\xdc[\xfa\xea\xdf?\xac\xafk\xceL\xa4\xc5?\x1e:\r\x8c\xc6\\\xc1?\x1eB\xc6&\xdfb\xac?'
tbsS'endSpecAct'
p218
F500000
sS'AEP_loss_factor'
p219
F1
sS'prepHamJack'
p220
F2
sS'water_density'
p221
F1025
sS'arrayX'
p222
F9
sS'expSubsInterCR'
p223
F57500
sS'min_diameter_thickness_ratio'
p224
F120
sS'offset_wall_thickness'
p225
g7
(g8
(I0
tS'b'
tRp226
(I1
(I6
tg11
I00
S'\xfcM\xf5$)\x8b\xb9?0P\xdc\xe9*0\xc9?]\xaf\x9fH\x11\x16\xb4?\xbeZhV}\x10\x96?r[\xf4d\xc00\xa6?\xe7J\x1c\r\x83Fq?'
tbsS'blade_mass_cost_coeff'
p227
F13.08
sS'turbFasten'
p228
F8
sS'hub_transportMultiplier'
p229
F0
sS'pitch_system_mass_cost_coeff'
p230
F22.91
sS'upendSpar'
p231
F36
sS'hub_I'
p232
g7
(g8
(I0
tS'b'
tRp233
(I1
(I6
tg50
I00
S'\x9eV\xe4\xeaZ\xe2\x13AGl\x9d\xa5\xf1\xda\x08AGl\x9d\xa5\xf1\xda\x08A\x00\x00\x00\x00\x00\x00\x00\x00\x00\x00\x00\x00\x00\x00\x00\x00\x00\x00\x00\x00\x00\x00\x00\x00'
tbsS'expCurrRating'
p234
F530
sS'turbulence_class'
p235
I1
sS'cover_mass_cost_coeff'
p236
F7.6100000000000003
sS'main_pontoon_attach_lower'
p237
g13
(g14
S'Xk\xb4\xa2\xf5\xd8\xb9?'
tRp238
sS'entranceExitRate'
p239
F0.52500000000000002
sS'lss_mass_cost_coeff'
p240
F12.6
sS'exCabFac'
p241
F0.10000000000000001
sS'moorSurvey'
p242
F4
sS'hub_height'
p243
F149
sS'offset_stiffener_web_height'
p244
g7
(g8
(I0
tS'b'
tRp245
(I1
(I5
tg11
I00
S'\xc88rg6:\xc7?\xcc2\xa6jd\xb8\xda?;J\xb1\xd6\xc1\xe3\xc0?]\xcf\x9c\xadZ;\xb3?\xec\x12oNa\x1d\xbc?'
tbsS'groutSpreadDR'
p246
F3000
sS'craneMobDemob'
p247
F150000
sS'bladeLength'
p248
F96.700000000000003
sS'placeTop'
p249
F24
sS'discount_rate'
p250
F0.070000000000000007
sS'presweep_tip'
p251
F0
sS'gamma_fatigue'
p252
F1.7550000000000001
sS'tower_transportMultiplier'
p253
F0
sS'mptCR'
p254
F12500
sS'winchDR'
p255
F1000
sS'instScour'
p256
F6
sS'r_max_chord'
p257
g13
(g14
S'\x9b\xe6\x1d\xa7\xe8H\xce?'
tRp258
sS'ssMoorCon'
p259
F22
sS'bioResStudyProj'
p260
F500000
sS'placeTemplate'
p261
F4
sS'elecWork'
p262
F25000
sS'compRacks'
p263
F1000000
sS'distShore'
p264
F90
sS'bulkhead_mass_factor'
p265
F1
sS'elecCont'
p266
F0.29999999999999999
sS'cabSurveyCR'
p267
F240
sS'ssHeaveCR'
p268
F6250
sS'highVoltSG'
p269
F950000
sS'pitch_system_mass'
p270
F17004
sS'main_outer_diameter'
p271
g7
(g8
(I0
tS'b'
tRp272
(I1
(I6
tg11
I00
S'\x93>l\xb6\x8eI9@\x8a/\x97U\xe9\xe8&@#\r\xd6\x8adn\x1d@\xf3fS\x16\xa0\x97$@&\x99\x91\xed"\xa4!@rNIa\x01\x97#@'
tbsS'nacelleL'
p273
F-inf
sS'cab2TurbInterCR'
p274
F8615
sS'hamRate'
p275
F20
sS'nacelle_overheadCostMultiplier'
p276
F0
sS'crane1000DR'
p277
F8000
sS'nacelle_profitMultiplier'
p278
F0
sS'nacelleW'
p279
F-inf
sS'main_pontoon_attach_upper'
p280
g13
(g14
S'6\x8e#;\xc2\xb5\xed?'
tRp281
sS'tower_buckling_length'
p282
F30
sS'substructCont'
p283
F0.29999999999999999
sS'control_Vin'
p284
F4
sS'turbCont'
p285
F0.29999999999999999
sS'wave_period'
p286
F9.8000000000000007
sS'prepHamMono'
p287
F2
sS'wakerotation'
p288
I01
sS'tower_profitMultiplier'
p289
F0
sS'main_stiffener_flange_thickness'
p290
g7
(g8
(I0
tS'b'
tRp291
(I1
(I5
tg11
I00
S'+\xe2F\xc6\xba\xb4\xb1?\xc9x\xe9q,|\xd7?\x10\xb2\xef\xf7\x17\xcd\xc1?\xdeJ\xfe\xe9\xb0\xe5\xdf?\xe6\x94\x94K\xa9!\xc8?'
tbsS'nepaEisProj'
p292
F5000000
sS'pontoon_wall_thickness'
p293
g13
(g14
S'~\xc5\x01P\x03b\x94?'
tRp294
sS'cabDrillCR'
p295
F3200
sS'physResStudyMet'
p296
F1500000
sS'main_buoyancy_tank_location'
p297
g13
(g14
S'\xdc,cj6?\xf1>'
tRp298
sS'strain_ult_spar'
p299
F0.01
sS'expCabCR'
p300
F495.411
sS'base_hardware_cost_coeff'
p301
F0.69999999999999996
sS'annual_opex'
p302
F700000
sS'hub_cm'
p303
g7
(g8
(I0
tS'b'
tRp304
(I1
(I3
tg50
I00
S'ffffff\x1c\xc0\x00\x00\x00\x00\x00\x00\x00\x00\x00\x00\x00\x00\x00\x00\x06@'
tbsS'marMamProtAct'
p305
F500000
sS'sparT_in'
p306
g7
(g8
(I0
tS'b'
tRp307
(I1
(I5
tg50
I00
S'Xh\x82\xe1[b\xa0?\xfc\x8d\xa5=\x19\xa0\xa9?\xdcC!\x10\xd0\xcc\xb5?k\xcbD\xc9\xbc\xe8\xb3?~&\x13\xd1\x020\x88?'
tbsS'backUpGen'
p308
F1000000
sS'gamma_m'
p309
F1.3
sS'gamma_n'
p310
F1
sS'number_of_offset_columns'
p311
I3
sS'yaw'
p312
F0
sS'gamma_f'
p313
F1.3500000000000001
sS'offset_freeboard'
p314
g13
(g14
S'-@u\xd8T\xe2+@'
tRp315
sS'gamma_b'
p316
F1.1000000000000001
sS'bearings_mass_cost_coeff'
p317
F6.3499999999999996
sS'pileSpreadMob'
p318
F750000
sS'ballast_cost_rate'
p319
F100
sS'yaw_mass'
p320
F11878.24
sS'number_of_turbines'
p321
I20
sS'downwind'
p322
I00
sS'spinner_mass'
p323
F1810.5
sS'main_buoyancy_tank_diameter'
p324
g13
(g14
S'\xc5\xf9\x02\x11~^\x1d@'
tRp325
sS'crane_cost'
p326
F0
sS'turbine_transportMultiplier'
p327
F0
sS'ssBall'
p328
F6
sS'vesselPosTurb'
p329
F2
sS'ring_mass_factor'
p330
F1
sS'wave_height'
p331
F10.800000000000001
sS'cleanWatAct404'
p332
F100000
sS'anchor'
p333
I0
sS'estEnMFac'
p334
F0.040000000000000001
sS'gearbox_mass_cost_coeff'
p335
F17.399999999999999
sS'chord_in'
p336
g7
(g8
(I0
tS'b'
tRp337
(I1
(I5
tg50
I00
S'gfffff\x12@\rnk\x0b\xcf\xab\x12@r\xe0\xd5rg\xf6\x17@t\xc8\xb4\xe7\x15\x10\x08@ \r\xe0-\x90\xa0\xb8?'
tbsS'precurve_in'
p338
g7
(g8
(I0
tS'b'
tRp339
(I1
(I5
tg50
I00
S'\x00\x00\x00\x00\x00\x00\x00\x80\x97\xcc\xb1\xbc\xab\x1e\xa0\xbf\x11\x02\xf2%Tp\xc6\xbf\xc5\xd5\x86\xdf>1\xeb\xbfU\x84\x9b\x8c*\xd3\x18\xc0'
tbsS'catLengFac'
p340
F0.040000000000000001
sS'Myb_damage'
p341
g7
(g8
(I0
tS'b'
tRp342
(I1
(I51
tg50
I00
S'\x11\xea-\x81\x99\x97q=\x11\xea-\x81\x99\x97q=\x11\xea-\x81\x99\x97q=\x11\xea-\x81\x99\x97q=\x11\xea-\x81\x99\x97q=\x11\xea-\x81\x99\x97q=\x11\xea-\x81\x99\x97q=\x11\xea-\x81\x99\x97q=\x11\xea-\x81\x99\x97q=\x11\xea-\x81\x99\x97q=\x11\xea-\x81\x99\x97q=\x11\xea-\x81\x99\x97q=\x11\xea-\x81\x99\x97q=\x11\xea-\x81\x99\x97q=\x11\xea-\x81\x99\x97q=\x11\xea-\x81\x99\x97q=\x11\xea-\x81\x99\x97q=\x11\xea-\x81\x99\x97q=\x11\xea-\x81\x99\x97q=\x11\xea-\x81\x99\x97q=\x11\xea-\x81\x99\x97q=\x11\xea-\x81\x99\x97q=\x11\xea-\x81\x99\x97q=\x11\xea-\x81\x99\x97q=\x11\xea-\x81\x99\x97q=\x11\xea-\x81\x99\x97q=\x11\xea-\x81\x99\x97q=\x11\xea-\x81\x99\x97q=\x11\xea-\x81\x99\x97q=\x11\xea-\x81\x99\x97q=\x11\xea-\x81\x99\x97q=\x11\xea-\x81\x99\x97q=\x11\xea-\x81\x99\x97q=\x11\xea-\x81\x99\x97q=\x11\xea-\x81\x99\x97q=\x11\xea-\x81\x99\x97q=\x11\xea-\x81\x99\x97q=\x11\xea-\x81\x99\x97q=\x11\xea-\x81\x99\x97q=\x11\xea-\x81\x99\x97q=\x11\xea-\x81\x99\x97q=\x11\xea-\x81\x99\x97q=\x11\xea-\x81\x99\x97q=\x11\xea-\x81\x99\x97q=\x11\xea-\x81\x99\x97q=\x11\xea-\x81\x99\x97q=\x11\xea-\x81\x99\x97q=\x11\xea-\x81\x99\x97q=\x11\xea-\x81\x99\x97q=\x11\xea-\x81\x99\x97q=\x11\xea-\x81\x99\x97q='
tbsS'offset_buoyancy_tank_height'
p343
g13
(g14
S'\x07\xaa\x17\xb9\x08\x84\x0b@'
tRp344
sS'offset_stiffener_spacing'
p345
g7
(g8
(I0
tS'b'
tRp346
(I1
(I5
tg11
I00
S'\xef\x8c\xa1*\x15\x1f\x0b@w\x97\x0b\x1cvt>@\xde\xe0$\x9e\x94~J@$:\x14\x84z\r*@\x12m\x0b\xed\x9d\xa1/@'
tbsS'gamma_freq'
p347
F1.1000000000000001
sS'hss_mass'
p348
F1492.45
sS'placeTP'
p349
F3
sS'nac_mass'
p350
F334527.1875
sS'buryRate'
p351
F125
sS'max_survival_heel'
p352
F15
sS'shearExp'
p353
F0.11
sS'outConShelfLease'
p354
F1000000
sS'addLocPerm'
p355
F200000
sS'project_lifetime'
p356
F20
sS'hvac_mass'
p357
F1000
sS'offset_stiffener_flange_width'
p358
g7
(g8
(I0
tS'b'
tRp359
(I1
(I5
tg11
I00
S'X\x83(\x1cL)\xe1?\xc7\xd3),,\xd6\xa8?\x97\xe8~Y\xd0\xee\xd8?\x8d7\x83\xc4\x91H\xc5?5h\x98+k\xb7\xed?'
tbsS'nCrane600'
p360
F0
sS'installStrategy'
p361
I0
sS'distPort'
p362
F90
sS'removeHamJack'
p363
F4
sS'mtransCR'
p364
F3230
sS'boltNacelle1'
p365
F7
sS'mpileCR'
p366
F2250
sS'boltNacelle3'
p367
F7
sS'boltNacelle2'
p368
F7
sS'hubloss'
p369
I01
sS'cab1TurbInterCR'
p370
F8410
sS'bearing_number'
p371
I2
sS'loading'
p372
S'hydrostatic'
p373
sS'lower_ring_pontoons_int'
p374
g13
(g14
S'\x00\x00\x00\x00\x00\x00\x00\x00'
tRp375
sS'main_stiffener_web_height'
p376
g7
(g8
(I0
tS'b'
tRp377
(I1
(I5
tg11
I00
S'\x80\x12\x1a$\xe2:\xdd? \xb1f\xb3\x7f\xff\xef?\xf7\xa4?[i"\xd1?P\xf0(`\x95\x90\xe3?_mD*\x94\xea\x86?'
tbsS'expVoltage'
p378
F220
sS'controls_cost_base'
p379
g7
(g8
(I0
tS'b'
tRp380
(I1
(I2
tg10
(S'f8'
I0
I1
tRp381
(I3
S'<'
NNNI-1
I-1
I0
tbI00
S'\x00\x00\x00\x00\x00\x17\xe1@\x00\x00\x00\x00\x80K\xeb@'
tbsS'fairlead_offset_from_shell'
p382
F6.0004865405187147
sS'rna_weightM'
p383
I01
sS'shuntCR'
p384
F35000
sS'dockRate'
p385
F3000
sS'subsVessPos'
p386
F6
sS'civilWork'
p387
F40000
sS'towerInstallMethod'
p388
I0
sS'migBirdAct'
p389
F500000
sS'fairlead_support_wall_thickness'
p390
g13
(g14
S"\x91\x18\xde'^\t\x93?"
tRp391
sS'theta_in'
p392
g7
(g8
(I0
tS'b'
tRp393
(I1
(I5
tg50
I00
S'\x00\x00\x00\x00\x00\x00-@9\xb4\xc8v\xbe\x9f*@L7\x89A`\xe5\x1a@<r\x8e\x14\xc5X\xa1\xbf\x84l\xe7\xfb\xa9\xf1\xa2\xbf'
tbsS'cabDrillDist'
p394
F500
sS'topAssemblyFac'
p395
F0.074999999999999997
sS'fairlead_support_outer_diameter'
p396
g13
(g14
S's\xf0\x17K\xf3\xff#@'
tRp397
sS'interConVolt'
p398
F345
sS'offset_bulkhead_thickness'
p399
g7
(g8
(I0
tS'b'
tRp400
(I1
(I6
tg106
I00
S'\x9a\x99\x99\x99\x99\x99\xa9?\x9a\x99\x99\x99\x99\x99\xa9?\x00\x00\x00\x00\x00\x00\x00\x00\x00\x00\x00\x00\x00\x00\x00\x00\x00\x00\x00\x00\x00\x00\x00\x00\x9a\x99\x99\x99\x99\x99\xa9?'
tbsS'controls_esc'
p401
F1.5
sS'm_damage'
p402
F10
sS'shell_mass_factor'
p403
F1
sS'tower_mass_cost_coeff'
p404
F3.2000000000000002
sS'nBlades'
p405
I3
sS'expCabMass'
p406
F71.900000000000006
sS'subsPileCR'
p407
F2250
sS'wharfRate'
p408
F2.75
sS'Rhub'
p409
F1.125
sS'vs_electronics_mass_cost_coeff'
p410
F26.5
sS'tower_outfitting_factor'
p411
F1.0700000000000001
sS'scourMat'
p412
F250000
sS'laydownCR'
p413
F0.25
sS'hub_assemblyCostMultiplier'
p414
F0
sS'anchor_type'
p415
S'suctionpile'
p416
sS'jlatticeA'
p417
F26
sS'drivetrainType'
p418
I0
sS'pitch_extreme'
p419
F0
sS'main_wall_thickness'
p420
g7
(g8
(I0
tS'b'
tRp421
(I1
(I6
tg11
I00
S'\x89b\xc3+\xbb:\xaa?\x82\x19\nsD\x8b\xaf?)\xb6Ah\x12z\xae?\xd3[Gc\x12V\xa4?\x1d\xb7\xac]\xc3\xde\xa6?\x9eq\xe6\xbe\xce\t\xae?'
tbsS'mean_current_speed'
p422
F0
sS'nac_cm'
p423
g7
(g8
(I0
tS'b'
tRp424
(I1
(I3
tg50
I00
S'\x85\xebQ\xb8\x1e\x85\x05@\x00\x00\x00\x00\x00\x00\x00\x00333333\x03@'
tbsS'subsTopDes'
p425
F4500000
sS'moorLoadout'
p426
F5
sS'fairlead'
p427
g13
(g14
S'u\xbe\xae\x8e\xae\x8b\x1f@'
tRp428
sS'tower_section_height'
p429
g7
(g8
(I0
tS'b'
tRp430
(I1
(I5
tg106
I00
S'\x00\x00\x00\x00\x00\x00$@\x00\x10\xaeG\xe1z\x84?\xc3\xf5(\\\x8fBJ@\xcc\xcc\xcc\xcc\xcc\x8cJ@\x00)\\\x8f\xc2\xf5\n@'
tbsS'navStudyProj'
p431
F250000
sS'buryFac'
p432
F0.10000000000000001
sS'tapered_col_cost_rate'
p433
F4720
sS'cab2CR'
p434
F202.78800000000001
sS'air_density'
p435
F1.198
sS'offset_section_height'
p436
g7
(g8
(I0
tS'b'
tRp437
(I1
(I5
tg11
I00
S'cr\xf5\xce,\x9d\xee?w\x00\xad\xac#C\xfc?<\t\xcc\xf2E\xfe2@\xbaQ\xe8\xb6>\x0f\xd8?0\xbaq\xd5\xde7\x17@'
tbsS'strain_ult_te'
p438
F0.0050000000000000001
sS'turbine_overheadCostMultiplier'
p439
F0
sS'placePiles'
p440
F12
sS'main_permanent_ballast_height'
p441
g13
(g14
S'\xad\xf4^(E\xac\x13@'
tRp442
sS'diveTeamDR'
p443
F3200
sS'arrayY'
p444
F9
sS'bedplate_mass'
p445
F93090.600000000006
sS'mooring_line_length'
p446
g13
(g14
S'\xfc`i\x821\x9a\xa6@'
tRp447
sS'wind_reference_speed'
p448
F11
sS'control_maxOmega'
p449
F8.887659696962098
sS'crane'
p450
I00
sS'hub_mass_cost_coeff'
p451
F3.7999999999999998
sS'operational_heel'
p452
F6
sS'removeHamMono'
p453
F2
sS'connection_ratio_max'
p454
F0.25
sS'hss_mass_cost_coeff'
p455
F8.25
sS'spMoorCheck'
p456
F16
sS'spinner_mass_cost_coeff'
p457
F23
sS'pileSpreadDR'
p458
F2500
sS'lss_mass'
p459
F31257.299999999999
sS'mooring_lines_per_connection'
p460
g13
(g14
S'\x00\x00\x00\x00\x00\x00\x00@'
tRp461
sS'anchor_radius'
p462
g13
(g14
S'nfjM\x14\xd8\xa5@'
tRp463
sS'pontoon_outer_diameter'
p464
g13
(g14
S'\xd4\x8b\xe2\x9fO\xd2!@'
tRp465
sS'moorTimeFac'
p466
F0.0050000000000000001
sS'shorePullIn'
p467
F96
sS'natHisPresAct'
p468
F250000
sS'scrapVal'
p469
F0
sS'mooring_cost_rate'
p470
F1.1000000000000001
sS'bedplate_mass_cost_coeff'
p471
F4.5
sS'nu'
p472
F0.26000000000000001
sS'arrCab2Mass'
p473
F21.853999999999999
sS'E'
F200000000000
sS'cab2CurrRating'
p474
F340
sS'boltTower'
p475
F7
sS'cabLoadout'
p476
F14
sS'subsPullIn'
p477
F48
sS'vesselPosJack'
p478
F8
sS'nacelle_assemblyCostMultiplier'
p479
F0
sS'install_contingency'
p480
F0.29999999999999999
sS'mooring_type'
p481
S'chain'
p482
sS'decomDiscRate'
p483
F0.029999999999999999
s(lp484
(lp485
S'fairlead'
p486
aF0
aF20
aa(lp487
S'fairlead_support_wall_thickness'
p488
aF0.001
aF1
aa(lp489
S'fairlead_support_outer_diameter'
p490
aF0.10000000000000001
aF10
aa(lp491
S'main_freeboard'
p492
aF0
aF50
aa(lp493
S'main_section_height'
p494
aF0.10000000000000001
aF50
aa(lp495
S'main_outer_diameter'
p496
aF2.1000000000000001
aF40
aa(lp497
S'main_wall_thickness'
p498
aF0.001
aF0.5
aa(lp499
S'main_buoyancy_tank_diameter'
p500
aF0
aF50
aa(lp501
S'main_buoyancy_tank_height'
p502
aF0
aF20
aa(lp503
S'main_buoyancy_tank_location'
p504
aF0
aF1
aa(lp505
S'offset_freeboard'
p506
aF2
aF15
aa(lp507
S'offset_section_height'
p508
aF0.10000000000000001
aF50
aa(lp509
S'offset_outer_diameter'
p510
aF1.1000000000000001
aF40
aa(lp511
S'offset_wall_thickness'
p512
aF0.001
aF0.5
aa(lp513
S'offset_buoyancy_tank_diameter'
p514
aF0
aF50
aa(lp515
S'offset_buoyancy_tank_height'
p516
aF0
aF20
aa(lp517
S'offset_buoyancy_tank_location'
p518
aF0
aF1
aa(lp519
S'pontoon_outer_diameter'
p520
aF1
aF10
aa(lp521
S'pontoon_wall_thickness'
p522
aF0.01
aF1
aa(lp523
S'main_pontoon_attach_lower'
p524
aF0
aF0.5
aa(lp525
S'main_pontoon_attach_upper'
p526
aF0.5
aF1
aa(lp527
S'mooring_line_length'
p528
aF200
aF3000
aa(lp529
S'anchor_radius'
p530
aF100
aF5000
aa(lp531
S'mooring_diameter'
p532
aF0.050000000000000003
aF2
aa(lp533
S'main_permanent_ballast_height'
p534
aF0.10000000000000001
aF50
aa(lp535
S'main_stiffener_web_height'
p536
aF0.01
aF1
aa(lp537
S'main_stiffener_web_thickness'
p538
aF0.001
aF0.5
aa(lp539
S'main_stiffener_flange_width'
p540
aF0.01
aF5
aa(lp541
S'main_stiffener_flange_thickness'
p542
aF0.001
aF0.5
aa(lp543
S'main_stiffener_spacing'
p544
aF0.10000000000000001
aF100
aa(lp545
S'offset_stiffener_web_height'
p546
aF0.01
aF1
aa(lp547
S'offset_stiffener_web_thickness'
p548
aF0.001
aF0.5
aa(lp549
S'offset_stiffener_flange_width'
p550
aF0.01
aF5
aa(lp551
S'offset_stiffener_flange_thickness'
p552
aF0.001
aF0.5
aa(lp553
S'offset_stiffener_spacing'
p554
aF0.10000000000000001
aF100
aa(lp555
S'offset_permanent_ballast_height'
p556
aF0.10000000000000001
aF50
aa(lp557
S'radius_to_offset_column'
p558
aF5
aF100
aa(lp559
(lp560
S'tow.height_constraint'
p561
aF-0.01
aF0.01
aNaa(lp562
S'main.draft'
p563
aF0
aF20
aNaa(lp564
S'off.draft'
p565
aF0
aF20
aNaa(lp566
S'main.draft_depth_ratio'
p567
aNaF0.90000000000000002
aNaa(lp568
S'off.draft_depth_ratio'
p569
aNaF0.90000000000000002
aNaa(lp570
S'main.wave_height_freeboard_ratio'
p571
aNaF1
aNaa(lp572
S'off.wave_height_freeboard_ratio'
p573
aNaF1
aNaa(lp574
S'off.fairlead_draft_ratio'
p575
aF0
aF20
aNaa(lp576
S'main_offset_spacing'
p577
aF1
aNaNaa(lp578
S'main.manufacturability'
p579
aF0
aNaNaa(lp580
S'main.weldability'
p581
aNaF0
aNaa(lp582
S'off.manufacturability'
p583
aF0
aNaNaa(lp584
S'off.weldability'
p585
aNaF0
aNaa(lp586
S'tower_transition_buffer'
p587
aF-1
aF1
aNaa(lp588
S'nacelle_transition_buffer'
p589
aF0
aNaNaa(lp590
S'offset_freeboard_heel_margin'
p591
aF0
aNaNaa(lp592
S'offset_draft_heel_margin'
p593
aF0
aF20
aNaa(lp594
S'axial_unity'
p595
aF0
aF1
aNaa(lp596
S'mooring_length_max'
p597
aNaF1
aNaa(lp598
S'main.flange_spacing_ratio'
p599
aNaF1
aNaa(lp600
S'main.stiffener_radius_ratio'
p601
aNaF0.5
aNaa(lp602
S'main.flange_compactness'
p603
aF1
aNaNaa(lp604
S'main.web_compactness'
p605
aF1
aNaNaa(lp606
S'main.axial_local_api'
p607
aNaF1
aNaa(lp608
S'main.axial_general_api'
p609
aNaF1
aNaa(lp610
S'main.external_local_api'
p611
aNaF1
aNaa(lp612
S'main.external_general_api'
p613
aNaF1
aNaa(lp614
S'off.flange_spacing_ratio'
p615
aNaF1
aNaa(lp616
S'off.stiffener_radius_ratio'
p617
aNaF0.5
aNaa(lp618
S'off.flange_compactness'
p619
aF1
aNaNaa(lp620
S'off.web_compactness'
p621
aF1
aNaNaa(lp622
S'off.axial_local_api'
p623
aNaF1
aNaa(lp624
S'off.axial_general_api'
p625
aNaF1
aNaa(lp626
S'off.external_local_api'
p627
aNaF1
aNaa(lp628
S'off.external_general_api'
p629
aNaF1
aNaa(lp630
S'pontoon_stress'
p631
aNaF1
aNaa(lp632
S'tower_stress'
p633
aNaF1
aNaa(lp634
S'tower_shell_buckling'
p635
aNaF1
aNaa(lp636
S'tower_global_buckling'
p637
aNaF1
aNaa(lp638
S'main_stress'
p639
aNaF1
aNaa(lp640
S'main_shell_buckling'
p641
aNaF1
aNaa(lp642
S'main_global_buckling'
p643
aNaF1
aNaa(lp644
S'offset_stress'
p645
aNaF1
aNaa(lp646
S'offset_shell_buckling'
p647
aNaF1
aNaa(lp648
S'offset_global_buckling'
p649
aNaF1
aNaa(lp650
S'variable_ballast_height_ratio'
p651
aF0
aF1
aNaa(lp652
S'variable_ballast_mass'
p653
aF0
aNaNaa(lp654
S'metacentric_height'
p655
aF0.10000000000000001
aNaNaa(lp656
S'offset_force_ratio'
p657
aNaF1
aNaa(lp658
S'heel_moment_ratio'
p659
aNaF1
aNaa(lp660
S'period_margin_low'
p661
aNaF1
aNaa(lp662
S'period_margin_high'
p663
aF1
aNaNaa(lp664
S'Pn_margin'
p665
aNaF1
aNaa(lp666
S'P1_margin'
p667
aNaF1
aNaa(lp668
S'Pn_margin_cfem'
p669
aNaF1
aNaa(lp670
S'P1_margin_cfem'
p671
aNaF1
aNaa(lp672
S'rotor_strain_sparU'
p673
aF-1
aNaNaa(lp674
S'rotor_strain_sparL'
p675
aNaF1
aNaa(lp676
S'rotor_strain_teU'
p677
aF-1
aNaNaa(lp678
S'rotor_strain_teL'
p679
aNaF1
aNaa(lp680
S'rotor_buckling_sparU'
p681
aNaF1
aNaa(lp682
S'rotor_buckling_sparL'
p683
aNaF1
aNaa(lp684
S'rotor_buckling_teU'
p685
aNaF1
aNaa(lp686
S'rotor_buckling_teL'
p687
aNaF1
aNaa(lp688
S'rotor_damage_sparU'
p689
aNaF0
aNaa(lp690
S'rotor_damage_sparL'
p691
aNaF0
aNaa(lp692
S'rotor_damage_teU'
p693
aNaF0
aNaa(lp694
S'rotor_damage_teL'
p695
aNaF0
aNaa(lp696
S'ground_clearance'
p697
aF20
aNaNaa(S'total_cost'
p698
F1.0000000000000001e-09
tp699
S'NM'
p700
t.