((dp1
S'groutSpreadDR'
p2
F3000
sS'generator_mass'
p3
F16699.849999999999
sS'turbine_profitMultiplier'
p4
F0
sS'prepGripperJack'
p5
F8
sS'tpCover'
p6
F1.5
sS'main_stiffener_flange_width'
p7
cnumpy.core.multiarray
_reconstruct
p8
(cnumpy
ndarray
p9
(I0
tS'b'
tRp10
(I1
(I5
tcnumpy
dtype
p11
(S'f8'
I0
I1
tRp12
(I3
S'<'
NNNI-1
I-1
I0
tbI00
S'6\x7fl\xa7.\xa8\xb0?m\x10\xdfu\x7f%\xd7?n\xd1o\xad\x81\xe3\xfe?9+\x0c\xfb|\xd6\xef?Y|\xeaGu\xe8\xde?'
tbsS'cross_attachment_pontoons_int'
p13
cnumpy.core.multiarray
scalar
p14
(g11
(S'f8'
I0
I1
tRp15
(I3
S'<'
NNNI-1
I-1
I0
tbS'\x00\x00\x00\x00\x00\x00\x00\x00'
tRp16
sS'faaPlan'
p17
F10000
sS'main_section_height'
p18
g8
(g9
(I0
tS'b'
tRp19
(I1
(I5
tg12
I00
S"\xd7]\xc5<\x92\x04(@z\xaf\x0eSL\xbd\xf8?\xeb\xe1\x9e]&\x80\x1b@\xe6K.d_e'@\xe5^\xf0?\xa2B'@"
tbsS'transformer_mass'
p20
F1000
sS'otherAncillary'
p21
F3000000
sS'precurve_tip'
p22
F0
sS'jtransCR'
p23
F4500
sS'offset_buoyancy_tank_diameter'
p24
g14
(g15
S'\t\xe7\x1aI\x1c,%@'
tRp25
sS'medVoltSG'
p26
F500000
sS'generator_mass_cost_coeff'
p27
F17.43
sS'jpileL'
p28
F47.5
sS'plantComm'
p29
F0.01
sS'subsLoad'
p30
F60
sS'jpileD'
p31
F1.6000000000000001
sS'capital_cost_year_4'
p32
F0
sS'main_bearing_mass'
p33
F4865.7049999999999
sS'main_freeboard'
p34
g14
(g15
S'Mi#*\x04\x00>@'
tRp35
sS'capital_cost_year_5'
p36
F0
sS'material_density'
p37
F7850
sS'dynCabFac'
p38
F2
sS'cab1CurrRating'
p39
F300
sS'crane600DR'
p40
F5000
sS'ring_mass_factor'
p41
F1
sS'arrVoltage'
p42
F33
sS'elec_connec_cost_esc'
p43
F1.5
sS'gearbox_mass'
p44
F30237.599999999999
sS'construction_insurance'
p45
F0.01
sS'cab2SubsInterCR'
p46
F19815
sS'tax_rate'
p47
F0.40000000000000002
sS'presweep_in'
p48
g8
(g9
(I0
tS'b'
tRp49
(I1
(I5
tg11
(S'f8'
I0
I1
tRp50
(I3
S'<'
NNNI-1
I-1
I0
tbI00
S'\x00\x00\x00\x00\x00\x00\x00\x00\x00\x00\x00\x00\x00\x00\x00\x00\x00\x00\x00\x00\x00\x00\x00\x00\x00\x00\x00\x00\x00\x00\x00\x00\x00\x00\x00\x00\x00\x00\x00\x00'
tbsS'permanent_ballast_density'
p51
F4492
sS'expCabLoad'
p52
F24
sS'groutSpreadMob'
p53
F1000000
sS'machine_rating'
p54
F10000000
sS'socEconStudyMet'
p55
F500000
sS'cleanWatAct402'
p56
F100000
sS'mpvRentalDR'
p57
F72000
sS'distAtoS'
p58
F90
sS'cover_mass'
p59
F1000
sS'lower_attachment_pontoons_int'
p60
g14
(g15
S'\x00\x00\x00\x00\x00\x00\xf0?'
tRp61
sS'usecd'
p62
I01
sS'radius_to_offset_column'
p63
g14
(g15
S'<\xd4\xae{G\xebJ@'
tRp64
sS'surfLayRate'
p65
F375
sS'physResStudyProj'
p66
F500000
sS'seaSpreadDR'
p67
F165000
sS'z_offset'
p68
F0
sS'prepAA'
p69
F168
sS'number_of_mooring_connections'
p70
I3
sS'material_cost_rate'
p71
F1.1000000000000001
sS'dynamic_amplication_tip_deflection'
p72
F1.3500000000000001
sS'arrCab1Mass'
p73
F20.384
sS'turbine_assemblyCostMultiplier'
p74
F0
sS'turbInstallMethod'
p75
I0
sS'tower_assemblyCostMultiplier'
p76
F0
sS'column_mass_factor'
p77
F1.05
sS'offset_outer_diameter'
p78
g8
(g9
(I0
tS'b'
tRp79
(I1
(I6
tg12
I00
S'\xc2\xdd\xbc\xecu\x07(@\xe0\xa7A\xfc\xfbz:@\x02\xfe\xbfl\x9b\x86%@\xad\xb9\n#%\x93"@\xab\xdc\x88\x0c\xf4\x11\x1b@\x0e\xe9\x9cB\x92\xdb\x18@'
tbsS'yield_stress'
p80
F345000000
sS'rstar_damage'
p81
g8
(g9
(I0
tS'b'
tRp82
(I1
(I51
tg50
I00
S'\x00\x00\x00\x00\x00\x00\x00\x00{\x14\xaeG\xe1z\x94?{\x14\xaeG\xe1z\xa4?\xb8\x1e\x85\xebQ\xb8\xae?{\x14\xaeG\xe1z\xb4?\x9a\x99\x99\x99\x99\x99\xb9?\xb8\x1e\x85\xebQ\xb8\xbe?\xecQ\xb8\x1e\x85\xeb\xc1?{\x14\xaeG\xe1z\xc4?\n\xd7\xa3p=\n\xc7?\x9a\x99\x99\x99\x99\x99\xc9?)\\\x8f\xc2\xf5(\xcc?\xb8\x1e\x85\xebQ\xb8\xce?\xa4p=\n\xd7\xa3\xd0?\xecQ\xb8\x1e\x85\xeb\xd1?333333\xd3?{\x14\xaeG\xe1z\xd4?\xc3\xf5(\\\x8f\xc2\xd5?\n\xd7\xa3p=\n\xd7?R\xb8\x1e\x85\xebQ\xd8?\x9a\x99\x99\x99\x99\x99\xd9?\xe1z\x14\xaeG\xe1\xda?)\\\x8f\xc2\xf5(\xdc?q=\n\xd7\xa3p\xdd?\xb8\x1e\x85\xebQ\xb8\xde?\x00\x00\x00\x00\x00\x00\xe0?\xa4p=\n\xd7\xa3\xe0?H\xe1z\x14\xaeG\xe1?\xecQ\xb8\x1e\x85\xeb\xe1?\x8f\xc2\xf5(\\\x8f\xe2?333333\xe3?\xd7\xa3p=\n\xd7\xe3?{\x14\xaeG\xe1z\xe4?\x1f\x85\xebQ\xb8\x1e\xe5?\xc3\xf5(\\\x8f\xc2\xe5?gfffff\xe6?\n\xd7\xa3p=\n\xe7?\xaeG\xe1z\x14\xae\xe7?R\xb8\x1e\x85\xebQ\xe8?\xf6(\\\x8f\xc2\xf5\xe8?\x9a\x99\x99\x99\x99\x99\xe9?>\n\xd7\xa3p=\xea?\xe1z\x14\xaeG\xe1\xea?\x85\xebQ\xb8\x1e\x85\xeb?)\\\x8f\xc2\xf5(\xec?\xcd\xcc\xcc\xcc\xcc\xcc\xec?q=\n\xd7\xa3p\xed?\x15\xaeG\xe1z\x14\xee?\xb8\x1e\x85\xebQ\xb8\xee?\\\x8f\xc2\xf5(\\\xef?\x00\x00\x00\x00\x00\x00\xf0?'
tbsS'precone'
p83
F4
sS'nacelle_transportMultiplier'
p84
F0
sS'Mxb_damage'
p85
g8
(g9
(I0
tS'b'
tRp86
(I1
(I51
tg50
I00
S'\x11\xea-\x81\x99\x97q=\x11\xea-\x81\x99\x97q=\x11\xea-\x81\x99\x97q=\x11\xea-\x81\x99\x97q=\x11\xea-\x81\x99\x97q=\x11\xea-\x81\x99\x97q=\x11\xea-\x81\x99\x97q=\x11\xea-\x81\x99\x97q=\x11\xea-\x81\x99\x97q=\x11\xea-\x81\x99\x97q=\x11\xea-\x81\x99\x97q=\x11\xea-\x81\x99\x97q=\x11\xea-\x81\x99\x97q=\x11\xea-\x81\x99\x97q=\x11\xea-\x81\x99\x97q=\x11\xea-\x81\x99\x97q=\x11\xea-\x81\x99\x97q=\x11\xea-\x81\x99\x97q=\x11\xea-\x81\x99\x97q=\x11\xea-\x81\x99\x97q=\x11\xea-\x81\x99\x97q=\x11\xea-\x81\x99\x97q=\x11\xea-\x81\x99\x97q=\x11\xea-\x81\x99\x97q=\x11\xea-\x81\x99\x97q=\x11\xea-\x81\x99\x97q=\x11\xea-\x81\x99\x97q=\x11\xea-\x81\x99\x97q=\x11\xea-\x81\x99\x97q=\x11\xea-\x81\x99\x97q=\x11\xea-\x81\x99\x97q=\x11\xea-\x81\x99\x97q=\x11\xea-\x81\x99\x97q=\x11\xea-\x81\x99\x97q=\x11\xea-\x81\x99\x97q=\x11\xea-\x81\x99\x97q=\x11\xea-\x81\x99\x97q=\x11\xea-\x81\x99\x97q=\x11\xea-\x81\x99\x97q=\x11\xea-\x81\x99\x97q=\x11\xea-\x81\x99\x97q=\x11\xea-\x81\x99\x97q=\x11\xea-\x81\x99\x97q=\x11\xea-\x81\x99\x97q=\x11\xea-\x81\x99\x97q=\x11\xea-\x81\x99\x97q=\x11\xea-\x81\x99\x97q=\x11\xea-\x81\x99\x97q=\x11\xea-\x81\x99\x97q=\x11\xea-\x81\x99\x97q=\x11\xea-\x81\x99\x97q='
tbsS'mooring_diameter'
p87
g14
(g15
S'm\x99s\xb3\x9a\xb0\xd1?'
tRp88
sS'hub_mass'
p89
F105520
sS'cab1CR'
p90
F185.88900000000001
sS'cd_usr'
p91
Finf
sS'main_buoyancy_tank_height'
p92
g14
(g15
S'"]4\xf8CW\xfe?'
tRp93
sS'buryDepth'
p94
F2
sS'nac_I'
p95
g8
(g9
(I0
tS'b'
tRp96
(I1
(I6
tg50
I00
S'\x00\x00\x00`\xb4[\\A\x00\x00\x00\x8e\x82\ngA\x00\x00\x00\x8e\x82\ngA\x00\x00\x00\x00\x00\x00\x00\x00\x00\x00\x00\x00\x00\x00\x00\x00\x00\x00\x00\x00\x00\x00\x00\x00'
tbsS'monoFasten'
p97
F12
sS'tilt'
p98
F6
sS'nSector'
p99
I4
sS'offset_buoyancy_tank_location'
p100
g14
(g15
S'\x89\xd0rZ$\xe6\xa4?'
tRp101
sS'tower_wall_thickness'
p102
g8
(g9
(I0
tS'b'
tRp103
(I1
(I5
tg11
(S'f8'
I0
I1
tRp104
(I3
S'<'
NNNI-1
I-1
I0
tbI00
S'\x90\xebQ\xb8\x1e\x85\xd3?@\\\x8f\xc2\xf5(\xcc?\x10\x00\x00\x00\x00\x00\xc0?\xc0\xf5(\\\x8f\xc2\xb5?\x80\x1e\x85\xebQ\xb8\xae?'
tbsS'offshore'
p105
I01
sS'substructure'
p106
I3
sS'interest_during_construction'
p107
F0.080000000000000002
sS'offset_stiffener_flange_thickness'
p108
g8
(g9
(I0
tS'b'
tRp109
(I1
(I5
tg12
I00
S'j\xd4Q\x874\x11\xd3?\x06\\r\xe8\xd9\xd3\xdf?\xfa\x8b\x9fF\x05\x9e\xcb?\xbf\x8dz\x89\xfe\x17\xc4?\xda\x7f\x83\xefPn\xc4?'
tbsS'placeMP'
p110
F3
sS'hubFraction'
p111
F0.023784901758014475
sS'feedStudy'
p112
F10000000
sS'preFEEDStudy'
p113
F5000000
sS'cableOptimizer'
p114
I00
sS'platforms_mass_cost_coeff'
p115
F8.6999999999999993
sS'hvac_mass_cost_coeff'
p116
F163.94999999999999
sS'upper_attachment_pontoons_int'
p117
g14
(g15
S'\x00\x00\x00\x00\x00\x00\x00\x00'
tRp118
sS'nepaEisMet'
p119
F2000000
sS'yaw_mass_cost_coeff'
p120
F11.01
sS'subsTopFab'
p121
F14500
sS'dummy_mass'
p122
F9.9999999999999998e-13
sS'elec_connec_machine_rating_cost_coeff'
p123
F40
sS'fixed_charge_rate'
p124
F0.12
sS'water_viscosity'
p125
F0.00088999999999999995
sS'spMoorCon'
p126
F20
sS'wind_reference_height'
p127
F119
sS'outfitting_cost_rate'
p128
F1.6500000000000001
sS'air_viscosity'
p129
F1.8099999999999999e-05
sS'shape_parameter'
p130
F0
sS'prepSemi'
p131
F12
sS'prepTow'
p132
F12
sS'control_Vout'
p133
F25
sS'max_taper_ratio'
p134
F0.40000000000000002
sS'hub_profitMultiplier'
p135
F0
sS'tower_overheadCostMultiplier'
p136
F0
sS'platforms_mass'
p137
F1000
sS'socEconStudyProj'
p138
F200000
sS'gust_stddev'
p139
I3
sS'boltRotor'
p140
F7
sS'wave_period_range_high'
p141
F20
sS'vs_electronics_mass'
p142
F1000
sS'inspectClear'
p143
F2
sS'teT_in'
p144
g8
(g9
(I0
tS'b'
tRp145
(I1
(I5
tg50
I00
S'\xf4(\xfb\x97\x18\x81\xa5?\xad\xb1B\x13!\x8a\xb0?\xaf\xbf\xedj\xe1\xd6\xab?Y\xc3\xb4`\x17}\x90?\xe24"\xc9\xe3Gl?'
tbsS'morison_mass_coefficient'
p146
F2
sS'seaSpreadMob'
p147
F4500000
sS'wind_bottom_height'
p148
F0
sS'wave_period_range_low'
p149
F2
sS'stateLease'
p150
F250000
sS'offset_permanent_ballast_height'
p151
g14
(g15
S'\x05\xb1u\xe9.=\xd4?'
tRp152
sS'ssMoorCheck'
p153
F12
sS'main_stiffener_spacing'
p154
g8
(g9
(I0
tS'b'
tRp155
(I1
(I5
tg12
I00
S'\\@\xa4\xf4\x82(%@\xa5\xf5\x14Q\xcc\x86"@!\xf7NwKG-@\xc2\xcb\x1d\x11)\xa30@\x84X5FP\xa8:@'
tbsS'tower_outer_diameter'
p156
g8
(g9
(I0
tS'b'
tRp157
(I1
(I6
tg11
(S'f8'
I0
I1
tRp158
(I3
S'<'
NNNI-1
I-1
I0
tbI00
S'\x00\x00\x00\x00\x00\x00"@\x00\x00\x00\x00\x00\x00"@\x9a\x99\x99\x99\x99\x99 @\xa4p=\n\xd7\xa3\x1b@\x00\x00\x00\x00\x00\x00\x16@\x00\x00\x00\x00\x00\x00\x16@'
tbsS'conOpPlan'
p159
F1000000
sS'outfitting_mass_fraction'
p160
F0.059999999999999998
sS'capital_cost_year_2'
p161
F0.10000000000000001
sS'capital_cost_year_3'
p162
F0.10000000000000001
sS'capital_cost_year_0'
p163
F0.20000000000000001
sS'capital_cost_year_1'
p164
F0.59999999999999998
sS'G'
F79300000000
sS'fairlead_location'
p165
g14
(g15
S"'F\xda\xb1\xa0\xf9\xcb?"
tRp166
sS'max_offset'
p167
F100
sS'control_minOmega'
p168
F6
sS'prepGripperMono'
p169
F1.5
sS'cabTerm'
p170
F5.5
sS'workSpace'
p171
F2000000
sS'main_bulkhead_thickness'
p172
g8
(g9
(I0
tS'b'
tRp173
(I1
(I6
tg158
I00
S'\x9a\x99\x99\x99\x99\x99\xa9?\x9a\x99\x99\x99\x99\x99\xa9?\x00\x00\x00\x00\x00\x00\x00\x00\x00\x00\x00\x00\x00\x00\x00\x00\x00\x00\x00\x00\x00\x00\x00\x00\x9a\x99\x99\x99\x99\x99\xa9?'
tbsS'vesselPosMono'
p174
F3
sS'boltBlade1'
p175
F3.5
sS'groutTP'
p176
F8
sS'boltBlade2'
p177
F3.5
sS'wind_beta'
p178
F0
sS'landConstruct'
p179
F7
sS'subsJackCR'
p180
F6250
sS'tiploss'
p181
I01
sS'hub_overheadCostMultiplier'
p182
F0
sS'control_pitch'
p183
F0
sS'azimuth_extreme'
p184
F0
sS'prepSpar'
p185
F18
sS'number_install_seasons'
p186
F1
sS'transformer_mass_cost_coeff'
p187
F26.5
sS'turbine_class'
p188
I0
sS'distInterCon'
p189
F3
sS'rivsnHarbsAct'
p190
F100000
sS'navStudyMet'
p191
F500000
sS'jackFasten'
p192
F20
sS'coastZoneManAct'
p193
F100000
sS'distPtoA'
p194
F90
sS'saPlan'
p195
F500000
sS'nCrane1000'
p196
F0
sS'bioResStudyMet'
p197
F1500000
sS'procurement_contingency'
p198
F0.050000000000000003
sS'jpileCR'
p199
F2250
sS'metTowCR'
p200
F11518
sS'jlatticeCR'
p201
F4680
sS'outer_cross_pontoons_int'
p202
g14
(g15
S'\x00\x00\x00\x00\x00\x00\x00\x00'
tRp203
sS'water_depth'
p204
F320
sS'control_tsr'
p205
F10.58
sS'VfactorPC'
p206
F0.69999999999999996
sS'levJack'
p207
F24
sS'pwrFac'
p208
F0.94999999999999996
sS'placeJack'
p209
F12
sS'upper_ring_pontoons_int'
p210
g14
(g15
S'\x00\x00\x00\x00\x00\x00\x00\x00'
tRp211
sS'main_stiffener_web_thickness'
p212
g8
(g9
(I0
tS'b'
tRp213
(I1
(I5
tg12
I00
S'\xe0&\xbf^\xe6\x19\xb7?\x84,\xadj\xfc\xea\xdf?_FY\xd6J\x93\xc5?\x13\x81\x1d\x87\xafQ\xc1?\x19\x90V\xb2\xa8Q\xac?'
tbsS'endSpecAct'
p214
F500000
sS'AEP_loss_factor'
p215
F1
sS'prepHamJack'
p216
F2
sS'water_density'
p217
F1025
sS'arrayX'
p218
F9
sS'expSubsInterCR'
p219
F57500
sS'min_diameter_thickness_ratio'
p220
F120
sS'offset_wall_thickness'
p221
g8
(g9
(I0
tS'b'
tRp222
(I1
(I5
tg104
I00
S'\x19\xdd\x84\xcd\x0f\xf9\xc2?*\x8b\xa2\xf8\xa8\x9a\xc1?sg\x13\x08\xbf\x99\xa9?\x05\xdfB\x82\xf6\x9a\xa0?C\xe6j\x08sT\x98?'
tbsS'blade_mass_cost_coeff'
p223
F13.08
sS'turbFasten'
p224
F8
sS'hub_transportMultiplier'
p225
F0
sS'pitch_system_mass_cost_coeff'
p226
F22.91
sS'upendSpar'
p227
F36
sS'hub_I'
p228
g8
(g9
(I0
tS'b'
tRp229
(I1
(I6
tg50
I00
S'\x9eV\xe4\xeaZ\xe2\x13AGl\x9d\xa5\xf1\xda\x08AGl\x9d\xa5\xf1\xda\x08A\x00\x00\x00\x00\x00\x00\x00\x00\x00\x00\x00\x00\x00\x00\x00\x00\x00\x00\x00\x00\x00\x00\x00\x00'
tbsS'expCurrRating'
p230
F530
sS'turbulence_class'
p231
I1
sS'cover_mass_cost_coeff'
p232
F7.6100000000000003
sS'main_pontoon_attach_lower'
p233
g14
(g15
S'\xe8\x87\x01\x89,\xd8\xb9?'
tRp234
sS'entranceExitRate'
p235
F0.52500000000000002
sS'lss_mass_cost_coeff'
p236
F12.6
sS'exCabFac'
p237
F0.10000000000000001
sS'moorSurvey'
p238
F4
sS'hub_height'
p239
F149
sS'offset_stiffener_web_height'
p240
g8
(g9
(I0
tS'b'
tRp241
(I1
(I5
tg12
I00
S'\xfd\xd4\x8d\x84\x025\xc7?\xe4\xdc\x84j\r\xba\xda?*;\xf6UI\xda\xc0?\xf1\xb5u\xddff\xb2?\xfe\x88\x18%\xed\x17\xbc?'
tbsS'cabPullIn'
p242
F5.5
sS'craneMobDemob'
p243
F150000
sS'bladeLength'
p244
F96.700000000000003
sS'placeTop'
p245
F24
sS'discount_rate'
p246
F0.070000000000000007
sS'presweep_tip'
p247
F0
sS'gamma_fatigue'
p248
F1.7550000000000001
sS'tower_transportMultiplier'
p249
F0
sS'mptCR'
p250
F12500
sS'winchDR'
p251
F1000
sS'instScour'
p252
F6
sS'r_max_chord'
p253
g14
(g15
S'\x9b\xe6\x1d\xa7\xe8H\xce?'
tRp254
sS'ssMoorCon'
p255
F22
sS'bioResStudyProj'
p256
F500000
sS'placeTemplate'
p257
F4
sS'elecWork'
p258
F25000
sS'compRacks'
p259
F1000000
sS'distShore'
p260
F90
sS'bulkhead_mass_factor'
p261
F1
sS'elecCont'
p262
F0.29999999999999999
sS'cabSurveyCR'
p263
F240
sS'ssHeaveCR'
p264
F6250
sS'highVoltSG'
p265
F950000
sS'pitch_system_mass'
p266
F17004
sS'main_outer_diameter'
p267
g8
(g9
(I0
tS'b'
tRp268
(I1
(I6
tg12
I00
S"\xb0-\xd1\x15\x15J9@y\xfcl\xc8\xd5\xb3'@\\\x98\x11\xf4nq\x1d@\x99\x99@\xd10\xa5$@-7\xce\x9dW\xae!@lB\xf0\x18#\xb8#@"
tbsS'nacelleL'
p269
F-inf
sS'cab2TurbInterCR'
p270
F8615
sS'hamRate'
p271
F20
sS'nacelle_overheadCostMultiplier'
p272
F0
sS'crane1000DR'
p273
F8000
sS'nacelle_profitMultiplier'
p274
F0
sS'nacelleW'
p275
F-inf
sS'main_pontoon_attach_upper'
p276
g14
(g15
S'\x8c\xcaz\xdc\xe1\xa9\xed?'
tRp277
sS'tower_buckling_length'
p278
F30
sS'substructCont'
p279
F0.29999999999999999
sS'control_Vin'
p280
F4
sS'turbCont'
p281
F0.29999999999999999
sS'wave_period'
p282
F9.8000000000000007
sS'prepHamMono'
p283
F2
sS'wakerotation'
p284
I01
sS'tower_profitMultiplier'
p285
F0
sS'main_stiffener_flange_thickness'
p286
g8
(g9
(I0
tS'b'
tRp287
(I1
(I5
tg12
I00
S'\x00\xfc\xf1\xcbc\xa7\xb1?\x10\xd5\xfd~\x13t\xd7?OZ\x01T\x97\xc6\xc1?X\xc4\x1d\\\xa9\xe4\xdf?\x1a\x13\xe7\x9d\xee\x0f\xc8?'
tbsS'nepaEisProj'
p288
F5000000
sS'pontoon_wall_thickness'
p289
g14
(g15
S"\x83 \x9c\xf3'_\x94?"
tRp290
sS'cabDrillCR'
p291
F3200
sS'physResStudyMet'
p292
F1500000
sS'main_buoyancy_tank_location'
p293
g14
(g15
S'\x18\xfcT\xae\xe39\xf1>'
tRp294
sS'strain_ult_spar'
p295
F0.01
sS'expCabCR'
p296
F495.411
sS'base_hardware_cost_coeff'
p297
F0.69999999999999996
sS'annual_opex'
p298
F700000
sS'hub_cm'
p299
g8
(g9
(I0
tS'b'
tRp300
(I1
(I3
tg50
I00
S'ffffff\x1c\xc0\x00\x00\x00\x00\x00\x00\x00\x00\x00\x00\x00\x00\x00\x00\x06@'
tbsS'marMamProtAct'
p301
F500000
sS'sparT_in'
p302
g8
(g9
(I0
tS'b'
tRp303
(I1
(I5
tg50
I00
S'Xh\x82\xe1[b\xa0?\xfc\x8d\xa5=\x19\xa0\xa9?\xdcC!\x10\xd0\xcc\xb5?k\xcbD\xc9\xbc\xe8\xb3?~&\x13\xd1\x020\x88?'
tbsS'backUpGen'
p304
F1000000
sS'gamma_m'
p305
F1.3
sS'gamma_n'
p306
F1
sS'number_of_offset_columns'
p307
I3
sS'yaw'
p308
F0
sS'gamma_f'
p309
F1.3500000000000001
sS'offset_freeboard'
p310
g14
(g15
S'\x1b#\xf1\xfbZ\xe2+@'
tRp311
sS'gamma_b'
p312
F1.1000000000000001
sS'bearings_mass_cost_coeff'
p313
F6.3499999999999996
sS'pileSpreadMob'
p314
F750000
sS'ballast_cost_rate'
p315
F0.10000000000000001
sS'yaw_mass'
p316
F11878.24
sS'number_of_turbines'
p317
I20
sS'downwind'
p318
I00
sS'spinner_mass'
p319
F1810.5
sS'main_buoyancy_tank_diameter'
p320
g14
(g15
S'\xb9\x02%n\xecI\x1d@'
tRp321
sS'crane_cost'
p322
F0
sS'turbine_transportMultiplier'
p323
F0
sS'ssBall'
p324
F6
sS'vesselPosTurb'
p325
F2
sS'deaFixLeng'
p326
F0
sS'wave_height'
p327
F10.800000000000001
sS'cleanWatAct404'
p328
F100000
sS'anchor'
p329
I0
sS'estEnMFac'
p330
F0.040000000000000001
sS'gearbox_mass_cost_coeff'
p331
F17.399999999999999
sS'chord_in'
p332
g8
(g9
(I0
tS'b'
tRp333
(I1
(I5
tg50
I00
S'gfffff\x12@\rnk\x0b\xcf\xab\x12@r\xe0\xd5rg\xf6\x17@t\xc8\xb4\xe7\x15\x10\x08@ \r\xe0-\x90\xa0\xb8?'
tbsS'precurve_in'
p334
g8
(g9
(I0
tS'b'
tRp335
(I1
(I5
tg50
I00
S'\x00\x00\x00\x00\x00\x00\x00\x80\x97\xcc\xb1\xbc\xab\x1e\xa0\xbf\x11\x02\xf2%Tp\xc6\xbf\xc5\xd5\x86\xdf>1\xeb\xbfU\x84\x9b\x8c*\xd3\x18\xc0'
tbsS'catLengFac'
p336
F0.040000000000000001
sS'Myb_damage'
p337
g8
(g9
(I0
tS'b'
tRp338
(I1
(I51
tg50
I00
S'\x11\xea-\x81\x99\x97q=\x11\xea-\x81\x99\x97q=\x11\xea-\x81\x99\x97q=\x11\xea-\x81\x99\x97q=\x11\xea-\x81\x99\x97q=\x11\xea-\x81\x99\x97q=\x11\xea-\x81\x99\x97q=\x11\xea-\x81\x99\x97q=\x11\xea-\x81\x99\x97q=\x11\xea-\x81\x99\x97q=\x11\xea-\x81\x99\x97q=\x11\xea-\x81\x99\x97q=\x11\xea-\x81\x99\x97q=\x11\xea-\x81\x99\x97q=\x11\xea-\x81\x99\x97q=\x11\xea-\x81\x99\x97q=\x11\xea-\x81\x99\x97q=\x11\xea-\x81\x99\x97q=\x11\xea-\x81\x99\x97q=\x11\xea-\x81\x99\x97q=\x11\xea-\x81\x99\x97q=\x11\xea-\x81\x99\x97q=\x11\xea-\x81\x99\x97q=\x11\xea-\x81\x99\x97q=\x11\xea-\x81\x99\x97q=\x11\xea-\x81\x99\x97q=\x11\xea-\x81\x99\x97q=\x11\xea-\x81\x99\x97q=\x11\xea-\x81\x99\x97q=\x11\xea-\x81\x99\x97q=\x11\xea-\x81\x99\x97q=\x11\xea-\x81\x99\x97q=\x11\xea-\x81\x99\x97q=\x11\xea-\x81\x99\x97q=\x11\xea-\x81\x99\x97q=\x11\xea-\x81\x99\x97q=\x11\xea-\x81\x99\x97q=\x11\xea-\x81\x99\x97q=\x11\xea-\x81\x99\x97q=\x11\xea-\x81\x99\x97q=\x11\xea-\x81\x99\x97q=\x11\xea-\x81\x99\x97q=\x11\xea-\x81\x99\x97q=\x11\xea-\x81\x99\x97q=\x11\xea-\x81\x99\x97q=\x11\xea-\x81\x99\x97q=\x11\xea-\x81\x99\x97q=\x11\xea-\x81\x99\x97q=\x11\xea-\x81\x99\x97q=\x11\xea-\x81\x99\x97q=\x11\xea-\x81\x99\x97q='
tbsS'offset_buoyancy_tank_height'
p339
g14
(g15
S'\xa9\xf57J\x84v\x0b@'
tRp340
sS'offset_stiffener_spacing'
p341
g8
(g9
(I0
tS'b'
tRp342
(I1
(I5
tg12
I00
S'=\x1cq\x98\xb1\x19\x0b@\xe2\xcd\xa5\x15\x87u>@\xdb\xe1\xdd\xab\xcdqJ@8\xe6\xe6\xa9\xc2\x01*@+\x1e\x06b\x13\x8d/@'
tbsS'gamma_freq'
p343
F1.1000000000000001
sS'hss_mass'
p344
F1492.45
sS'painting_cost_rate'
p345
F14.4
sS'placeTP'
p346
F3
sS'nac_mass'
p347
F446036.25
sS'buryRate'
p348
F125
sS'max_survival_heel'
p349
F15
sS'shearExp'
p350
F0.11
sS'outConShelfLease'
p351
F1000000
sS'addLocPerm'
p352
F200000
sS'project_lifetime'
p353
F20
sS'hvac_mass'
p354
F1000
sS'offset_stiffener_flange_width'
p355
g8
(g9
(I0
tS'b'
tRp356
(I1
(I5
tg12
I00
S'\x07P\x8e\xa6"\'\xe1?\x17\xff\xe8\xc7N\xc8\xa8?m\x9c\x95\x895\xf2\xd8?\x1c\xa0/\x16\x85?\xc5?3\xbe\xda\xf1.\xa4\xed?'
tbsS'nCrane600'
p357
F0
sS'installStrategy'
p358
I0
sS'distPort'
p359
F90
sS'fairlead_support_wall_thickness'
p360
g14
(g15
S'`\x14\xf2\xda@\xff\x92?'
tRp361
sS'removeHamJack'
p362
F4
sS'labor_cost_rate'
p363
F1
sS'mtransCR'
p364
F3230
sS'boltNacelle1'
p365
F7
sS'mpileCR'
p366
F2250
sS'boltNacelle3'
p367
F7
sS'boltNacelle2'
p368
F7
sS'hubloss'
p369
I01
sS'cab1TurbInterCR'
p370
F8410
sS'bearing_number'
p371
I2
sS'offset_stiffener_web_thickness'
p372
g8
(g9
(I0
tS'b'
tRp373
(I1
(I5
tg12
I00
S'\x16\xc41\xeff\xa8\xdf?\xf6;\xd8\x0e\xaf\xe0\xc3?\xb9z@m\xde\x8ax?\xda~rZ\xe1\xbbk?&\xc8\xc9c\x03\xc9\x97?'
tbsS'loading'
p374
S'hydrostatic'
p375
sS'lower_ring_pontoons_int'
p376
g14
(g15
S'\x00\x00\x00\x00\x00\x00\x00\x00'
tRp377
sS'main_stiffener_web_height'
p378
g8
(g9
(I0
tS'b'
tRp379
(I1
(I5
tg12
I00
S'S:\xa4\xa4\xac.\xdd?\x05E\xfa\xa4|\xff\xef?S\xf6*r\x1d\x1d\xd1?\x8c\xc0\x06\xfd\xc8\x89\xe3?\x99\xd3\x7fa}\xe0\x86?'
tbsS'expVoltage'
p380
F220
sS'controls_cost_base'
p381
g8
(g9
(I0
tS'b'
tRp382
(I1
(I2
tg11
(S'f8'
I0
I1
tRp383
(I3
S'<'
NNNI-1
I-1
I0
tbI00
S'\x00\x00\x00\x00\x00\x17\xe1@\x00\x00\x00\x00\x80K\xeb@'
tbsS'fairlead_offset_from_shell'
p384
F6.0004865405187147
sS'rna_weightM'
p385
I01
sS'shuntCR'
p386
F35000
sS'dockRate'
p387
F3000
sS'subsVessPos'
p388
F6
sS'civilWork'
p389
F40000
sS'towerInstallMethod'
p390
I0
sS'migBirdAct'
p391
F500000
sS'max_draft'
p392
F20
sS'theta_in'
p393
g8
(g9
(I0
tS'b'
tRp394
(I1
(I5
tg50
I00
S'\x00\x00\x00\x00\x00\x00-@9\xb4\xc8v\xbe\x9f*@L7\x89A`\xe5\x1a@<r\x8e\x14\xc5X\xa1\xbf\x84l\xe7\xfb\xa9\xf1\xa2\xbf'
tbsS'cabDrillDist'
p395
F500
sS'topAssemblyFac'
p396
F0.074999999999999997
sS'fairlead_support_outer_diameter'
p397
g14
(g15
S'\xfc\x8a\xf1y\xf2\xff#@'
tRp398
sS'interConVolt'
p399
F345
sS'offset_bulkhead_thickness'
p400
g8
(g9
(I0
tS'b'
tRp401
(I1
(I6
tg158
I00
S'\x9a\x99\x99\x99\x99\x99\xa9?\x9a\x99\x99\x99\x99\x99\xa9?\x00\x00\x00\x00\x00\x00\x00\x00\x00\x00\x00\x00\x00\x00\x00\x00\x00\x00\x00\x00\x00\x00\x00\x00\x9a\x99\x99\x99\x99\x99\xa9?'
tbsS'controls_esc'
p402
F1.5
sS'm_damage'
p403
F10
sS'shell_mass_factor'
p404
F1
sS'tower_mass_cost_coeff'
p405
F3.2000000000000002
sS'nBlades'
p406
I3
sS'expCabMass'
p407
F71.900000000000006
sS'subsPileCR'
p408
F2250
sS'wharfRate'
p409
F2.75
sS'Rhub'
p410
F1.125
sS'vs_electronics_mass_cost_coeff'
p411
F26.5
sS'tower_outfitting_factor'
p412
F1.0700000000000001
sS'scourMat'
p413
F250000
sS'laydownCR'
p414
F0.25
sS'hub_assemblyCostMultiplier'
p415
F0
sS'anchor_type'
p416
S'suctionpile'
p417
sS'jlatticeA'
p418
F26
sS'drivetrainType'
p419
I0
sS'pitch_extreme'
p420
F0
sS'main_wall_thickness'
p421
g8
(g9
(I0
tS'b'
tRp422
(I1
(I5
tg104
I00
S'\xd4\xad\xdc1\xf4\xe1\xac?\xfa\xfe\xb0S\xb1\x0c\xaf?7\xbc\x06/\xack\xa9?\xf5\xa4|\x89j\x9e\xa5?\x98\\O^M}\xaa?'
tbsS'mean_current_speed'
p423
F0
sS'nac_cm'
p424
g8
(g9
(I0
tS'b'
tRp425
(I1
(I3
tg50
I00
S'\x85\xebQ\xb8\x1e\x85\x05@\x00\x00\x00\x00\x00\x00\x00\x00333333\x03@'
tbsS'subsTopDes'
p426
F4500000
sS'moorLoadout'
p427
F5
sS'tower_section_height'
p428
g8
(g9
(I0
tS'b'
tRp429
(I1
(I5
tg158
I00
S'\x00\x00\x00\x00\x00\x00$@\x00\x10\xaeG\xe1z\x84?\xc3\xf5(\\\x8fBJ@\xcc\xcc\xcc\xcc\xcc\x8cJ@\x00)\\\x8f\xc2\xf5\n@'
tbsS'navStudyProj'
p430
F250000
sS'buryFac'
p431
F0.10000000000000001
sS'cab2CR'
p432
F202.78800000000001
sS'air_density'
p433
F1.198
sS'offset_section_height'
p434
g8
(g9
(I0
tS'b'
tRp435
(I1
(I5
tg12
I00
S'\x8eH*\x8d\xed\x97\xee?\xbe\xb4\x97\xdf\xab@\xfc?\xe1\xba\xe9\x80\xca\xfc2@d\xf2T\x8cx\r\xd8?\xf3\xbe9\x98\x966\x17@'
tbsS'strain_ult_te'
p436
F0.0050000000000000001
sS'turbine_overheadCostMultiplier'
p437
F0
sS'placePiles'
p438
F12
sS'main_permanent_ballast_height'
p439
g14
(g15
S'\xad%\xc7`\xf4\xb7\x13@'
tRp440
sS'diveTeamDR'
p441
F3200
sS'arrayY'
p442
F9
sS'bedplate_mass'
p443
F93090.600000000006
sS'mooring_line_length'
p444
g14
(g15
S'\xa0i\xb3W\xbe\x99\xa6@'
tRp445
sS'wind_reference_speed'
p446
F11
sS'control_maxOmega'
p447
F8.887659696962098
sS'crane'
p448
I00
sS'hub_mass_cost_coeff'
p449
F3.7999999999999998
sS'operational_heel'
p450
F6
sS'removeHamMono'
p451
F2
sS'connection_ratio_max'
p452
F0.25
sS'hss_mass_cost_coeff'
p453
F8.25
sS'spMoorCheck'
p454
F16
sS'spinner_mass_cost_coeff'
p455
F23
sS'pileSpreadDR'
p456
F2500
sS'lss_mass'
p457
F31257.299999999999
sS'mooring_lines_per_connection'
p458
g14
(g15
S'\x00\x00\x00\x00\x00\x00\x00@'
tRp459
sS'anchor_radius'
p460
g14
(g15
S'\xb7\xb3A\xe2p\xd8\xa5@'
tRp461
sS'pontoon_outer_diameter'
p462
g14
(g15
S'\xf9C~D&\xd0!@'
tRp463
sS'moorTimeFac'
p464
F0.0050000000000000001
sS'shorePullIn'
p465
F96
sS'natHisPresAct'
p466
F250000
sS'scrapVal'
p467
F0
sS'mooring_cost_rate'
p468
F1.1000000000000001
sS'bedplate_mass_cost_coeff'
p469
F4.5
sS'nu'
p470
F0.26000000000000001
sS'arrCab2Mass'
p471
F21.853999999999999
sS'E'
F200000000000
sS'cab2CurrRating'
p472
F340
sS'boltTower'
p473
F7
sS'cabLoadout'
p474
F14
sS'subsPullIn'
p475
F48
sS'vesselPosJack'
p476
F8
sS'nacelle_assemblyCostMultiplier'
p477
F0
sS'install_contingency'
p478
F0.29999999999999999
sS'mooring_type'
p479
S'chain'
p480
sS'decomDiscRate'
p481
F0.029999999999999999
s(lp482
(lp483
S'fairlead_location'
p484
aF0
aF1
aa(lp485
S'fairlead_support_wall_thickness'
p486
aF0.001
aF1
aa(lp487
S'fairlead_support_outer_diameter'
p488
aF0.10000000000000001
aF10
aa(lp489
S'main_freeboard'
p490
aF0
aF50
aa(lp491
S'main_section_height'
p492
aF0.10000000000000001
aF50
aa(lp493
S'main_outer_diameter'
p494
aF2.1000000000000001
aF40
aa(lp495
S'main_wall_thickness'
p496
aF0.001
aF0.5
aa(lp497
S'main_buoyancy_tank_diameter'
p498
aF0
aF50
aa(lp499
S'main_buoyancy_tank_height'
p500
aF0
aF20
aa(lp501
S'main_buoyancy_tank_location'
p502
aF0
aF1
aa(lp503
S'offset_freeboard'
p504
aF2
aF15
aa(lp505
S'offset_section_height'
p506
aF0.10000000000000001
aF50
aa(lp507
S'offset_outer_diameter'
p508
aF1.1000000000000001
aF40
aa(lp509
S'offset_wall_thickness'
p510
aF0.001
aF0.5
aa(lp511
S'offset_buoyancy_tank_diameter'
p512
aF0
aF50
aa(lp513
S'offset_buoyancy_tank_height'
p514
aF0
aF20
aa(lp515
S'offset_buoyancy_tank_location'
p516
aF0
aF1
aa(lp517
S'pontoon_outer_diameter'
p518
aF1
aF10
aa(lp519
S'pontoon_wall_thickness'
p520
aF0.01
aF1
aa(lp521
S'main_pontoon_attach_lower'
p522
aF0
aF0.5
aa(lp523
S'main_pontoon_attach_upper'
p524
aF0.5
aF1
aa(lp525
S'mooring_line_length'
p526
aF200
aF3000
aa(lp527
S'anchor_radius'
p528
aF100
aF5000
aa(lp529
S'mooring_diameter'
p530
aF0.050000000000000003
aF2
aa(lp531
S'main_permanent_ballast_height'
p532
aF0.10000000000000001
aF50
aa(lp533
S'main_stiffener_web_height'
p534
aF0.01
aF1
aa(lp535
S'main_stiffener_web_thickness'
p536
aF0.001
aF0.5
aa(lp537
S'main_stiffener_flange_width'
p538
aF0.01
aF5
aa(lp539
S'main_stiffener_flange_thickness'
p540
aF0.001
aF0.5
aa(lp541
S'main_stiffener_spacing'
p542
aF0.10000000000000001
aF100
aa(lp543
S'offset_stiffener_web_height'
p544
aF0.01
aF1
aa(lp545
S'offset_stiffener_web_thickness'
p546
aF0.001
aF0.5
aa(lp547
S'offset_stiffener_flange_width'
p548
aF0.01
aF5
aa(lp549
S'offset_stiffener_flange_thickness'
p550
aF0.001
aF0.5
aa(lp551
S'offset_stiffener_spacing'
p552
aF0.10000000000000001
aF100
aa(lp553
S'offset_permanent_ballast_height'
p554
aF0.10000000000000001
aF50
aa(lp555
S'radius_to_offset_column'
p556
aF5
aF100
aa(lp557
(lp558
S'tow.height_constraint'
p559
aF-0.01
aF0.01
aNaa(lp560
S'main.draft'
p561
aF0
aF20
aNaa(lp562
S'off.draft'
p563
aF0
aF20
aNaa(lp564
S'main.draft_margin'
p565
aF0
aF1
aNaa(lp566
S'off.draft_margin'
p567
aF0
aF1
aNaa(lp568
S'main.wave_height_freeboard_ratio'
p569
aNaF1
aNaa(lp570
S'off.wave_height_freeboard_ratio'
p571
aNaF1
aNaa(lp572
S'main_offset_spacing'
p573
aF1
aNaNaa(lp574
S'main.manufacturability'
p575
aF0
aNaNaa(lp576
S'main.weldability'
p577
aNaF0
aNaa(lp578
S'off.manufacturability'
p579
aF0
aNaNaa(lp580
S'off.weldability'
p581
aNaF0
aNaa(lp582
S'tower_transition_buffer'
p583
aF-1
aF1
aNaa(lp584
S'nacelle_transition_buffer'
p585
aF0
aNaNaa(lp586
S'offset_freeboard_heel_margin'
p587
aF0
aNaNaa(lp588
S'offset_draft_heel_margin'
p589
aF0
aF20
aNaa(lp590
S'axial_unity'
p591
aF0
aF1
aNaa(lp592
S'mooring_length_max'
p593
aNaF1
aNaa(lp594
S'main.flange_spacing_ratio'
p595
aNaF1
aNaa(lp596
S'main.stiffener_radius_ratio'
p597
aNaF0.5
aNaa(lp598
S'main.flange_compactness'
p599
aF1
aNaNaa(lp600
S'main.web_compactness'
p601
aF1
aNaNaa(lp602
S'main.axial_local_api'
p603
aNaF1
aNaa(lp604
S'main.axial_general_api'
p605
aNaF1
aNaa(lp606
S'main.external_local_api'
p607
aNaF1
aNaa(lp608
S'main.external_general_api'
p609
aNaF1
aNaa(lp610
S'off.flange_spacing_ratio'
p611
aNaF1
aNaa(lp612
S'off.stiffener_radius_ratio'
p613
aNaF0.5
aNaa(lp614
S'off.flange_compactness'
p615
aF1
aNaNaa(lp616
S'off.web_compactness'
p617
aF1
aNaNaa(lp618
S'off.axial_local_api'
p619
aNaF1
aNaa(lp620
S'off.axial_general_api'
p621
aNaF1
aNaa(lp622
S'off.external_local_api'
p623
aNaF1
aNaa(lp624
S'off.external_general_api'
p625
aNaF1
aNaa(lp626
S'pontoon_stress'
p627
aNaF1
aNaa(lp628
S'tower_stress'
p629
aNaF1
aNaa(lp630
S'tower_shell_buckling'
p631
aNaF1
aNaa(lp632
S'tower_global_buckling'
p633
aNaF1
aNaa(lp634
S'main_stress'
p635
aNaF1
aNaa(lp636
S'main_shell_buckling'
p637
aNaF1
aNaa(lp638
S'main_global_buckling'
p639
aNaF1
aNaa(lp640
S'offset_stress'
p641
aNaF1
aNaa(lp642
S'offset_shell_buckling'
p643
aNaF1
aNaa(lp644
S'offset_global_buckling'
p645
aNaF1
aNaa(lp646
S'variable_ballast_height_ratio'
p647
aF0
aF1
aNaa(lp648
S'variable_ballast_mass'
p649
aF0
aNaNaa(lp650
S'metacentric_height'
p651
aF0.10000000000000001
aNaNaa(lp652
S'offset_force_ratio'
p653
aNaF1
aNaa(lp654
S'heel_moment_ratio'
p655
aNaF1
aNaa(lp656
S'period_margin_low'
p657
aNaF1
aNaa(lp658
S'period_margin_high'
p659
aF1
aNaNaa(lp660
S'Pn_margin'
p661
aNaF1
aNaa(lp662
S'P1_margin'
p663
aNaF1
aNaa(lp664
S'Pn_margin_cfem'
p665
aNaF1
aNaa(lp666
S'P1_margin_cfem'
p667
aNaF1
aNaa(lp668
S'rotor_strain_sparU'
p669
aF-1
aNaNaa(lp670
S'rotor_strain_sparL'
p671
aNaF1
aNaa(lp672
S'rotor_strain_teU'
p673
aF-1
aNaNaa(lp674
S'rotor_strain_teL'
p675
aNaF1
aNaa(lp676
S'rotor_buckling_sparU'
p677
aNaF1
aNaa(lp678
S'rotor_buckling_sparL'
p679
aNaF1
aNaa(lp680
S'rotor_buckling_teU'
p681
aNaF1
aNaa(lp682
S'rotor_buckling_teL'
p683
aNaF1
aNaa(lp684
S'rotor_damage_sparU'
p685
aNaF0
aNaa(lp686
S'rotor_damage_sparL'
p687
aNaF0
aNaa(lp688
S'rotor_damage_teU'
p689
aNaF0
aNaa(lp690
S'rotor_damage_teL'
p691
aNaF0
aNaa(lp692
S'ground_clearance'
p693
aF20
aNaNaa(S'total_cost'
p694
F1.0000000000000001e-09
tp695
S'NM'
p696
t.