((dp1
S'rna_moment'
p2
cnumpy.core.multiarray
_reconstruct
p3
(cnumpy
ndarray
p4
(I0
tS'b'
tRp5
(I1
(I3
tcnumpy
dtype
p6
(S'f8'
I0
I1
tRp7
(I3
S'<'
NNNI-1
I-1
I0
tbI00
S'\xec*\xda\xf3O\xe7{A\xf8\xedw\x9a\x0e\xff\rA\xf1\x80S\xcaVvG\xc1'
tbsS'offset_permanent_ballast_height'
p8
F0.10000000000000001
sS'rna_force'
p9
g3
(g4
(I0
tS'b'
tRp10
(I1
(I3
tg7
I00
S'\xcd\xcc\xccLc\x1e@A\x00\x00\x00\x00\x00\x00\x00\x00\xc3\xf5(\xec!\xffY\xc1'
tbsS'gamma_fatigue'
p11
F1.7549999999999999
sS'loading'
p12
S'hydrostatic'
p13
sS'lower_ring_pontoons_int'
p14
I0
sS'main_stiffener_web_height'
p15
g3
(g4
(I0
tS'b'
tRp16
(I1
(I4
tg6
(S'f8'
I0
I1
tRp17
(I3
S'<'
NNNI-1
I-1
I0
tbI00
S'>\xe9\xc31\x0ee\x8d?P~\xf2\x12\xf1\x05\xa0?\x7fy\x97H\xe1z\x84?@\x19\xaeG\xe1z\x84?'
tbsS'zref'
p18
F119
sS'outfitting_cost_rate'
p19
F1.6500000000000001
sS'offset_buoyancy_tank_location'
p20
F0
sS'main_stiffener_flange_width'
p21
g3
(g4
(I0
tS'b'
tRp22
(I1
(I4
tg17
I00
S'\xf0\n\xa7\xe1\x81/\xd5?d\\s\x95|\xe1\xb1?\xb7\xd3u\x0b\xec\x02\xa9?\x80\x14\xaeG\xe1z\x84?'
tbsS'max_taper_ratio'
p23
F0.40000000000000002
sS'main_stiffener_spacing'
p24
g3
(g4
(I0
tS'b'
tRp25
(I1
(I4
tg17
I00
S'@\x95Tjal\x02@\xa6k\xe6\xf4\x072\x01@\x06\x81wc\xf9x\x1b@\xa1\x91/\xc2\x9c\xc4\x17@'
tbsS'max_draft'
p26
F200
sS'T'
F9.8000000000000007
sS'bulkhead_mass_factor'
p27
F1
sS'wave_period_range_high'
p28
F20
sS'cross_attachment_pontoons_int'
p29
I0
sS'outfitting_mass_fraction'
p30
F0.059999999999999998
sS'offset_buoyancy_tank_diameter'
p31
F24
sS'main_outer_diameter'
p32
g3
(g4
(I0
tS'b'
tRp33
(I1
(I5
tg17
I00
S'\x01d\xfb|\xd4\xfb1@\x91:*\x02hR\r@\xfe\xe64\xd6\xeb8.@\x8c\x83\xa5\x91\x94\x17\x1b@\xea\x0e\xf9D\xe7M*@'
tbsS'rna_I'
p34
g3
(g4
(I0
tS'b'
tRp35
(I1
(I6
tg7
I00
S'\x00\x00\x00.b\xf5\xa3A\x00\x00\x00\x08)"\x99A\x00\x00\x00\xf0\x10Q\x94A\x00\x00\x00\x00\x00\x00\x00\x00\xa4p=\n\x98x7A\x00\x00\x00\x00\x00\x00\x00\x00'
tbsS'main.windLoads.mu'
p36
F1.8099999999999999e-05
sS'fairlead_support_outer_diameter'
p37
cnumpy.core.multiarray
scalar
p38
(g17
S'\x9a\x99\x99\x99\x99\x99\xb9?'
tRp39
sS'offset_bulkhead_thickness'
p40
g3
(g4
(I0
tS'b'
tRp41
(I1
(I5
tg7
I00
S'\x9a\x99\x99\x99\x99\x99\xa9?\x9a\x99\x99\x99\x99\x99\xa9?\x00\x00\x00\x00\x00\x00\x00\x00\x00\x00\x00\x00\x00\x00\x00\x00\x9a\x99\x99\x99\x99\x99\xa9?'
tbsS'shell_mass_factor'
p42
F1
sS'main_pontoon_attach_upper'
p43
F1
sS'rna_mass'
p44
F449282.40530069917
sS'tower_buckling_length'
p45
F30
sS'Hs'
p46
F10.800000000000001
sS'main_freeboard'
p47
g38
(g17
S"!\xfc~\x80\xa5\xfb'@"
tRp48
sS'Rhub'
p49
F2.2999999999999998
sS'material_density'
p50
F7850
sS'tower_outfitting_factor'
p51
F1.0700000000000001
sS'tower_outer_diameter'
p52
g3
(g4
(I0
tS'b'
tRp53
(I1
(I4
tg17
I00
S'\xec\x95S\x065t(@J\xdf\xec\xac\xa5G\x1e@\xbf\xb6<\xc8\xe8C\x19@\xa6\x14\x04\x07&\xa6\x13@'
tbsS'anchor_type'
p54
S'suctionpile'
p55
sS'G'
F79300000000
sS'fairlead_location'
p56
g38
(g17
S'.+ o\x9f\x83\xe3?'
tRp57
sS'max_offset'
p58
F100
sS'max_survival_heel'
p59
F15
sS'main.waveLoads.mu'
p60
F0.00088999999999999995
sS'permanent_ballast_density'
p61
F4492
sS'z0'
p62
F0
sS'Uc'
p63
F0
sS'material_cost_rate'
p64
F1.1000000000000001
sS'pontoon_wall_thickness'
p65
F0.017500000000000002
sS'number_of_offset_columns'
p66
I0
sS'radius_to_offset_column'
p67
F28.867513459481287
sS'tower_section_height'
p68
g3
(g4
(I0
tS'b'
tRp69
(I1
(I3
tg17
I00
S'N\xe6S\x85\rEL@x\xe5\xf2*\xf1\x8bA@\xfb`\xea.\xea\xafF@'
tbsS'main_buoyancy_tank_location'
p70
g38
(g17
S'\x7f[\xe9pt.\xeb?'
tRp71
sS'cm'
p72
F2
sS'main_stiffener_flange_thickness'
p73
g3
(g4
(I0
tS'b'
tRp74
(I1
(I4
tg17
I00
S'\xd8t\xa8MpR\x9f?\xf0\xec\xf2G\x16\xf4\xb7?\x80\xdc\xf5\x0f\xb6\x03\xdf?\x01\xf7\xf1\xd2MbP?'
tbsS'hub_cm'
p75
g3
(g4
(I0
tS'b'
tRp76
(I1
(I3
tg6
(S'f8'
I0
I1
tRp77
(I3
S'<'
NNNI-1
I-1
I0
tbI00
S'ffffff\x1c\xc0\x00\x00\x00\x00\x00\x00\x00\x00\x00\x00\x00\x00\x00\x00\x06@'
tbsS'mooring_diameter'
p78
g38
(g17
S'\x9a\x99\x99\x99\x99\x99\xa9?'
tRp79
sS'gamma_m'
p80
F1.1000000000000001
sS'gamma_n'
p81
F1
sS'offset_section_height'
p82
g3
(g4
(I0
tS'b'
tRp83
(I1
(I4
tg7
I00
S'\x00\x00\x00\x00\x00\x00 @\x00\x00\x00\x00\x00\x00 @\x00\x00\x00\x00\x00\x00 @\x00\x00\x00\x00\x00\x00 @'
tbsS'main_bulkhead_thickness'
p84
g3
(g4
(I0
tS'b'
tRp85
(I1
(I5
tg7
I00
S'\x9a\x99\x99\x99\x99\x99\xa9?\x9a\x99\x99\x99\x99\x99\xa9?\x00\x00\x00\x00\x00\x00\x00\x00\x00\x00\x00\x00\x00\x00\x00\x00\x9a\x99\x99\x99\x99\x99\xa9?'
tbsS'yaw'
p86
F0
sS'gamma_f'
p87
F1.3500000000000001
sS'offset_freeboard'
p88
F12
sS'gamma_b'
p89
F1.1000000000000001
sS'tip_position'
p90
g3
(g4
(I0
tS'b'
tRp91
(I1
(I3
tg77
I00
S'\x9c\xc4 \xb0rh\x0c\xc0\x00\x00\x00\x00\x00\x00\x00\x00\x1b/\xdd$\x06\x815@'
tbsS'z_offset'
p92
F0
sS'ballast_cost_rate'
p93
F0.10000000000000001
sS'number_of_mooring_connections'
p94
I3
sS'offset_stiffener_web_thickness'
p95
g3
(g4
(I0
tS'b'
tRp96
(I1
(I4
tg7
I00
S'{\x14\xaeG\xe1z\xa4?{\x14\xaeG\xe1z\xa4?{\x14\xaeG\xe1z\xa4?{\x14\xaeG\xe1z\xa4?'
tbsS'mooring_line_length'
p97
g38
(g17
S'@5\xef\xe5\xf9\x03|@'
tRp98
sS'downwind'
p99
I00
sS'outer_cross_pontoons_int'
p100
I0
sS'water_depth'
p101
F320
sS'main_buoyancy_tank_diameter'
p102
g38
(g17
S'ng\xf8\x8e\x96\xe3U='
tRp103
sS'column_mass_factor'
p104
F1.05
sS'operational_heel'
p105
F6
sS'offset_outer_diameter'
p106
g3
(g4
(I0
tS'b'
tRp107
(I1
(I5
tg7
I00
S'\x00\x00\x00\x00\x00\x00(@\x00\x00\x00\x00\x00\x00(@\x00\x00\x00\x00\x00\x00(@\x00\x00\x00\x00\x00\x00(@\x00\x00\x00\x00\x00\x00(@'
tbsS'yield_stress'
p108
F345000000
sS'main_wall_thickness'
p109
g3
(g4
(I0
tS'b'
tRp110
(I1
(I4
tg17
I00
S"\xa4g\x97>\xa2\xb9\xa5?\xe2[V\xdf\x17U\x98?\xfa\xfeP;\xd0{\xa5?'\x19\xc8\xbb\xad\x00\xa6?"
tbsS'connection_ratio_max'
p111
F0.25
sS'ring_mass_factor'
p112
F1
sS'upper_ring_pontoons_int'
p113
I0
sS'main_stiffener_web_thickness'
p114
g3
(g4
(I0
tS'b'
tRp115
(I1
(I4
tg17
I00
S'\x8e\x85@\xe0\x0f\xaa\x91?\xbc\xd6{X\x98\xcfW?\x00\xaa\xf1\xd2MbP?\x80\xb1\xf1\xd2MbP?'
tbsS'lower_attachment_pontoons_int'
p116
I0
sS'water_density'
p117
F1025
sS'main_buoyancy_tank_height'
p118
g38
(g17
S'\x86\xf6\xb5\x14\xfb\xa94?'
tRp119
sS'cd_usr'
p120
Finf
sS'min_diameter_thickness_ratio'
p121
F120
sS'offset_wall_thickness'
p122
g3
(g4
(I0
tS'b'
tRp123
(I1
(I4
tg7
I00
S'\xb8\x1e\x85\xebQ\xb8\xae?\xb8\x1e\x85\xebQ\xb8\xae?\xb8\x1e\x85\xebQ\xb8\xae?\xb8\x1e\x85\xebQ\xb8\xae?'
tbsS'offset_buoyancy_tank_height'
p124
F5
sS'main_section_height'
p125
g3
(g4
(I0
tS'b'
tRp126
(I1
(I4
tg17
I00
S'\x80\xa6\x17\xc8]\x84"@\x06\xc1\x9a\xbb\x16\xa8B@u&F\xa4\xb9D%@\xc0\xb4\xb7b\x13\xd0#@'
tbsS'Uref'
p127
F11
sS'anchor_radius'
p128
g38
(g17
S'\xd5\xa4[ud1m@'
tRp129
sS'rna_cg'
p130
g3
(g4
(I0
tS'b'
tRp131
(I1
(I3
tg7
I00
S'\x1e\x01\x16\xd8\xe7Z\xe3\xbf\x00\x00\x00\x00\x00\x00\x00\x00\x0e\xb4L\xd0p$\x04@'
tbsS'pontoon_outer_diameter'
p132
F3.2000000000000002
sS'fairlead_support_wall_thickness'
p133
g38
(g17
S'\x1e\xc7\x06\r:\x95\x9d?'
tRp134
sS'fairlead_offset_from_shell'
p135
F0.5
sS'tower_wall_thickness'
p136
g3
(g4
(I0
tS'b'
tRp137
(I1
(I3
tg17
I00
S'O\xdb\xdd\xa4\x8e\x87\x9a?\xb4g\xe9\x93\x1a\x19\x9b?\x03\x8fS\xd4\x88\xff\x94?'
tbsS'mooring_cost_rate'
p138
F1.1000000000000001
sS'painting_cost_rate'
p139
F14.4
sS'nu'
p140
F0.26000000000000001
sS'E'
F200000000000
sS'wave_period_range_low'
p141
F2
sS'main_pontoon_attach_lower'
p142
F0.10000000000000001
sS'offset_stiffener_flange_thickness'
p143
g3
(g4
(I0
tS'b'
tRp144
(I1
(I4
tg7
I00
S'{\x14\xaeG\xe1z\x94?{\x14\xaeG\xe1z\x94?{\x14\xaeG\xe1z\x94?{\x14\xaeG\xe1z\x94?'
tbsS'main.windLoads.rho'
p145
F1.198
sS'beta'
p146
F0
sS'shearExp'
p147
F0.11
sS'mooring_lines_per_connection'
p148
g38
(g17
S'\x00\x00\x00\x00\x00\x00\x00@'
tRp149
sS'main_permanent_ballast_height'
p150
g38
(g17
S'E\xe65\xae\x1b\x14\x07@'
tRp151
sS'offset_stiffener_flange_width'
p152
g3
(g4
(I0
tS'b'
tRp153
(I1
(I4
tg7
I00
S'\x9a\x99\x99\x99\x99\x99\xb9?\x9a\x99\x99\x99\x99\x99\xb9?\x9a\x99\x99\x99\x99\x99\xb9?\x9a\x99\x99\x99\x99\x99\xb9?'
tbsS'offset_stiffener_spacing'
p154
g3
(g4
(I0
tS'b'
tRp155
(I1
(I4
tg7
I00
S'\x9a\x99\x99\x99\x99\x99\xd9?\x9a\x99\x99\x99\x99\x99\xd9?\x9a\x99\x99\x99\x99\x99\xd9?\x9a\x99\x99\x99\x99\x99\xd9?'
tbsS'mooring_type'
p156
S'chain'
p157
sS'hub_height'
p158
F149
sS'upper_attachment_pontoons_int'
p159
I0
sS'labor_cost_rate'
p160
F1
sS'offset_stiffener_web_height'
p161
g3
(g4
(I0
tS'b'
tRp162
(I1
(I4
tg7
I00
S'\x9a\x99\x99\x99\x99\x99\xb9?\x9a\x99\x99\x99\x99\x99\xb9?\x9a\x99\x99\x99\x99\x99\xb9?\x9a\x99\x99\x99\x99\x99\xb9?'
tbs(lp163
(lp164
g56
aF0
aF1
aa(lp165
g133
aF0.001
aF1
aa(lp166
g37
aF0.10000000000000001
aF10
aa(lp167
g47
aF0
aF50
aa(lp168
g125
aF0.10000000000000001
aF50
aa(lp169
g32
aF2.1000000000000001
aF20
aa(lp170
g109
aF0.001
aF0.5
aa(lp171
g102
aF0
aF50
aa(lp172
g118
aF0
aF20
aa(lp173
g70
aF0
aF1
aa(lp174
g68
aF0.10000000000000001
aF100
aa(lp175
g52
aF1.1000000000000001
aF20
aa(lp176
g136
aF0.001
aF0.5
aa(lp177
g97
aF200
aF3000
aa(lp178
g128
aF100
aF5000
aa(lp179
g78
aF0.050000000000000003
aF2
aa(lp180
g150
aF0.10000000000000001
aF50
aa(lp181
g15
aF0.01
aF1
aa(lp182
g114
aF0.001
aF0.5
aa(lp183
g21
aF0.01
aF5
aa(lp184
g73
aF0.001
aF0.5
aa(lp185
g24
aF0.10000000000000001
aF100
aa(lp186
(lp187
S'tow.height_constraint'
p188
aF-0.01
aF0.01
aNaa(lp189
S'tow.tip_deflection_margin'
p190
aF1
aNaNaa(lp191
S'main.draft_margin'
p192
aNaF1
aNaa(lp193
S'main.wave_height_freeboard_ratio'
p194
aNaF1
aNaa(lp195
S'wave_height_fairlead_ratio'
p196
aNaF1
aNaa(lp197
S'main.manufacturability'
p198
aF0
aNaNaa(lp199
S'main.weldability'
p200
aNaF0
aNaa(lp201
S'tow.manufacturability'
p202
aF0
aNaNaa(lp203
S'tow.weldability'
p204
aNaF0
aNaa(lp205
S'tower_transition_buffer'
p206
aF0
aNaNaa(lp207
S'nacelle_transition_buffer'
p208
aF0
aNaNaa(lp209
S'axial_unity'
p210
aF0
aF1
aNaa(lp211
S'mooring_length_max'
p212
aNaF1
aNaa(lp213
S'main.flange_spacing_ratio'
p214
aNaF1
aNaa(lp215
S'main.stiffener_radius_ratio'
p216
aNaF0.5
aNaa(lp217
S'main.flange_compactness'
p218
aF1
aNaNaa(lp219
S'main.web_compactness'
p220
aF1
aNaNaa(lp221
S'main.axial_local_api'
p222
aNaF1
aNaa(lp223
S'main.axial_general_api'
p224
aNaF1
aNaa(lp225
S'main.external_local_api'
p226
aNaF1
aNaa(lp227
S'main.external_general_api'
p228
aNaF1
aNaa(lp229
S'tower_stress'
p230
aNaF1
aNaa(lp231
S'tower_shell_buckling'
p232
aNaF1
aNaa(lp233
S'tower_global_buckling'
p234
aNaF1
aNaa(lp235
S'main_stress'
p236
aNaF1
aNaa(lp237
S'main_shell_buckling'
p238
aNaF1
aNaa(lp239
S'main_global_buckling'
p240
aNaF1
aNaa(lp241
S'variable_ballast_height_ratio'
p242
aF0
aF1
aNaa(lp243
S'variable_ballast_mass'
p244
aF0
aNaNaa(lp245
S'metacentric_height'
p246
aF1
aNaNaa(lp247
S'heel_moment_ratio'
p248
aNaF1
aNaa(lp249
S'period_margin_low'
p250
aNaF1
aNaa(lp251
S'period_margin_high'
p252
aF1
aNaNaa(S'total_cost'
p253
F9.9999999999999995e-07
tp254
S'NM'
p255
t.