((dp1
S'rna_moment'
p2
cnumpy.core.multiarray
_reconstruct
p3
(cnumpy
ndarray
p4
(I0
tS'b'
tRp5
(I1
(I3
tcnumpy
dtype
p6
(S'f8'
I0
I1
tRp7
(I3
S'<'
NNNI-1
I-1
I0
tbI00
S'\xec*\xda\xf3O\xe7{A\xf8\xedw\x9a\x0e\xff\rA\xf1\x80S\xcaVvG\xc1'
tbsS'offset_permanent_ballast_height'
p8
F0.10000000000000001
sS'rna_force'
p9
g3
(g4
(I0
tS'b'
tRp10
(I1
(I3
tg7
I00
S'\xcd\xcc\xccLc\x1e@A\x00\x00\x00\x00\x00\x00\x00\x00\xc3\xf5(\xec!\xffY\xc1'
tbsS'gamma_fatigue'
p11
F1.7549999999999999
sS'loading'
p12
S'hydrostatic'
p13
sS'lower_ring_pontoons_int'
p14
I0
sS'main_stiffener_web_height'
p15
g3
(g4
(I0
tS'b'
tRp16
(I1
(I4
tg6
(S'f8'
I0
I1
tRp17
(I3
S'<'
NNNI-1
I-1
I0
tbI00
S'A\xc8\xa4j\xeb\xff\xef?A\xc8\xa4j\xeb\xff\xef?A\xc8\xa4j\xeb\xff\xef?A\xc8\xa4j\xeb\xff\xef?'
tbsS'zref'
p18
F119
sS'outfitting_cost_rate'
p19
F1.6500000000000001
sS'offset_buoyancy_tank_location'
p20
F0
sS'main_stiffener_flange_width'
p21
g3
(g4
(I0
tS'b'
tRp22
(I1
(I4
tg17
I00
S'\x01\xb3h\x9a\x13\xb8\x00@\x01\xb3h\x9a\x13\xb8\x00@\x01\xb3h\x9a\x13\xb8\x00@\x01\xb3h\x9a\x13\xb8\x00@'
tbsS'max_taper_ratio'
p23
F0.40000000000000002
sS'main_stiffener_spacing'
p24
g3
(g4
(I0
tS'b'
tRp25
(I1
(I4
tg17
I00
S'\x1dK=\xcf\xe8\xbc&@\x1dK=\xcf\xe8\xbc&@\x1dK=\xcf\xe8\xbc&@\x1dK=\xcf\xe8\xbc&@'
tbsS'max_draft'
p26
F200
sS'T'
F9.8000000000000007
sS'bulkhead_mass_factor'
p27
F1
sS'wave_period_range_high'
p28
F20
sS'cross_attachment_pontoons_int'
p29
I0
sS'outfitting_mass_fraction'
p30
F0.059999999999999998
sS'offset_buoyancy_tank_diameter'
p31
F24
sS'main_outer_diameter'
p32
g3
(g4
(I0
tS'b'
tRp33
(I1
(I5
tg6
(S'f8'
I0
I1
tRp34
(I3
S'<'
NNNI-1
I-1
I0
tbI00
S'\x9do\x17Q\xf0\x0c1@0T}9\x83! @9\xc9\xae\xa1l23@\xd3\xb3\x8e\x87S\xef/@\nd\xfb\x06\rv\x1e@'
tbsS'rna_I'
p35
g3
(g4
(I0
tS'b'
tRp36
(I1
(I6
tg7
I00
S'\x00\x00\x00.b\xf5\xa3A\x00\x00\x00\x08)"\x99A\x00\x00\x00\xf0\x10Q\x94A\x00\x00\x00\x00\x00\x00\x00\x00\xa4p=\n\x98x7A\x00\x00\x00\x00\x00\x00\x00\x00'
tbsS'main.windLoads.mu'
p37
F1.8099999999999999e-05
sS'fairlead_support_outer_diameter'
p38
cnumpy.core.multiarray
scalar
p39
(g6
(S'f8'
I0
I1
tRp40
(I3
S'<'
NNNI-1
I-1
I0
tbS'\xbf\xf1\x11\xc6[\xff#@'
tRp41
sS'offset_bulkhead_thickness'
p42
g3
(g4
(I0
tS'b'
tRp43
(I1
(I5
tg6
(S'f8'
I0
I1
tRp44
(I3
S'<'
NNNI-1
I-1
I0
tbI00
S'\x9a\x99\x99\x99\x99\x99\xa9?\x9a\x99\x99\x99\x99\x99\xa9?\x00\x00\x00\x00\x00\x00\x00\x00\x00\x00\x00\x00\x00\x00\x00\x00\x9a\x99\x99\x99\x99\x99\xa9?'
tbsS'shell_mass_factor'
p45
F1
sS'main_pontoon_attach_upper'
p46
F1
sS'rna_mass'
p47
F672300.53030069917
sS'tower_buckling_length'
p48
F30
sS'Hs'
p49
F10.800000000000001
sS'main_freeboard'
p50
g39
(g40
S'\x04i Q\x9b\x00>@'
tRp51
sS'Rhub'
p52
F2.2999999999999998
sS'material_density'
p53
F7850
sS'tower_outfitting_factor'
p54
F1.0700000000000001
sS'tower_outer_diameter'
p55
g3
(g4
(I0
tS'b'
tRp56
(I1
(I4
tg17
I00
S'\x00\x00\x00\x00\x00\x00"@\x00\x00\x00\x00\x00\x00\x1d@\x00\x00\x00\x00\x00\x00\x1d@\x00\x00\x00\x00\x00\x00\x16@'
tbsS'anchor_type'
p57
S'suctionpile'
p58
sS'G'
F79300000000
sS'fairlead_location'
p59
g39
(g40
S'R\xe4\nY\x0eE\xd9?'
tRp60
sS'max_offset'
p61
F100
sS'max_survival_heel'
p62
F15
sS'main.waveLoads.mu'
p63
F0.00088999999999999995
sS'permanent_ballast_density'
p64
F4492
sS'z0'
p65
F0
sS'Uc'
p66
F0
sS'material_cost_rate'
p67
F1.1000000000000001
sS'pontoon_wall_thickness'
p68
F0.017500000000000002
sS'number_of_offset_columns'
p69
I0
sS'radius_to_offset_column'
p70
F28.867513459481287
sS'tower_section_height'
p71
g3
(g4
(I0
tS'b'
tRp72
(I1
(I3
tg17
I00
S'UUUUU\xd5C@UUUUU\xd5C@UUUUU\xd5C@'
tbsS'main_buoyancy_tank_location'
p73
g39
(g40
S'\x19:;\x8d\xa3\x02\xe2?'
tRp74
sS'cm'
p75
F2
sS'main_stiffener_flange_thickness'
p76
g3
(g4
(I0
tS'b'
tRp77
(I1
(I4
tg17
I00
S'\x8cJ\xb6\x92\xff\xff\xdf?\x8cJ\xb6\x92\xff\xff\xdf?\x8cJ\xb6\x92\xff\xff\xdf?\x8cJ\xb6\x92\xff\xff\xdf?'
tbsS'hub_cm'
p78
g3
(g4
(I0
tS'b'
tRp79
(I1
(I3
tg44
I00
S'ffffff\x1c\xc0\x00\x00\x00\x00\x00\x00\x00\x00\x00\x00\x00\x00\x00\x00\x06@'
tbsS'mooring_diameter'
p80
g39
(g40
S'\xcdmX\x1b\xa9g\xc8?'
tRp81
sS'gamma_m'
p82
F1.1000000000000001
sS'gamma_n'
p83
F1
sS'offset_section_height'
p84
g3
(g4
(I0
tS'b'
tRp85
(I1
(I4
tg7
I00
S'\x9a\x99\x99\x99\x99\x99\x19@\x9a\x99\x99\x99\x99\x99\x19@\x9a\x99\x99\x99\x99\x99)@\x9a\x99\x99\x99\x99\x99\x19@'
tbsS'main_bulkhead_thickness'
p86
g3
(g4
(I0
tS'b'
tRp87
(I1
(I5
tg44
I00
S'\x9a\x99\x99\x99\x99\x99\xa9?\x9a\x99\x99\x99\x99\x99\xa9?\x00\x00\x00\x00\x00\x00\x00\x00\x00\x00\x00\x00\x00\x00\x00\x00\x9a\x99\x99\x99\x99\x99\xa9?'
tbsS'yaw'
p88
F0
sS'gamma_f'
p89
F1.3500000000000001
sS'offset_freeboard'
p90
F12
sS'gamma_b'
p91
F1.1000000000000001
sS'tip_position'
p92
g3
(g4
(I0
tS'b'
tRp93
(I1
(I3
tg44
I00
S'\x9c\xc4 \xb0rh\x0c\xc0\x00\x00\x00\x00\x00\x00\x00\x00\x1b/\xdd$\x06\x815@'
tbsS'z_offset'
p94
F0
sS'ballast_cost_rate'
p95
F0.10000000000000001
sS'number_of_mooring_connections'
p96
I3
sS'offset_stiffener_web_thickness'
p97
g3
(g4
(I0
tS'b'
tRp98
(I1
(I4
tg17
I00
S'{\x14\xaeG\xe1z\xa4?{\x14\xaeG\xe1z\xa4?{\x14\xaeG\xe1z\xa4?{\x14\xaeG\xe1z\xa4?'
tbsS'mooring_line_length'
p99
g39
(g40
S'\x83\x98v\x92\xe3\x91\xa5@'
tRp100
sS'downwind'
p101
I00
sS'outer_cross_pontoons_int'
p102
I0
sS'water_depth'
p103
F320
sS'main_buoyancy_tank_diameter'
p104
g39
(g40
S'\x98I\xf3\xa4\x9b\xfe\x13@'
tRp105
sS'column_mass_factor'
p106
F1.05
sS'operational_heel'
p107
F6
sS'offset_outer_diameter'
p108
g3
(g4
(I0
tS'b'
tRp109
(I1
(I5
tg7
I00
S'\x00\x00\x00\x00\x00\x00(@\x00\x00\x00\x00\x00\x00(@\x00\x00\x00\x00\x00\x00(@\x00\x00\x00\x00\x00\x00(@\x00\x00\x00\x00\x00\x00(@'
tbsS'yield_stress'
p110
F345000000
sS'main_wall_thickness'
p111
g3
(g4
(I0
tS'b'
tRp112
(I1
(I4
tg17
I00
S'|W\x986\xd9c\xb6?|W\x986\xd9c\xb6?|W\x986\xd9c\xb6?|W\x986\xd9c\xb6?'
tbsS'connection_ratio_max'
p113
F0.25
sS'ring_mass_factor'
p114
F1
sS'upper_ring_pontoons_int'
p115
I0
sS'main_stiffener_web_thickness'
p116
g3
(g4
(I0
tS'b'
tRp117
(I1
(I4
tg17
I00
S'\x15\xbbyg\xf1\xff\xdf?\x15\xbbyg\xf1\xff\xdf?\x15\xbbyg\xf1\xff\xdf?\x15\xbbyg\xf1\xff\xdf?'
tbsS'lower_attachment_pontoons_int'
p118
I0
sS'water_density'
p119
F1025
sS'main_buoyancy_tank_height'
p120
g39
(g40
S'9\x9cJ&\xe1\x84+@'
tRp121
sS'cd_usr'
p122
Finf
sS'min_diameter_thickness_ratio'
p123
F120
sS'offset_wall_thickness'
p124
g3
(g4
(I0
tS'b'
tRp125
(I1
(I4
tg17
I00
S'\xb8\x1e\x85\xebQ\xb8\xae?\xb8\x1e\x85\xebQ\xb8\xae?\xb8\x1e\x85\xebQ\xb8\xae?\xb8\x1e\x85\xebQ\xb8\xae?'
tbsS'offset_buoyancy_tank_height'
p126
F5
sS'main_section_height'
p127
g3
(g4
(I0
tS'b'
tRp128
(I1
(I4
tg34
I00
S'\x10\xc5\x96\xdd\xac=@@vMy\xad\xfe\x81:@\x1c\xf4\x96J\x9e\xceB@0\x0f|\xdat`8@'
tbsS'Uref'
p129
F11
sS'anchor_radius'
p130
g39
(g40
S'\xdcuo\x9e\xe1\xa5\xa4@'
tRp131
sS'rna_cg'
p132
g3
(g4
(I0
tS'b'
tRp133
(I1
(I3
tg7
I00
S'\x1e\x01\x16\xd8\xe7Z\xe3\xbf\x00\x00\x00\x00\x00\x00\x00\x00\x0e\xb4L\xd0p$\x04@'
tbsS'pontoon_outer_diameter'
p134
F3.2000000000000002
sS'fairlead_support_wall_thickness'
p135
g39
(g40
S'\x98\xfd\xd9\xbd!\x86\xc8?'
tRp136
sS'fairlead_offset_from_shell'
p137
F0.5
sS'tower_wall_thickness'
p138
g3
(g4
(I0
tS'b'
tRp139
(I1
(I3
tg17
I00
S'\x90\xebQ\xb8\x1e\x85\xd3?\x90\xebQ\xb8\x1e\x85\xd3?\x90\xebQ\xb8\x1e\x85\xd3?'
tbsS'mooring_cost_rate'
p140
F1.1000000000000001
sS'painting_cost_rate'
p141
F14.4
sS'nu'
p142
F0.26000000000000001
sS'E'
F200000000000
sS'wave_period_range_low'
p143
F2
sS'main_pontoon_attach_lower'
p144
F0.10000000000000001
sS'offset_stiffener_flange_thickness'
p145
g3
(g4
(I0
tS'b'
tRp146
(I1
(I4
tg17
I00
S'{\x14\xaeG\xe1z\x94?{\x14\xaeG\xe1z\x94?{\x14\xaeG\xe1z\x94?{\x14\xaeG\xe1z\x94?'
tbsS'main.windLoads.rho'
p147
F1.198
sS'beta'
p148
F0
sS'shearExp'
p149
F0.11
sS'mooring_lines_per_connection'
p150
g39
(g40
S'\x00\x00\x00\x00\x00\x00\x00@'
tRp151
sS'main_permanent_ballast_height'
p152
g39
(g40
S'\xf8\x86q\xf1-H\x1f@'
tRp153
sS'offset_stiffener_flange_width'
p154
g3
(g4
(I0
tS'b'
tRp155
(I1
(I4
tg17
I00
S'\x9a\x99\x99\x99\x99\x99\xb9?\x9a\x99\x99\x99\x99\x99\xb9?\x9a\x99\x99\x99\x99\x99\xb9?\x9a\x99\x99\x99\x99\x99\xb9?'
tbsS'offset_stiffener_spacing'
p156
g3
(g4
(I0
tS'b'
tRp157
(I1
(I4
tg17
I00
S'\x9a\x99\x99\x99\x99\x99\xd9?\x9a\x99\x99\x99\x99\x99\xd9?\x9a\x99\x99\x99\x99\x99\xd9?\x9a\x99\x99\x99\x99\x99\xd9?'
tbsS'mooring_type'
p158
S'chain'
p159
sS'hub_height'
p160
F149
sS'upper_attachment_pontoons_int'
p161
I0
sS'labor_cost_rate'
p162
F1
sS'offset_stiffener_web_height'
p163
g3
(g4
(I0
tS'b'
tRp164
(I1
(I4
tg17
I00
S'\x9a\x99\x99\x99\x99\x99\xb9?\x9a\x99\x99\x99\x99\x99\xb9?\x9a\x99\x99\x99\x99\x99\xb9?\x9a\x99\x99\x99\x99\x99\xb9?'
tbs(lp165
(lp166
S'fairlead_location'
p167
aF0
aF1
aa(lp168
S'fairlead_support_wall_thickness'
p169
aF0.001
aF1
aa(lp170
S'fairlead_support_outer_diameter'
p171
aF0.10000000000000001
aF10
aa(lp172
S'main_freeboard'
p173
aF0
aF50
aa(lp174
S'main_section_height'
p175
aF0.10000000000000001
aF50
aa(lp176
S'main_outer_diameter'
p177
aF2.1000000000000001
aF20
aa(lp178
S'main_wall_thickness'
p179
aF0.001
aF0.5
aa(lp180
S'main_buoyancy_tank_diameter'
p181
aF0
aF50
aa(lp182
S'main_buoyancy_tank_height'
p183
aF0
aF20
aa(lp184
S'main_buoyancy_tank_location'
p185
aF0
aF1
aa(lp186
S'mooring_line_length'
p187
aF200
aF3000
aa(lp188
S'anchor_radius'
p189
aF100
aF5000
aa(lp190
S'mooring_diameter'
p191
aF0.050000000000000003
aF2
aa(lp192
S'main_permanent_ballast_height'
p193
aF0.10000000000000001
aF50
aa(lp194
S'main_stiffener_web_height'
p195
aF0.01
aF1
aa(lp196
S'main_stiffener_web_thickness'
p197
aF0.001
aF0.5
aa(lp198
S'main_stiffener_flange_width'
p199
aF0.01
aF5
aa(lp200
S'main_stiffener_flange_thickness'
p201
aF0.001
aF0.5
aa(lp202
S'main_stiffener_spacing'
p203
aF0.10000000000000001
aF100
aa(lp204
(lp205
S'tow.height_constraint'
p206
aF-0.01
aF0.01
aNaa(lp207
S'main.draft'
p208
aF0
aF200
aNaa(lp209
S'main.draft_margin'
p210
aF0
aF1
aNaa(lp211
S'main.wave_height_freeboard_ratio'
p212
aNaF1
aNaa(lp213
S'main.manufacturability'
p214
aF0
aNaNaa(lp215
S'main.weldability'
p216
aNaF0
aNaa(lp217
S'tower_transition_buffer'
p218
aF-1
aF1
aNaa(lp219
S'nacelle_transition_buffer'
p220
aF0
aNaNaa(lp221
S'axial_unity'
p222
aF0
aF1
aNaa(lp223
S'mooring_length_max'
p224
aNaF1
aNaa(lp225
S'main.flange_spacing_ratio'
p226
aNaF1
aNaa(lp227
S'main.stiffener_radius_ratio'
p228
aNaF0.5
aNaa(lp229
S'main.flange_compactness'
p230
aF1
aNaNaa(lp231
S'main.web_compactness'
p232
aF1
aNaNaa(lp233
S'main.axial_local_api'
p234
aNaF1
aNaa(lp235
S'main.axial_general_api'
p236
aNaF1
aNaa(lp237
S'main.external_local_api'
p238
aNaF1
aNaa(lp239
S'main.external_general_api'
p240
aNaF1
aNaa(lp241
S'tower_stress'
p242
aNaF1
aNaa(lp243
S'tower_shell_buckling'
p244
aNaF1
aNaa(lp245
S'tower_global_buckling'
p246
aNaF1
aNaa(lp247
S'main_stress'
p248
aNaF1
aNaa(lp249
S'main_shell_buckling'
p250
aNaF1
aNaa(lp251
S'main_global_buckling'
p252
aNaF1
aNaa(lp253
S'variable_ballast_height_ratio'
p254
aF0
aF1
aNaa(lp255
S'variable_ballast_mass'
p256
aF0
aNaNaa(lp257
S'metacentric_height'
p258
aF0.10000000000000001
aNaNaa(lp259
S'offset_force_ratio'
p260
aNaF1
aNaa(lp261
S'heel_moment_ratio'
p262
aNaF1
aNaa(lp263
S'period_margin_low'
p264
aNaF1
aNaa(lp265
S'period_margin_high'
p266
aF1
aNaNaa(S'total_cost'
p267
F1.0000000000000001e-09
tp268
S'NM'
p269
t.