((dp1
S'rna_moment'
p2
cnumpy.core.multiarray
_reconstruct
p3
(cnumpy
ndarray
p4
(I0
tS'b'
tRp5
(I1
(I3
tcnumpy
dtype
p6
(S'f8'
I0
I1
tRp7
(I3
S'<'
NNNI-1
I-1
I0
tbI00
S'\xec*\xda\xf3O\xe7{A\xf8\xedw\x9a\x0e\xff\rA\xf1\x80S\xcaVvG\xc1'
tbsS'offset_permanent_ballast_height'
p8
F0.10000000000000001
sS'rna_force'
p9
g3
(g4
(I0
tS'b'
tRp10
(I1
(I3
tg7
I00
S'\xcd\xcc\xccLc\x1e@A\x00\x00\x00\x00\x00\x00\x00\x00\xc3\xf5(\xec!\xffY\xc1'
tbsS'gamma_fatigue'
p11
F1.7549999999999999
sS'loading'
p12
S'hydrostatic'
p13
sS'lower_ring_pontoons_int'
p14
I0
sS'main_stiffener_web_height'
p15
g3
(g4
(I0
tS'b'
tRp16
(I1
(I5
tg6
(S'f8'
I0
I1
tRp17
(I3
S'<'
NNNI-1
I-1
I0
tbI00
S'\x90E@\x07\x83\xcc\xdd?\xf9\xdez=\x16\xab\xd8?{\x14\xaeG\xe1z\x84?6z"\xc1\xfd\xff\xef?\xbd F,Y\xa8\x98?'
tbsS'zref'
p18
F119
sS'outfitting_cost_rate'
p19
F1.6500000000000001
sS'offset_buoyancy_tank_location'
p20
F0
sS'main_stiffener_flange_width'
p21
g3
(g4
(I0
tS'b'
tRp22
(I1
(I5
tg17
I00
S'\xbc\xaa\x12\x92\x10\xfe\x99?\x0e\xaf\xb7\xab\x12\xb3\xd5?\xde\x84\x0b\xe6\xd1\xd8\xf8?\x90f\xf3\xc3\x17M\x02@\xea\xdb\x85\xff\xc7\xa8\xea?'
tbsS'max_taper_ratio'
p23
F0.40000000000000002
sS'main_stiffener_spacing'
p24
g3
(g4
(I0
tS'b'
tRp25
(I1
(I5
tg17
I00
S'\xa0X\x99\x1b\xed\xbb&@e\x88\xadP\xfeB4@\xfa\xdf\xc5\xa3P\x0b:@\xbaD\xb8`\xdd{U@:\x7f<\xb0\x8d\x1c7@'
tbsS'max_draft'
p26
F200
sS'T'
F9.8000000000000007
sS'bulkhead_mass_factor'
p27
F1
sS'wave_period_range_high'
p28
F20
sS'cross_attachment_pontoons_int'
p29
I0
sS'outfitting_mass_fraction'
p30
F0.059999999999999998
sS'offset_buoyancy_tank_diameter'
p31
F24
sS'main_outer_diameter'
p32
g3
(g4
(I0
tS'b'
tRp33
(I1
(I6
tg17
I00
S'\xa8.\xd9p\xef\x0c1@\xba\x82\xbc\xb9!! @1\xab\x08f523@z%\x88\xf2\xac\xd5-@\x88a\xa5]\xfeV#@\x00DX\x1d\rv\x1e@'
tbsS'rna_I'
p34
g3
(g4
(I0
tS'b'
tRp35
(I1
(I6
tg7
I00
S'\x00\x00\x00.b\xf5\xa3A\x00\x00\x00\x08)"\x99A\x00\x00\x00\xf0\x10Q\x94A\x00\x00\x00\x00\x00\x00\x00\x00\xa4p=\n\x98x7A\x00\x00\x00\x00\x00\x00\x00\x00'
tbsS'main.windLoads.mu'
p36
F1.8099999999999999e-05
sS'fairlead_support_outer_diameter'
p37
cnumpy.core.multiarray
scalar
p38
(g6
(S'f8'
I0
I1
tRp39
(I3
S'<'
NNNI-1
I-1
I0
tbS'T\xc4z5\xd7\xf6#@'
tRp40
sS'offset_bulkhead_thickness'
p41
g3
(g4
(I0
tS'b'
tRp42
(I1
(I6
tg7
I00
S'\x9a\x99\x99\x99\x99\x99\xa9?\x9a\x99\x99\x99\x99\x99\xa9?\x00\x00\x00\x00\x00\x00\x00\x00\x00\x00\x00\x00\x00\x00\x00\x00\x00\x00\x00\x00\x00\x00\x00\x00\x9a\x99\x99\x99\x99\x99\xa9?'
tbsS'shell_mass_factor'
p43
F1
sS'main_pontoon_attach_upper'
p44
F1
sS'rna_mass'
p45
F560791.46780069917
sS'tower_buckling_length'
p46
F30
sS'Hs'
p47
F10.800000000000001
sS'main_freeboard'
p48
g38
(g39
S'\x98\xd4O\x98M\x00>@'
tRp49
sS'Rhub'
p50
F2.2999999999999998
sS'material_density'
p51
F7850
sS'tower_outfitting_factor'
p52
F1.0700000000000001
sS'tower_outer_diameter'
p53
g3
(g4
(I0
tS'b'
tRp54
(I1
(I6
tg7
I00
S'\x00\x00\x00\x00\x00\x00"@\x00\x00\x00\x00\x00\x00"@\x9a\x99\x99\x99\x99\x99 @\xa4p=\n\xd7\xa3\x1b@\x00\x00\x00\x00\x00\x00\x16@\x00\x00\x00\x00\x00\x00\x16@'
tbsS'anchor_type'
p55
S'suctionpile'
p56
sS'G'
F79300000000
sS'fairlead_location'
p57
g38
(g39
S'\xd1\xfd\xfcc\xbfE\xd9?'
tRp58
sS'max_offset'
p59
F100
sS'max_survival_heel'
p60
F15
sS'main_stiffener_flange_thickness'
p61
g3
(g4
(I0
tS'b'
tRp62
(I1
(I5
tg17
I00
S'\x87u\xd3\x0e\x9aQ\xdf?\xd0{TR\xef\xee\xcb?*m0\x94\x167\xb6?d\x99:\xb0\xe8f\xc1?\xbdE\x01r\x8e\xb5\xb4?'
tbsS'permanent_ballast_density'
p63
F4492
sS'z0'
p64
F0
sS'Uc'
p65
F0
sS'material_cost_rate'
p66
F1.1000000000000001
sS'pontoon_wall_thickness'
p67
F0.017500000000000002
sS'number_of_offset_columns'
p68
I0
sS'radius_to_offset_column'
p69
F28.867513459481287
sS'tower_section_height'
p70
g3
(g4
(I0
tS'b'
tRp71
(I1
(I5
tg7
I00
S'\x00\x00\x00\x00\x00\x00$@\x00\x10\xaeG\xe1z\x84?\xc3\xf5(\\\x8fBJ@\xcc\xcc\xcc\xcc\xcc\x8cJ@\x00)\\\x8f\xc2\xf5\n@'
tbsS'main_buoyancy_tank_location'
p72
g38
(g39
S'\x12d\xc0\xbffF\xe1?'
tRp73
sS'cm'
p74
F2
sS'main.waveLoads.mu'
p75
F0.00088999999999999995
sS'mooring_diameter'
p76
g38
(g39
S'\x0fa\xd6b^\x88\xc5?'
tRp77
sS'gamma_m'
p78
F1.1000000000000001
sS'gamma_n'
p79
F1
sS'offset_section_height'
p80
g3
(g4
(I0
tS'b'
tRp81
(I1
(I5
tg7
I00
S'\x9a\x99\x99\x99\x99\x99\x19@\x9a\x99\x99\x99\x99\x99\x19@\x9a\x99\x99\x99\x99\x99\x19@\x9a\x99\x99\x99\x99\x99\x19@\x9a\x99\x99\x99\x99\x99\x19@'
tbsS'main_bulkhead_thickness'
p82
g3
(g4
(I0
tS'b'
tRp83
(I1
(I6
tg7
I00
S'\x9a\x99\x99\x99\x99\x99\xa9?\x9a\x99\x99\x99\x99\x99\xa9?\x00\x00\x00\x00\x00\x00\x00\x00\x00\x00\x00\x00\x00\x00\x00\x00\x00\x00\x00\x00\x00\x00\x00\x00\x9a\x99\x99\x99\x99\x99\xa9?'
tbsS'yaw'
p84
F0
sS'gamma_f'
p85
F1.3500000000000001
sS'offset_freeboard'
p86
F12
sS'gamma_b'
p87
F1.1000000000000001
sS'z_offset'
p88
F0
sS'ballast_cost_rate'
p89
F0.10000000000000001
sS'number_of_mooring_connections'
p90
I3
sS'offset_stiffener_web_thickness'
p91
g3
(g4
(I0
tS'b'
tRp92
(I1
(I5
tg7
I00
S'{\x14\xaeG\xe1z\xa4?{\x14\xaeG\xe1z\xa4?{\x14\xaeG\xe1z\xa4?{\x14\xaeG\xe1z\xa4?{\x14\xaeG\xe1z\xa4?'
tbsS'mooring_line_length'
p93
g38
(g39
S',\x0f#\xa1y\xac\xa5@'
tRp94
sS'outer_cross_pontoons_int'
p95
I0
sS'water_depth'
p96
F320
sS'main_buoyancy_tank_diameter'
p97
g38
(g39
S':\xb2\xbe}\xb6A\x11@'
tRp98
sS'column_mass_factor'
p99
F1.05
sS'operational_heel'
p100
F6
sS'offset_outer_diameter'
p101
g3
(g4
(I0
tS'b'
tRp102
(I1
(I6
tg7
I00
S'\x00\x00\x00\x00\x00\x00(@\x00\x00\x00\x00\x00\x00(@\x00\x00\x00\x00\x00\x00(@\x00\x00\x00\x00\x00\x00(@\x00\x00\x00\x00\x00\x00(@\x00\x00\x00\x00\x00\x00(@'
tbsS'yield_stress'
p103
F345000000
sS'main_wall_thickness'
p104
g3
(g4
(I0
tS'b'
tRp105
(I1
(I5
tg6
(S'f8'
I0
I1
tRp106
(I3
S'<'
NNNI-1
I-1
I0
tbI00
S"\x84U\xb0'\xcc\xe8\xb3?\xd8\x10`3\xc6\x07\xb4?\xc6\xe0\x9b\xd5\xd2X\xb6?\xae\xcc?L\xd6O\xb0?\x8b\xd4\xd7\xb9\xb7\x9d\xa7?"
tbsS'connection_ratio_max'
p107
F0.25
sS'ring_mass_factor'
p108
F1
sS'upper_ring_pontoons_int'
p109
I0
sS'main_stiffener_web_thickness'
p110
g3
(g4
(I0
tS'b'
tRp111
(I1
(I5
tg17
I00
S'\xbe\xee\x91boU\xb6?\xb0\x17\xff\xc5\x8e\x1c\xb4?\xca\xd7\xa3\xee\xb3~\xd9?\x17\xb9\xc3\xdc\xa6\xba\xdb?\xd2\x94z\x90\xbebP?'
tbsS'lower_attachment_pontoons_int'
p112
I0
sS'water_density'
p113
F1025
sS'main_buoyancy_tank_height'
p114
g38
(g39
S'H\xda\xf6m1\x7f+@'
tRp115
sS'cd_usr'
p116
Finf
sS'min_diameter_thickness_ratio'
p117
F120
sS'offset_wall_thickness'
p118
g3
(g4
(I0
tS'b'
tRp119
(I1
(I5
tg106
I00
S'\xb8\x1e\x85\xebQ\xb8\xae?\xb8\x1e\x85\xebQ\xb8\xae?\xb8\x1e\x85\xebQ\xb8\xae?\xb8\x1e\x85\xebQ\xb8\xae?\xb8\x1e\x85\xebQ\xb8\xae?'
tbsS'offset_buoyancy_tank_height'
p120
F5
sS'main_section_height'
p121
g3
(g4
(I0
tS'b'
tRp122
(I1
(I5
tg17
I00
S'7\xb9E\xa9\xa7=@@\xd4\xb0y\x08\x02\x82:@\x17\x87\xa2\xecb\xce7@\x16;R\x98\x1a\x8c+@\xf5\xeaS\x93\x8c`8@'
tbsS'Uref'
p123
F11
sS'anchor_radius'
p124
g38
(g39
S'dM\x1aW\x7f\xce\xa4@'
tRp125
sS'rna_cg'
p126
g3
(g4
(I0
tS'b'
tRp127
(I1
(I3
tg7
I00
S'\x1e\x01\x16\xd8\xe7Z\xe3\xbf\x00\x00\x00\x00\x00\x00\x00\x00\x0e\xb4L\xd0p$\x04@'
tbsS'pontoon_outer_diameter'
p128
F3.2000000000000002
sS'fairlead_support_wall_thickness'
p129
g38
(g39
S'\xfc\xa9\xf1\xd2MbP?'
tRp130
sS'fairlead_offset_from_shell'
p131
F0.5
sS'tower_wall_thickness'
p132
g3
(g4
(I0
tS'b'
tRp133
(I1
(I5
tg106
I00
S'\x90\xebQ\xb8\x1e\x85\xd3?@\\\x8f\xc2\xf5(\xcc?\x10\x00\x00\x00\x00\x00\xc0?\xc0\xf5(\\\x8f\xc2\xb5?\x80\x1e\x85\xebQ\xb8\xae?'
tbsS'mooring_cost_rate'
p134
F1.1000000000000001
sS'painting_cost_rate'
p135
F14.4
sS'nu'
p136
F0.26000000000000001
sS'E'
F200000000000
sS'wave_period_range_low'
p137
F2
sS'main_pontoon_attach_lower'
p138
F0.10000000000000001
sS'offset_stiffener_flange_thickness'
p139
g3
(g4
(I0
tS'b'
tRp140
(I1
(I5
tg7
I00
S'{\x14\xaeG\xe1z\x94?{\x14\xaeG\xe1z\x94?{\x14\xaeG\xe1z\x94?{\x14\xaeG\xe1z\x94?{\x14\xaeG\xe1z\x94?'
tbsS'main.windLoads.rho'
p141
F1.198
sS'beta'
p142
F0
sS'shearExp'
p143
F0.11
sS'mooring_lines_per_connection'
p144
g38
(g39
S'\x00\x00\x00\x00\x00\x00\x00@'
tRp145
sS'main_permanent_ballast_height'
p146
g38
(g39
S'Nwd\xcet\xa9\x1c@'
tRp147
sS'offset_stiffener_flange_width'
p148
g3
(g4
(I0
tS'b'
tRp149
(I1
(I5
tg7
I00
S'\x9a\x99\x99\x99\x99\x99\xb9?\x9a\x99\x99\x99\x99\x99\xb9?\x9a\x99\x99\x99\x99\x99\xb9?\x9a\x99\x99\x99\x99\x99\xb9?\x9a\x99\x99\x99\x99\x99\xb9?'
tbsS'offset_stiffener_spacing'
p150
g3
(g4
(I0
tS'b'
tRp151
(I1
(I5
tg7
I00
S'\x9a\x99\x99\x99\x99\x99\xd9?\x9a\x99\x99\x99\x99\x99\xd9?\x9a\x99\x99\x99\x99\x99\xd9?\x9a\x99\x99\x99\x99\x99\xd9?\x9a\x99\x99\x99\x99\x99\xd9?'
tbsS'mooring_type'
p152
S'chain'
p153
sS'hub_height'
p154
F149
sS'upper_attachment_pontoons_int'
p155
I0
sS'labor_cost_rate'
p156
F1
sS'offset_stiffener_web_height'
p157
g3
(g4
(I0
tS'b'
tRp158
(I1
(I5
tg7
I00
S'\x9a\x99\x99\x99\x99\x99\xb9?\x9a\x99\x99\x99\x99\x99\xb9?\x9a\x99\x99\x99\x99\x99\xb9?\x9a\x99\x99\x99\x99\x99\xb9?\x9a\x99\x99\x99\x99\x99\xb9?'
tbs(lp159
(lp160
S'fairlead_location'
p161
aF0
aF1
aa(lp162
S'fairlead_support_wall_thickness'
p163
aF0.001
aF1
aa(lp164
S'fairlead_support_outer_diameter'
p165
aF0.10000000000000001
aF10
aa(lp166
S'main_freeboard'
p167
aF0
aF50
aa(lp168
S'main_section_height'
p169
aF0.10000000000000001
aF50
aa(lp170
S'main_outer_diameter'
p171
aF2.1000000000000001
aF20
aa(lp172
S'main_wall_thickness'
p173
aF0.001
aF0.5
aa(lp174
S'main_buoyancy_tank_diameter'
p175
aF0
aF50
aa(lp176
S'main_buoyancy_tank_height'
p177
aF0
aF20
aa(lp178
S'main_buoyancy_tank_location'
p179
aF0
aF1
aa(lp180
S'mooring_line_length'
p181
aF200
aF3000
aa(lp182
S'anchor_radius'
p183
aF100
aF5000
aa(lp184
S'mooring_diameter'
p185
aF0.050000000000000003
aF2
aa(lp186
S'main_permanent_ballast_height'
p187
aF0.10000000000000001
aF50
aa(lp188
S'main_stiffener_web_height'
p189
aF0.01
aF1
aa(lp190
S'main_stiffener_web_thickness'
p191
aF0.001
aF0.5
aa(lp192
S'main_stiffener_flange_width'
p193
aF0.01
aF5
aa(lp194
S'main_stiffener_flange_thickness'
p195
aF0.001
aF0.5
aa(lp196
S'main_stiffener_spacing'
p197
aF0.10000000000000001
aF100
aa(lp198
(lp199
S'tow.height_constraint'
p200
aF-0.01
aF0.01
aNaa(lp201
S'main.draft_margin'
p202
aNaF1
aNaa(lp203
S'off.draft_margin'
p204
aNaF1
aNaa(lp205
S'main.wave_height_freeboard_ratio'
p206
aNaF1
aNaa(lp207
S'off.wave_height_freeboard_ratio'
p208
aNaF1
aNaa(lp209
S'main_offset_spacing'
p210
aF1
aNaNaa(lp211
S'main.manufacturability'
p212
aF0
aNaNaa(lp213
S'main.weldability'
p214
aNaF0
aNaa(lp215
S'off.manufacturability'
p216
aF0
aNaNaa(lp217
S'off.weldability'
p218
aNaF0
aNaa(lp219
S'tower_transition_buffer'
p220
aF-1
aF1
aNaa(lp221
S'nacelle_transition_buffer'
p222
aF0
aNaNaa(lp223
S'offset_freeboard_heel_margin'
p224
aF0
aNaNaa(lp225
S'offset_draft_heel_margin'
p226
aF0
aNaNaa(lp227
S'axial_unity'
p228
aF0
aF1
aNaa(lp229
S'mooring_length_max'
p230
aNaF1
aNaa(lp231
S'main.flange_spacing_ratio'
p232
aNaF1
aNaa(lp233
S'main.stiffener_radius_ratio'
p234
aNaF0.5
aNaa(lp235
S'main.flange_compactness'
p236
aF1
aNaNaa(lp237
S'main.web_compactness'
p238
aF1
aNaNaa(lp239
S'main.axial_local_api'
p240
aNaF1
aNaa(lp241
S'main.axial_general_api'
p242
aNaF1
aNaa(lp243
S'main.external_local_api'
p244
aNaF1
aNaa(lp245
S'main.external_general_api'
p246
aNaF1
aNaa(lp247
S'off.flange_spacing_ratio'
p248
aNaF1
aNaa(lp249
S'off.stiffener_radius_ratio'
p250
aNaF0.5
aNaa(lp251
S'off.flange_compactness'
p252
aF1
aNaNaa(lp253
S'off.web_compactness'
p254
aF1
aNaNaa(lp255
S'off.axial_local_api'
p256
aNaF1
aNaa(lp257
S'off.axial_general_api'
p258
aNaF1
aNaa(lp259
S'off.external_local_api'
p260
aNaF1
aNaa(lp261
S'off.external_general_api'
p262
aNaF1
aNaa(lp263
S'tower_stress'
p264
aNaF1
aNaa(lp265
S'tower_shell_buckling'
p266
aNaF1
aNaa(lp267
S'tower_global_buckling'
p268
aNaF1
aNaa(lp269
S'main_stress'
p270
aNaF1
aNaa(lp271
S'main_shell_buckling'
p272
aNaF1
aNaa(lp273
S'main_global_buckling'
p274
aNaF1
aNaa(lp275
S'offset_stress'
p276
aNaF1
aNaa(lp277
S'offset_shell_buckling'
p278
aNaF1
aNaa(lp279
S'offset_global_buckling'
p280
aNaF1
aNaa(lp281
S'variable_ballast_height_ratio'
p282
aF0
aF1
aNaa(lp283
S'variable_ballast_mass'
p284
aF0
aNaNaa(lp285
S'metacentric_height'
p286
aF0.10000000000000001
aNaNaa(lp287
S'offset_force_ratio'
p288
aNaF1
aNaa(lp289
S'heel_moment_ratio'
p290
aNaF1
aNaa(lp291
S'period_margin_low'
p292
aNaF1
aNaa(lp293
S'period_margin_high'
p294
aF1
aNaNaa(S'total_cost'
p295
F1.0000000000000001e-09
tp296
S'SUBPLEX'
p297
t.