((dp1
S'rna_moment'
p2
cnumpy.core.multiarray
_reconstruct
p3
(cnumpy
ndarray
p4
(I0
tS'b'
tRp5
(I1
(I3
tcnumpy
dtype
p6
(S'f8'
I0
I1
tRp7
(I3
S'<'
NNNI-1
I-1
I0
tbI00
S'\xec*\xda\xf3O\xe7{A\xf8\xedw\x9a\x0e\xff\rA\xf1\x80S\xcaVvG\xc1'
tbsS'offset_permanent_ballast_height'
p8
F0.10000000000000001
sS'rna_force'
p9
g3
(g4
(I0
tS'b'
tRp10
(I1
(I3
tg7
I00
S'\xcd\xcc\xccLc\x1e@A\x00\x00\x00\x00\x00\x00\x00\x00\xc3\xf5(\xec!\xffY\xc1'
tbsS'gamma_fatigue'
p11
F1.7549999999999999
sS'loading'
p12
S'hydrostatic'
p13
sS'lower_ring_pontoons_int'
p14
I1
sS'main_stiffener_web_height'
p15
g3
(g4
(I0
tS'b'
tRp16
(I1
(I5
tg6
(S'f8'
I0
I1
tRp17
(I3
S'<'
NNNI-1
I-1
I0
tbI00
S'\xe6\xd0,Cc\x83\xef?f\xc9=[l\xd3\xe8?\xb8\xcf\x85\xb2\x93\xfe\xe3?\xa4\xbc\xad\xf3\xfe\xff\xef?\xd4Gm+\xf1-\xe7?'
tbsS'zref'
p18
F119
sS'outfitting_cost_rate'
p19
F1.6500000000000001
sS'offset_buoyancy_tank_location'
p20
F0
sS'main_stiffener_flange_width'
p21
g3
(g4
(I0
tS'b'
tRp22
(I1
(I5
tg17
I00
S'\x98\x90\x970\xc1\x85\xff?\x8e\xb50\x83kp\r@\x11`<\xc1\r\x7f\x84?\xea\xe8\xc2\xff\x7f\x8f\xe0?\x1eo)\xf2\xed\xbe\x02@'
tbsS'max_taper_ratio'
p23
F0.40000000000000002
sS'main_stiffener_spacing'
p24
g3
(g4
(I0
tS'b'
tRp25
(I1
(I5
tg17
I00
S'\x10\xd6&\xec\xad\xe1\x16@\xaae\x1cntj;@\x08BI!\xbcK/@\xea\x16K\xd9\x93\x97K@0\xd1\x87\x06\xb6\xfeO@'
tbsS'max_draft'
p26
F35
sS'T'
F9.8000000000000007
sS'bulkhead_mass_factor'
p27
F1
sS'wave_period_range_high'
p28
F20
sS'cross_attachment_pontoons_int'
p29
I1
sS'outfitting_mass_fraction'
p30
F0.059999999999999998
sS'offset_buoyancy_tank_diameter'
p31
F24
sS'main_outer_diameter'
p32
g3
(g4
(I0
tS'b'
tRp33
(I1
(I6
tg17
I00
S"T\xf4\x9d\xddU\x80$@B+A'\xabd\x1d@D\xadm\x17\xf9\xa0\x1d@\xb6\xb9\x9co\xd8\xfb\x1d@v\xfd\x19W\xa4\xf2(@D\x9bw*2\x9a\x1c@"
tbsS'rna_I'
p34
g3
(g4
(I0
tS'b'
tRp35
(I1
(I6
tg7
I00
S'\x00\x00\x00.b\xf5\xa3A\x00\x00\x00\x08)"\x99A\x00\x00\x00\xf0\x10Q\x94A\x00\x00\x00\x00\x00\x00\x00\x00\xa4p=\n\x98x7A\x00\x00\x00\x00\x00\x00\x00\x00'
tbsS'main.windLoads.mu'
p36
F1.8099999999999999e-05
sS'fairlead_support_outer_diameter'
p37
cnumpy.core.multiarray
scalar
p38
(g6
(S'f8'
I0
I1
tRp39
(I3
S'<'
NNNI-1
I-1
I0
tbS'\xa8\x87P\xf8\xb9\xd8"@'
tRp40
sS'offset_bulkhead_thickness'
p41
g3
(g4
(I0
tS'b'
tRp42
(I1
(I6
tg7
I00
S'\x9a\x99\x99\x99\x99\x99\xa9?\x9a\x99\x99\x99\x99\x99\xa9?\x00\x00\x00\x00\x00\x00\x00\x00\x00\x00\x00\x00\x00\x00\x00\x00\x00\x00\x00\x00\x00\x00\x00\x00\x9a\x99\x99\x99\x99\x99\xa9?'
tbsS'shell_mass_factor'
p43
F1
sS'main_pontoon_attach_upper'
p44
F1
sS'rna_mass'
p45
F449282.40530069917
sS'tower_buckling_length'
p46
F30
sS'Hs'
p47
F10.800000000000001
sS'main_freeboard'
p48
g38
(g39
S'\xc4CJ\xee\xb0\x00>@'
tRp49
sS'Rhub'
p50
F2.2999999999999998
sS'material_density'
p51
F7850
sS'tower_outfitting_factor'
p52
F1.0700000000000001
sS'tower_outer_diameter'
p53
g3
(g4
(I0
tS'b'
tRp54
(I1
(I6
tg7
I00
S'\x00\x00\x00\x00\x00\x00"@\x00\x00\x00\x00\x00\x00"@\x9a\x99\x99\x99\x99\x99 @\xa4p=\n\xd7\xa3\x1b@\x00\x00\x00\x00\x00\x00\x16@\x00\x00\x00\x00\x00\x00\x16@'
tbsS'anchor_type'
p55
S'suctionpile'
p56
sS'G'
F79300000000
sS'fairlead_location'
p57
g38
(g39
S't\xa4D\xd0(\x07\xc0?'
tRp58
sS'max_offset'
p59
F100
sS'max_survival_heel'
p60
F15
sS'main_stiffener_flange_thickness'
p61
g3
(g4
(I0
tS'b'
tRp62
(I1
(I5
tg17
I00
S'*M\xbbF\xa3\xe6\xcb?t\xfa\xad\xc8\xca\xa6\xd5?@\xda?>\xc0\xb9\xa7?sV\x07\xeeZ\xb4\xd5?jg\xd4\x98R*\xc6?'
tbsS'permanent_ballast_density'
p63
F4492
sS'z0'
p64
F0
sS'Uc'
p65
F0
sS'material_cost_rate'
p66
F1.1000000000000001
sS'pontoon_wall_thickness'
p67
F0.017500000000000002
sS'number_of_offset_columns'
p68
I0
sS'radius_to_offset_column'
p69
F28.867513459481287
sS'tower_section_height'
p70
g3
(g4
(I0
tS'b'
tRp71
(I1
(I5
tg7
I00
S'\x00\x00\x00\x00\x00\x00$@\x00\x10\xaeG\xe1z\x84?\xc3\xf5(\\\x8fBJ@\xcc\xcc\xcc\xcc\xcc\x8cJ@\x00)\\\x8f\xc2\xf5\n@'
tbsS'main_buoyancy_tank_location'
p72
g38
(g39
S'L\xd9\xb9\xcb\x8c6\xd4?'
tRp73
sS'cm'
p74
F2
sS'main.waveLoads.mu'
p75
F0.00088999999999999995
sS'mooring_diameter'
p76
g38
(g39
S'\xa5\x7f\xd5\xacf~\xd2?'
tRp77
sS'gamma_m'
p78
F1.1000000000000001
sS'gamma_n'
p79
F1
sS'offset_section_height'
p80
g3
(g4
(I0
tS'b'
tRp81
(I1
(I5
tg7
I00
S'\x9a\x99\x99\x99\x99\x99\x19@\x9a\x99\x99\x99\x99\x99\x19@\x9a\x99\x99\x99\x99\x99\x19@\x9a\x99\x99\x99\x99\x99\x19@\x9a\x99\x99\x99\x99\x99\x19@'
tbsS'main_bulkhead_thickness'
p82
g3
(g4
(I0
tS'b'
tRp83
(I1
(I6
tg7
I00
S'\x9a\x99\x99\x99\x99\x99\xa9?\x9a\x99\x99\x99\x99\x99\xa9?\x00\x00\x00\x00\x00\x00\x00\x00\x00\x00\x00\x00\x00\x00\x00\x00\x00\x00\x00\x00\x00\x00\x00\x00\x9a\x99\x99\x99\x99\x99\xa9?'
tbsS'yaw'
p84
F0
sS'gamma_f'
p85
F1.3500000000000001
sS'offset_freeboard'
p86
F12
sS'gamma_b'
p87
F1.1000000000000001
sS'z_offset'
p88
F0
sS'ballast_cost_rate'
p89
F0.10000000000000001
sS'number_of_mooring_connections'
p90
g38
(g39
S'\x00\x00\x00\x00\x00\x00\x08@'
tRp91
sS'offset_stiffener_web_thickness'
p92
g3
(g4
(I0
tS'b'
tRp93
(I1
(I5
tg7
I00
S'{\x14\xaeG\xe1z\xa4?{\x14\xaeG\xe1z\xa4?{\x14\xaeG\xe1z\xa4?{\x14\xaeG\xe1z\xa4?{\x14\xaeG\xe1z\xa4?'
tbsS'mooring_line_length'
p94
g38
(g39
S'5\x8f\xfa\x1amTk@'
tRp95
sS'outer_cross_pontoons_int'
p96
I1
sS'water_depth'
p97
F320
sS'main_buoyancy_tank_diameter'
p98
g38
(g39
S'\xf7(\xb8\xedS\x00\r@'
tRp99
sS'column_mass_factor'
p100
F1.05
sS'operational_heel'
p101
F6
sS'offset_outer_diameter'
p102
g3
(g4
(I0
tS'b'
tRp103
(I1
(I6
tg7
I00
S'\x00\x00\x00\x00\x00\x00(@\x00\x00\x00\x00\x00\x00(@\x00\x00\x00\x00\x00\x00(@\x00\x00\x00\x00\x00\x00(@\x00\x00\x00\x00\x00\x00(@\x00\x00\x00\x00\x00\x00(@'
tbsS'yield_stress'
p104
F345000000
sS'main_wall_thickness'
p105
g3
(g4
(I0
tS'b'
tRp106
(I1
(I5
tg6
(S'f8'
I0
I1
tRp107
(I3
S'<'
NNNI-1
I-1
I0
tbI00
S"B\xd8s^\x92l\xb2?M#\xb5' \xaf\xae?\xda{M\xb4\xf3l\xad?R\xeb\x17L\xba\xd5\xa5?\xa0\x0c\xb5D\x87o\xa6?"
tbsS'connection_ratio_max'
p108
F0.25
sS'ring_mass_factor'
p109
F1
sS'upper_ring_pontoons_int'
p110
I1
sS'main_stiffener_web_thickness'
p111
g3
(g4
(I0
tS'b'
tRp112
(I1
(I5
tg17
I00
S'\xcf(\x96\xa3\xdd\xb5\xc3?hJYS\x95\x05\xce?T77\x06\xf8\xa6\xb4?\xa8\x03 \x8c|\x0b\xd2?\x080\xa7\xa0\xa2\xdf\xdc?'
tbsS'lower_attachment_pontoons_int'
p113
I1
sS'water_density'
p114
F1025
sS'main_buoyancy_tank_height'
p115
g38
(g39
S'\xee\xe3\xd4!\xcb\xe7#@'
tRp116
sS'cd_usr'
p117
Finf
sS'min_diameter_thickness_ratio'
p118
F120
sS'offset_wall_thickness'
p119
g3
(g4
(I0
tS'b'
tRp120
(I1
(I5
tg107
I00
S'\xb8\x1e\x85\xebQ\xb8\xae?\xb8\x1e\x85\xebQ\xb8\xae?\xb8\x1e\x85\xebQ\xb8\xae?\xb8\x1e\x85\xebQ\xb8\xae?\xb8\x1e\x85\xebQ\xb8\xae?'
tbsS'offset_buoyancy_tank_height'
p121
F5
sS'main_section_height'
p122
g3
(g4
(I0
tS'b'
tRp123
(I1
(I5
tg17
I00
S'\xc2;D\x97v\x9b\xc0?:\xc4O\x15\xf4\x8c\xc0?\xcf\xdd)M\xb8\xdc;@\xfc!\xc3\xf5\x87, @\x96\xaf\x7f+&_\x0c@'
tbsS'Uref'
p124
F11
sS'anchor_radius'
p125
g38
(g39
S'\xbe7\x13{\x96L?@'
tRp126
sS'rna_cg'
p127
g3
(g4
(I0
tS'b'
tRp128
(I1
(I3
tg7
I00
S'\x1e\x01\x16\xd8\xe7Z\xe3\xbf\x00\x00\x00\x00\x00\x00\x00\x00\x0e\xb4L\xd0p$\x04@'
tbsS'pontoon_outer_diameter'
p129
F3.2000000000000002
sS'fairlead_support_wall_thickness'
p130
g38
(g39
S'R\x905 \xc9J\xaf?'
tRp131
sS'fairlead_offset_from_shell'
p132
g38
(g39
S'\x04l\x9e\x1ay\x9c:@'
tRp133
sS'tower_wall_thickness'
p134
g3
(g4
(I0
tS'b'
tRp135
(I1
(I5
tg107
I00
S'\x90\xebQ\xb8\x1e\x85\xd3?@\\\x8f\xc2\xf5(\xcc?\x10\x00\x00\x00\x00\x00\xc0?\xc0\xf5(\\\x8f\xc2\xb5?\x80\x1e\x85\xebQ\xb8\xae?'
tbsS'mooring_cost_rate'
p136
F1.1000000000000001
sS'painting_cost_rate'
p137
F14.4
sS'nu'
p138
F0.26000000000000001
sS'E'
F200000000000
sS'wave_period_range_low'
p139
F2
sS'main_pontoon_attach_lower'
p140
F0.10000000000000001
sS'offset_stiffener_flange_thickness'
p141
g3
(g4
(I0
tS'b'
tRp142
(I1
(I5
tg7
I00
S'{\x14\xaeG\xe1z\x94?{\x14\xaeG\xe1z\x94?{\x14\xaeG\xe1z\x94?{\x14\xaeG\xe1z\x94?{\x14\xaeG\xe1z\x94?'
tbsS'main.windLoads.rho'
p143
F1.198
sS'beta'
p144
F0
sS'shearExp'
p145
F0.11
sS'mooring_lines_per_connection'
p146
g38
(g39
S'\x00\x00\x00\x00\x00\x00\xf0?'
tRp147
sS'main_permanent_ballast_height'
p148
g38
(g39
S'\xbeV\xa6\xf8j?\xf5?'
tRp149
sS'offset_stiffener_flange_width'
p150
g3
(g4
(I0
tS'b'
tRp151
(I1
(I5
tg7
I00
S'\x9a\x99\x99\x99\x99\x99\xb9?\x9a\x99\x99\x99\x99\x99\xb9?\x9a\x99\x99\x99\x99\x99\xb9?\x9a\x99\x99\x99\x99\x99\xb9?\x9a\x99\x99\x99\x99\x99\xb9?'
tbsS'offset_stiffener_spacing'
p152
g3
(g4
(I0
tS'b'
tRp153
(I1
(I5
tg7
I00
S'\x9a\x99\x99\x99\x99\x99\xd9?\x9a\x99\x99\x99\x99\x99\xd9?\x9a\x99\x99\x99\x99\x99\xd9?\x9a\x99\x99\x99\x99\x99\xd9?\x9a\x99\x99\x99\x99\x99\xd9?'
tbsS'mooring_type'
p154
S'nylon'
p155
sS'hub_height'
p156
F149
sS'upper_attachment_pontoons_int'
p157
I1
sS'labor_cost_rate'
p158
F1
sS'offset_stiffener_web_height'
p159
g3
(g4
(I0
tS'b'
tRp160
(I1
(I5
tg7
I00
S'\x9a\x99\x99\x99\x99\x99\xb9?\x9a\x99\x99\x99\x99\x99\xb9?\x9a\x99\x99\x99\x99\x99\xb9?\x9a\x99\x99\x99\x99\x99\xb9?\x9a\x99\x99\x99\x99\x99\xb9?'
tbs(lp161
(lp162
S'fairlead_location'
p163
aF0
aF1
aa(lp164
S'fairlead_offset_from_shell'
p165
aF5
aF30
aa(lp166
S'fairlead_support_wall_thickness'
p167
aF0.001
aF1
aa(lp168
S'fairlead_support_outer_diameter'
p169
aF0.10000000000000001
aF10
aa(lp170
S'main_freeboard'
p171
aF0
aF50
aa(lp172
S'main_section_height'
p173
aF0.10000000000000001
aF50
aa(lp174
S'main_outer_diameter'
p175
aF2.1000000000000001
aF20
aa(lp176
S'main_wall_thickness'
p177
aF0.001
aF0.5
aa(lp178
S'main_buoyancy_tank_diameter'
p179
aF0
aF50
aa(lp180
S'main_buoyancy_tank_height'
p181
aF0
aF20
aa(lp182
S'main_buoyancy_tank_location'
p183
aF0
aF1
aa(lp184
S'mooring_line_length'
p185
aF10
aF300
aa(lp186
S'anchor_radius'
p187
aF20
aF100
aa(lp188
S'mooring_diameter'
p189
aF0.050000000000000003
aF5
aa(lp190
S'main_permanent_ballast_height'
p191
aF0.10000000000000001
aF50
aa(lp192
S'main_stiffener_web_height'
p193
aF0.01
aF1
aa(lp194
S'main_stiffener_web_thickness'
p195
aF0.001
aF0.5
aa(lp196
S'main_stiffener_flange_width'
p197
aF0.01
aF5
aa(lp198
S'main_stiffener_flange_thickness'
p199
aF0.001
aF0.5
aa(lp200
S'main_stiffener_spacing'
p201
aF0.10000000000000001
aF100
aa(lp202
(lp203
S'tow.height_constraint'
p204
aF-0.01
aF0.01
aNaa(lp205
S'main.draft_margin'
p206
aNaF1
aNaa(lp207
S'off.draft_margin'
p208
aNaF1
aNaa(lp209
S'main.wave_height_freeboard_ratio'
p210
aNaF1
aNaa(lp211
S'off.wave_height_freeboard_ratio'
p212
aNaF1
aNaa(lp213
S'main_offset_spacing'
p214
aF1
aNaNaa(lp215
S'main.manufacturability'
p216
aF0
aNaNaa(lp217
S'main.weldability'
p218
aNaF0
aNaa(lp219
S'off.manufacturability'
p220
aF0
aNaNaa(lp221
S'off.weldability'
p222
aNaF0
aNaa(lp223
S'tower_transition_buffer'
p224
aF-1
aF1
aNaa(lp225
S'nacelle_transition_buffer'
p226
aF0
aNaNaa(lp227
S'offset_draft_heel_margin'
p228
aF0
aNaNaa(lp229
S'axial_unity'
p230
aF0
aF1
aNaa(lp231
S'mooring_length_max'
p232
aNaF1
aNaa(lp233
S'main.flange_spacing_ratio'
p234
aNaF1
aNaa(lp235
S'main.stiffener_radius_ratio'
p236
aNaF0.5
aNaa(lp237
S'main.flange_compactness'
p238
aF1
aNaNaa(lp239
S'main.web_compactness'
p240
aF1
aNaNaa(lp241
S'main.axial_local_api'
p242
aNaF1
aNaa(lp243
S'main.axial_general_api'
p244
aNaF1
aNaa(lp245
S'main.external_local_api'
p246
aNaF1
aNaa(lp247
S'main.external_general_api'
p248
aNaF1
aNaa(lp249
S'off.flange_spacing_ratio'
p250
aNaF1
aNaa(lp251
S'off.stiffener_radius_ratio'
p252
aNaF0.5
aNaa(lp253
S'off.flange_compactness'
p254
aF1
aNaNaa(lp255
S'off.web_compactness'
p256
aF1
aNaNaa(lp257
S'off.axial_local_api'
p258
aNaF1
aNaa(lp259
S'off.axial_general_api'
p260
aNaF1
aNaa(lp261
S'off.external_local_api'
p262
aNaF1
aNaa(lp263
S'off.external_general_api'
p264
aNaF1
aNaa(lp265
S'tower_stress'
p266
aNaF1
aNaa(lp267
S'tower_shell_buckling'
p268
aNaF1
aNaa(lp269
S'tower_global_buckling'
p270
aNaF1
aNaa(lp271
S'main_stress'
p272
aNaF1
aNaa(lp273
S'main_shell_buckling'
p274
aNaF1
aNaa(lp275
S'main_global_buckling'
p276
aNaF1
aNaa(lp277
S'offset_stress'
p278
aNaF1
aNaa(lp279
S'offset_shell_buckling'
p280
aNaF1
aNaa(lp281
S'offset_global_buckling'
p282
aNaF1
aNaa(lp283
S'variable_ballast_height_ratio'
p284
aF0
aF1
aNaa(lp285
S'variable_ballast_mass'
p286
aF0
aNaNaa(lp287
S'offset_force_ratio'
p288
aNaF1
aNaa(lp289
S'heel_moment_ratio'
p290
aNaF1
aNaa(lp291
S'period_margin_low'
p292
aNaF1
aNaa(lp293
S'period_margin_high'
p294
aF1
aNaNaa(S'total_cost'
p295
F1.0000000000000001e-09
tp296
S'SUBPLEX'
p297
t.