((dp1
S'rna_moment'
p2
cnumpy.core.multiarray
_reconstruct
p3
(cnumpy
ndarray
p4
(I0
tS'b'
tRp5
(I1
(I3
tcnumpy
dtype
p6
(S'f8'
I0
I1
tRp7
(I3
S'<'
NNNI-1
I-1
I0
tbI00
S'\xec*\xda\xf3O\xe7{A\xf8\xedw\x9a\x0e\xff\rA\xf1\x80S\xcaVvG\xc1'
tbsS'offset_permanent_ballast_height'
p8
F0.10000000000000001
sS'rna_force'
p9
g3
(g4
(I0
tS'b'
tRp10
(I1
(I3
tg7
I00
S'\xcd\xcc\xccLc\x1e@A\x00\x00\x00\x00\x00\x00\x00\x00\xc3\xf5(\xec!\xffY\xc1'
tbsS'gamma_fatigue'
p11
F1.7549999999999999
sS'loading'
p12
S'hydrostatic'
p13
sS'lower_ring_pontoons_int'
p14
I1
sS'main_stiffener_web_height'
p15
g3
(g4
(I0
tS'b'
tRp16
(I1
(I4
tg6
(S'f8'
I0
I1
tRp17
(I3
S'<'
NNNI-1
I-1
I0
tbI00
S'\x04\xe4\xe9U\x0b\xda\xe5?\xe5\xa4\xadk\xd9\x83\xc8?G\xb0\xd6X\x96A\x97?@7\xb7|\x84p\xe2?'
tbsS'zref'
p18
F119
sS'outfitting_cost_rate'
p19
F1.6500000000000001
sS'offset_buoyancy_tank_location'
p20
F0
sS'main_stiffener_flange_width'
p21
g3
(g4
(I0
tS'b'
tRp22
(I1
(I4
tg17
I00
S"i\x17\xaeG\xe1z\x84?hd\x8a9\x14\x1c\xda?\x9d\xdbl\xf0'U\x02@\xa6\xd4\xa6\xb3BK\xd2?"
tbsS'max_taper_ratio'
p23
F0.40000000000000002
sS'main_stiffener_spacing'
p24
g3
(g4
(I0
tS'b'
tRp25
(I1
(I4
tg17
I00
S'\x94\x14\x05Go\xd3\x0b@|\xa9%\x08\xdc\xef#@r\x8bq\x9d\x8d\xffU@qo\x84\x8e\xf1\xefN@'
tbsS'max_draft'
p26
F35
sS'T'
F9.8000000000000007
sS'bulkhead_mass_factor'
p27
F1
sS'wave_period_range_high'
p28
F20
sS'cross_attachment_pontoons_int'
p29
I1
sS'outfitting_mass_fraction'
p30
F0.059999999999999998
sS'offset_buoyancy_tank_diameter'
p31
F24
sS'main_outer_diameter'
p32
g3
(g4
(I0
tS'b'
tRp33
(I1
(I5
tg17
I00
S'\x9b\x91\xa5\xe7\xc4\xd0\x13@\xf3\x8e\xb3A\x0893@\xa5Z\x955\x85\xe8\x1a@j\xb0\xc8\xb4;\xd5 @pF\xa5\xbf\xb6\x03!@'
tbsS'rna_I'
p34
g3
(g4
(I0
tS'b'
tRp35
(I1
(I6
tg7
I00
S'\x00\x00\x00.b\xf5\xa3A\x00\x00\x00\x08)"\x99A\x00\x00\x00\xf0\x10Q\x94A\x00\x00\x00\x00\x00\x00\x00\x00\xa4p=\n\x98x7A\x00\x00\x00\x00\x00\x00\x00\x00'
tbsS'main.windLoads.mu'
p36
F1.8099999999999999e-05
sS'fairlead_support_outer_diameter'
p37
cnumpy.core.multiarray
scalar
p38
(g17
S'\xb1\xb2\x9e\x99\x99\x99\xb9?'
tRp39
sS'offset_bulkhead_thickness'
p40
g3
(g4
(I0
tS'b'
tRp41
(I1
(I5
tg7
I00
S'\x9a\x99\x99\x99\x99\x99\xa9?\x9a\x99\x99\x99\x99\x99\xa9?\x00\x00\x00\x00\x00\x00\x00\x00\x00\x00\x00\x00\x00\x00\x00\x00\x9a\x99\x99\x99\x99\x99\xa9?'
tbsS'shell_mass_factor'
p42
F1
sS'main_pontoon_attach_upper'
p43
F1
sS'rna_mass'
p44
F672300.53030069917
sS'tower_buckling_length'
p45
F30
sS'Hs'
p46
F10.800000000000001
sS'main_freeboard'
p47
g38
(g17
S'6-\xe2;745@'
tRp48
sS'Rhub'
p49
F2.2999999999999998
sS'material_density'
p50
F7850
sS'tower_outfitting_factor'
p51
F1.0700000000000001
sS'tower_outer_diameter'
p52
g3
(g4
(I0
tS'b'
tRp53
(I1
(I4
tg17
I00
S'i$\xe4\x1a\x9a\xd8 @\x13\xf2\xe7\xf6\xcf$.@\xe5\xdc\x1b\xed\x03\x1d\x19@\xac\xf9&\x8a\xca\xc8\x11@'
tbsS'anchor_type'
p54
S'suctionpile'
p55
sS'G'
F79300000000
sS'fairlead_location'
p56
g38
(g17
S'\xc7[\xf4^n\xa6\xb0?'
tRp57
sS'max_offset'
p58
F100
sS'max_survival_heel'
p59
F15
sS'main.waveLoads.mu'
p60
F0.00088999999999999995
sS'permanent_ballast_density'
p61
F4492
sS'z0'
p62
F0
sS'Uc'
p63
F0
sS'material_cost_rate'
p64
F1.1000000000000001
sS'pontoon_wall_thickness'
p65
F0.017500000000000002
sS'number_of_offset_columns'
p66
I0
sS'radius_to_offset_column'
p67
F28.867513459481287
sS'tower_section_height'
p68
g3
(g4
(I0
tS'b'
tRp69
(I1
(I3
tg17
I00
S'\x9a\x99\x99\x99\x99\x99\xb9?\x86N\xf7\xfd\r\x18R@\xc7\x92X\xfbl\xa9K@'
tbsS'main_buoyancy_tank_location'
p70
g38
(g17
S'\x00\x00\x00\x00\x00\x00\x00\x00'
tRp71
sS'cm'
p72
F2
sS'main_stiffener_flange_thickness'
p73
g3
(g4
(I0
tS'b'
tRp74
(I1
(I4
tg17
I00
S'\xdbS\xf7\xd2p\xc6f?\xd5\x1f\xb4+\\\x89\x9e?\x14\xfc\x07{\x1ft\xdc?\x07R\xd9\xb99S\xd3?'
tbsS'hub_cm'
p75
g3
(g4
(I0
tS'b'
tRp76
(I1
(I3
tg6
(S'f8'
I0
I1
tRp77
(I3
S'<'
NNNI-1
I-1
I0
tbI00
S'ffffff\x1c\xc0\x00\x00\x00\x00\x00\x00\x00\x00\x00\x00\x00\x00\x00\x00\x06@'
tbsS'mooring_diameter'
p78
g38
(g17
S'8\xe4a\x04\x1cH\xaa?'
tRp79
sS'gamma_m'
p80
F1.1000000000000001
sS'gamma_n'
p81
F1
sS'offset_section_height'
p82
g3
(g4
(I0
tS'b'
tRp83
(I1
(I4
tg7
I00
S'\x00\x00\x00\x00\x00\x00 @\x00\x00\x00\x00\x00\x00 @\x00\x00\x00\x00\x00\x00 @\x00\x00\x00\x00\x00\x00 @'
tbsS'main_bulkhead_thickness'
p84
g3
(g4
(I0
tS'b'
tRp85
(I1
(I5
tg7
I00
S'\x9a\x99\x99\x99\x99\x99\xa9?\x9a\x99\x99\x99\x99\x99\xa9?\x00\x00\x00\x00\x00\x00\x00\x00\x00\x00\x00\x00\x00\x00\x00\x00\x9a\x99\x99\x99\x99\x99\xa9?'
tbsS'yaw'
p86
F0
sS'gamma_f'
p87
F1.3500000000000001
sS'offset_freeboard'
p88
F12
sS'gamma_b'
p89
F1.1000000000000001
sS'tip_position'
p90
g3
(g4
(I0
tS'b'
tRp91
(I1
(I3
tg77
I00
S'\x9c\xc4 \xb0rh\x0c\xc0\x00\x00\x00\x00\x00\x00\x00\x00\x1b/\xdd$\x06\x815@'
tbsS'z_offset'
p92
F0
sS'ballast_cost_rate'
p93
F0.10000000000000001
sS'number_of_mooring_connections'
p94
g38
(g17
S'\x00\x00\x00\x00\x00\x00\x08@'
tRp95
sS'offset_stiffener_web_thickness'
p96
g3
(g4
(I0
tS'b'
tRp97
(I1
(I4
tg7
I00
S'{\x14\xaeG\xe1z\xa4?{\x14\xaeG\xe1z\xa4?{\x14\xaeG\xe1z\xa4?{\x14\xaeG\xe1z\xa4?'
tbsS'mooring_line_length'
p98
g38
(g17
S'\xcfU\x07\x9d\xf5\xfcf@'
tRp99
sS'downwind'
p100
I00
sS'outer_cross_pontoons_int'
p101
I1
sS'water_depth'
p102
F320
sS'main_buoyancy_tank_diameter'
p103
g38
(g17
S'\x803\xad\xdc\xabq\x86='
tRp104
sS'column_mass_factor'
p105
F1.05
sS'operational_heel'
p106
F6
sS'offset_outer_diameter'
p107
g3
(g4
(I0
tS'b'
tRp108
(I1
(I5
tg7
I00
S'\x00\x00\x00\x00\x00\x00(@\x00\x00\x00\x00\x00\x00(@\x00\x00\x00\x00\x00\x00(@\x00\x00\x00\x00\x00\x00(@\x00\x00\x00\x00\x00\x00(@'
tbsS'yield_stress'
p109
F345000000
sS'main_wall_thickness'
p110
g3
(g4
(I0
tS'b'
tRp111
(I1
(I4
tg17
I00
S'.\x1b\xcc\xa3\xaf\xdd\xa1?}x\x1bR\x18*\xa6?q\x84\xd4\x1c\x08l\xae?\xdd\xd8}\xf1\x07\x06\xa5?'
tbsS'connection_ratio_max'
p112
F0.25
sS'ring_mass_factor'
p113
F1
sS'upper_ring_pontoons_int'
p114
I1
sS'main_stiffener_web_thickness'
p115
g3
(g4
(I0
tS'b'
tRp116
(I1
(I4
tg17
I00
S' \x9c\x01\x18\xddn\x9d?\xb5)I\x0e\xb6\xcc\x80?\x00\xaa\xf1\xd2MbP?Y\xfc\xc6Z\xcc+\x99?'
tbsS'lower_attachment_pontoons_int'
p117
I1
sS'water_density'
p118
F1025
sS'main_buoyancy_tank_height'
p119
g38
(g17
S'\x00\x00\x00\x00\x00\x00\x00\x00'
tRp120
sS'cd_usr'
p121
Finf
sS'min_diameter_thickness_ratio'
p122
F120
sS'offset_wall_thickness'
p123
g3
(g4
(I0
tS'b'
tRp124
(I1
(I4
tg7
I00
S'\xb8\x1e\x85\xebQ\xb8\xae?\xb8\x1e\x85\xebQ\xb8\xae?\xb8\x1e\x85\xebQ\xb8\xae?\xb8\x1e\x85\xebQ\xb8\xae?'
tbsS'offset_buoyancy_tank_height'
p125
F5
sS'main_section_height'
p126
g3
(g4
(I0
tS'b'
tRp127
(I1
(I4
tg17
I00
S'\xf8\xda\xc2\x86v\xdb-@N\xfdU\xb9\x02\xb7\x13@\x10\x7f\xb8\xff>\x16$@(\x8d\xa4\xc0c\x9d&@'
tbsS'Uref'
p128
F11
sS'anchor_radius'
p129
g38
(g17
S'\xd9\x83U\x07_\xa7E@'
tRp130
sS'rna_cg'
p131
g3
(g4
(I0
tS'b'
tRp132
(I1
(I3
tg7
I00
S'\x1e\x01\x16\xd8\xe7Z\xe3\xbf\x00\x00\x00\x00\x00\x00\x00\x00\x0e\xb4L\xd0p$\x04@'
tbsS'pontoon_outer_diameter'
p133
F3.2000000000000002
sS'fairlead_support_wall_thickness'
p134
g38
(g17
S'\x89RmNb\x82\xa8?'
tRp135
sS'fairlead_offset_from_shell'
p136
g38
(g17
S'\x8a\x9c\x9f\xea\xb5\x07\x14@'
tRp137
sS'tower_wall_thickness'
p138
g3
(g4
(I0
tS'b'
tRp139
(I1
(I3
tg17
I00
S'\xa7\t#\x07w\xea\x9f?\xc0\xb7\xa3+\xfe\x17\x98?\x0f\x93>\x93\xbc\xec\x99?'
tbsS'mooring_cost_rate'
p140
F1.1000000000000001
sS'painting_cost_rate'
p141
F14.4
sS'nu'
p142
F0.26000000000000001
sS'E'
F200000000000
sS'wave_period_range_low'
p143
F2
sS'main_pontoon_attach_lower'
p144
F0.10000000000000001
sS'offset_stiffener_flange_thickness'
p145
g3
(g4
(I0
tS'b'
tRp146
(I1
(I4
tg7
I00
S'{\x14\xaeG\xe1z\x94?{\x14\xaeG\xe1z\x94?{\x14\xaeG\xe1z\x94?{\x14\xaeG\xe1z\x94?'
tbsS'main.windLoads.rho'
p147
F1.198
sS'beta'
p148
F0
sS'shearExp'
p149
F0.11
sS'mooring_lines_per_connection'
p150
g38
(g17
S'\x00\x00\x00\x00\x00\x00\x00@'
tRp151
sS'main_permanent_ballast_height'
p152
g38
(g17
S'\x9a\x99\x99\x99\x99\x99\xb9?'
tRp153
sS'offset_stiffener_flange_width'
p154
g3
(g4
(I0
tS'b'
tRp155
(I1
(I4
tg7
I00
S'\x9a\x99\x99\x99\x99\x99\xb9?\x9a\x99\x99\x99\x99\x99\xb9?\x9a\x99\x99\x99\x99\x99\xb9?\x9a\x99\x99\x99\x99\x99\xb9?'
tbsS'offset_stiffener_spacing'
p156
g3
(g4
(I0
tS'b'
tRp157
(I1
(I4
tg7
I00
S'\x9a\x99\x99\x99\x99\x99\xd9?\x9a\x99\x99\x99\x99\x99\xd9?\x9a\x99\x99\x99\x99\x99\xd9?\x9a\x99\x99\x99\x99\x99\xd9?'
tbsS'mooring_type'
p158
S'nylon'
p159
sS'hub_height'
p160
F149
sS'upper_attachment_pontoons_int'
p161
I1
sS'labor_cost_rate'
p162
F1
sS'offset_stiffener_web_height'
p163
g3
(g4
(I0
tS'b'
tRp164
(I1
(I4
tg7
I00
S'\x9a\x99\x99\x99\x99\x99\xb9?\x9a\x99\x99\x99\x99\x99\xb9?\x9a\x99\x99\x99\x99\x99\xb9?\x9a\x99\x99\x99\x99\x99\xb9?'
tbs(lp165
(lp166
g56
aF0
aF1
aa(lp167
g136
aF5
aF30
aa(lp168
g134
aF0.001
aF1
aa(lp169
g37
aF0.10000000000000001
aF10
aa(lp170
g47
aF0
aF50
aa(lp171
g126
aF0.10000000000000001
aF50
aa(lp172
g32
aF2.1000000000000001
aF20
aa(lp173
g110
aF0.001
aF0.5
aa(lp174
g103
aF0
aF50
aa(lp175
g119
aF0
aF20
aa(lp176
g70
aF0
aF1
aa(lp177
g68
aF0.10000000000000001
aF100
aa(lp178
g52
aF1.1000000000000001
aF20
aa(lp179
g138
aF0.001
aF0.5
aa(lp180
g98
aF10
aF300
aa(lp181
g129
aF20
aF100
aa(lp182
g78
aF0.050000000000000003
aF5
aa(lp183
g152
aF0.10000000000000001
aF50
aa(lp184
g15
aF0.01
aF1
aa(lp185
g115
aF0.001
aF0.5
aa(lp186
g21
aF0.01
aF5
aa(lp187
g73
aF0.001
aF0.5
aa(lp188
g24
aF0.10000000000000001
aF100
aa(lp189
(lp190
S'tow.height_constraint'
p191
aF-0.01
aF0.01
aNaa(lp192
S'tow.tip_deflection_margin'
p193
aF1
aNaNaa(lp194
S'main.draft_margin'
p195
aNaF1
aNaa(lp196
S'main.wave_height_freeboard_ratio'
p197
aNaF1
aNaa(lp198
S'wave_height_fairlead_ratio'
p199
aNaF1
aNaa(lp200
S'main.manufacturability'
p201
aF0
aNaNaa(lp202
S'main.weldability'
p203
aNaF0
aNaa(lp204
S'tow.manufacturability'
p205
aF0
aNaNaa(lp206
S'tow.weldability'
p207
aNaF0
aNaa(lp208
S'tower_transition_buffer'
p209
aF0
aNaNaa(lp210
S'nacelle_transition_buffer'
p211
aF0
aNaNaa(lp212
S'axial_unity'
p213
aF0
aF1
aNaa(lp214
S'mooring_length_max'
p215
aNaF1
aNaa(lp216
S'main.flange_spacing_ratio'
p217
aNaF1
aNaa(lp218
S'main.stiffener_radius_ratio'
p219
aNaF0.5
aNaa(lp220
S'main.flange_compactness'
p221
aF1
aNaNaa(lp222
S'main.web_compactness'
p223
aF1
aNaNaa(lp224
S'main.axial_local_api'
p225
aNaF1
aNaa(lp226
S'main.axial_general_api'
p227
aNaF1
aNaa(lp228
S'main.external_local_api'
p229
aNaF1
aNaa(lp230
S'main.external_general_api'
p231
aNaF1
aNaa(lp232
S'pontoon_stress'
p233
aNaF1
aNaa(lp234
S'pontoon_wave_height_depth_margin'
p235
aF1
aNaNaa(lp236
S'tower_stress'
p237
aNaF1
aNaa(lp238
S'tower_shell_buckling'
p239
aNaF1
aNaa(lp240
S'tower_global_buckling'
p241
aNaF1
aNaa(lp242
S'main_stress'
p243
aNaF1
aNaa(lp244
S'main_shell_buckling'
p245
aNaF1
aNaa(lp246
S'main_global_buckling'
p247
aNaF1
aNaa(lp248
S'variable_ballast_height_ratio'
p249
aF0
aF1
aNaa(lp250
S'variable_ballast_mass'
p251
aF0
aNaNaa(lp252
S'heel_moment_ratio'
p253
aNaF1
aNaa(lp254
S'period_margin_low'
p255
aNaF1
aNaa(lp256
S'period_margin_high'
p257
aF1
aNaNaa(S'total_cost'
p258
F9.9999999999999995e-07
tp259
S'NM'
p260
t.