((dp1
S'rna_moment'
p2
cnumpy.core.multiarray
_reconstruct
p3
(cnumpy
ndarray
p4
(I0
tS'b'
tRp5
(I1
(I3
tcnumpy
dtype
p6
(S'f8'
I0
I1
tRp7
(I3
S'<'
NNNI-1
I-1
I0
tbI00
S'\xec*\xda\xf3O\xe7{A\xf8\xedw\x9a\x0e\xff\rA\xf1\x80S\xcaVvG\xc1'
tbsS'offset_permanent_ballast_height'
p8
F0.10000000000000001
sS'rna_force'
p9
g3
(g4
(I0
tS'b'
tRp10
(I1
(I3
tg7
I00
S'\xcd\xcc\xccLc\x1e@A\x00\x00\x00\x00\x00\x00\x00\x00\xc3\xf5(\xec!\xffY\xc1'
tbsS'gamma_fatigue'
p11
F1.7549999999999999
sS'loading'
p12
S'hydrostatic'
p13
sS'lower_ring_pontoons_int'
p14
I1
sS'main_stiffener_web_height'
p15
g3
(g4
(I0
tS'b'
tRp16
(I1
(I4
tg6
(S'f8'
I0
I1
tRp17
(I3
S'<'
NNNI-1
I-1
I0
tbI00
S'b\xf7BVo\x83\xef?b\xf7BVo\x83\xef?b\xf7BVo\x83\xef?b\xf7BVo\x83\xef?'
tbsS'zref'
p18
F119
sS'outfitting_cost_rate'
p19
F1.6500000000000001
sS'offset_buoyancy_tank_location'
p20
F0
sS'main_stiffener_flange_width'
p21
g3
(g4
(I0
tS'b'
tRp22
(I1
(I4
tg17
I00
S'F\xeb$\xd0\x06n\r@F\xeb$\xd0\x06n\r@F\xeb$\xd0\x06n\r@F\xeb$\xd0\x06n\r@'
tbsS'max_taper_ratio'
p23
F0.40000000000000002
sS'main_stiffener_spacing'
p24
g3
(g4
(I0
tS'b'
tRp25
(I1
(I4
tg17
I00
S'\xed\xa8/\xc0\x95\xe1\x16@\xed\xa8/\xc0\x95\xe1\x16@\xed\xa8/\xc0\x95\xe1\x16@\xed\xa8/\xc0\x95\xe1\x16@'
tbsS'max_draft'
p26
F35
sS'T'
F9.8000000000000007
sS'bulkhead_mass_factor'
p27
F1
sS'wave_period_range_high'
p28
F20
sS'cross_attachment_pontoons_int'
p29
I1
sS'outfitting_mass_fraction'
p30
F0.059999999999999998
sS'offset_buoyancy_tank_diameter'
p31
F24
sS'main_outer_diameter'
p32
g3
(g4
(I0
tS'b'
tRp33
(I1
(I5
tg6
(S'f8'
I0
I1
tRp34
(I3
S'<'
NNNI-1
I-1
I0
tbI00
S'\xa8\xd6\\\x1a\xc4Y$@\xe24\x9a4o\xfe\x1c@x\xf0q\xfbQ\x83\x1d@+9W\x8c\xa0\xf1(@R^\x1e\x00\x08\\\x1c@'
tbsS'rna_I'
p35
g3
(g4
(I0
tS'b'
tRp36
(I1
(I6
tg7
I00
S'\x00\x00\x00.b\xf5\xa3A\x00\x00\x00\x08)"\x99A\x00\x00\x00\xf0\x10Q\x94A\x00\x00\x00\x00\x00\x00\x00\x00\xa4p=\n\x98x7A\x00\x00\x00\x00\x00\x00\x00\x00'
tbsS'main.windLoads.mu'
p37
F1.8099999999999999e-05
sS'fairlead_support_outer_diameter'
p38
cnumpy.core.multiarray
scalar
p39
(g17
S'Z\xedJ s\x81#@'
tRp40
sS'offset_bulkhead_thickness'
p41
g3
(g4
(I0
tS'b'
tRp42
(I1
(I5
tg6
(S'f8'
I0
I1
tRp43
(I3
S'<'
NNNI-1
I-1
I0
tbI00
S'\x9a\x99\x99\x99\x99\x99\xa9?\x9a\x99\x99\x99\x99\x99\xa9?\x00\x00\x00\x00\x00\x00\x00\x00\x00\x00\x00\x00\x00\x00\x00\x00\x9a\x99\x99\x99\x99\x99\xa9?'
tbsS'shell_mass_factor'
p44
F1
sS'main_pontoon_attach_upper'
p45
F1
sS'rna_mass'
p46
F449282.40530069917
sS'tower_buckling_length'
p47
F30
sS'Hs'
p48
F10.800000000000001
sS'main_freeboard'
p49
g39
(g17
S'u\x97\xd9\xdd\xc8\x00>@'
tRp50
sS'Rhub'
p51
F2.2999999999999998
sS'material_density'
p52
F7850
sS'tower_outfitting_factor'
p53
F1.0700000000000001
sS'tower_outer_diameter'
p54
g3
(g4
(I0
tS'b'
tRp55
(I1
(I4
tg17
I00
S'\x00\x00\x00\x00\x00\x00"@\x00\x00\x00\x00\x00\x00\x1d@\x00\x00\x00\x00\x00\x00\x1d@\x00\x00\x00\x00\x00\x00\x16@'
tbsS'anchor_type'
p56
S'suctionpile'
p57
sS'G'
F79300000000
sS'fairlead_location'
p58
g39
(g17
S'H\x12\x02\x14h\xb8\xbf?'
tRp59
sS'max_offset'
p60
F100
sS'max_survival_heel'
p61
F15
sS'main.waveLoads.mu'
p62
F0.00088999999999999995
sS'permanent_ballast_density'
p63
F4492
sS'z0'
p64
F0
sS'Uc'
p65
F0
sS'material_cost_rate'
p66
F1.1000000000000001
sS'pontoon_wall_thickness'
p67
F0.017500000000000002
sS'number_of_offset_columns'
p68
I0
sS'radius_to_offset_column'
p69
F28.867513459481287
sS'tower_section_height'
p70
g3
(g4
(I0
tS'b'
tRp71
(I1
(I3
tg17
I00
S'UUUUU\xd5C@UUUUU\xd5C@UUUUU\xd5C@'
tbsS'main_buoyancy_tank_location'
p72
g39
(g17
S'0\xc5\nJ\xa06\xd4?'
tRp73
sS'cm'
p74
F2
sS'main_stiffener_flange_thickness'
p75
g3
(g4
(I0
tS'b'
tRp76
(I1
(I4
tg17
I00
S'\xde&j\xf4D\xa5\xd5?\xde&j\xf4D\xa5\xd5?\xde&j\xf4D\xa5\xd5?\xde&j\xf4D\xa5\xd5?'
tbsS'hub_cm'
p77
g3
(g4
(I0
tS'b'
tRp78
(I1
(I3
tg43
I00
S'ffffff\x1c\xc0\x00\x00\x00\x00\x00\x00\x00\x00\x00\x00\x00\x00\x00\x00\x06@'
tbsS'mooring_diameter'
p79
g39
(g17
S'P\xe2\xbd\xc2\xea\x95\xd5?'
tRp80
sS'gamma_m'
p81
F1.1000000000000001
sS'gamma_n'
p82
F1
sS'offset_section_height'
p83
g3
(g4
(I0
tS'b'
tRp84
(I1
(I4
tg7
I00
S'\x9a\x99\x99\x99\x99\x99\x19@\x9a\x99\x99\x99\x99\x99\x19@\x9a\x99\x99\x99\x99\x99)@\x9a\x99\x99\x99\x99\x99\x19@'
tbsS'main_bulkhead_thickness'
p85
g3
(g4
(I0
tS'b'
tRp86
(I1
(I5
tg43
I00
S'\x9a\x99\x99\x99\x99\x99\xa9?\x9a\x99\x99\x99\x99\x99\xa9?\x00\x00\x00\x00\x00\x00\x00\x00\x00\x00\x00\x00\x00\x00\x00\x00\x9a\x99\x99\x99\x99\x99\xa9?'
tbsS'yaw'
p87
F0
sS'gamma_f'
p88
F1.3500000000000001
sS'offset_freeboard'
p89
F12
sS'gamma_b'
p90
F1.1000000000000001
sS'tip_position'
p91
g3
(g4
(I0
tS'b'
tRp92
(I1
(I3
tg43
I00
S'\x9c\xc4 \xb0rh\x0c\xc0\x00\x00\x00\x00\x00\x00\x00\x00\x1b/\xdd$\x06\x815@'
tbsS'z_offset'
p93
F0
sS'ballast_cost_rate'
p94
F0.10000000000000001
sS'number_of_mooring_connections'
p95
g39
(g17
S'\x00\x00\x00\x00\x00\x00\x08@'
tRp96
sS'offset_stiffener_web_thickness'
p97
g3
(g4
(I0
tS'b'
tRp98
(I1
(I4
tg17
I00
S'{\x14\xaeG\xe1z\xa4?{\x14\xaeG\xe1z\xa4?{\x14\xaeG\xe1z\xa4?{\x14\xaeG\xe1z\xa4?'
tbsS'mooring_line_length'
p99
g39
(g17
S'\xd0\xb4*\xeaEbk@'
tRp100
sS'downwind'
p101
I00
sS'outer_cross_pontoons_int'
p102
I1
sS'water_depth'
p103
F320
sS'main_buoyancy_tank_diameter'
p104
g39
(g17
S'\xdaP\xe9L\x12\x01\r@'
tRp105
sS'column_mass_factor'
p106
F1.05
sS'operational_heel'
p107
F6
sS'offset_outer_diameter'
p108
g3
(g4
(I0
tS'b'
tRp109
(I1
(I5
tg7
I00
S'\x00\x00\x00\x00\x00\x00(@\x00\x00\x00\x00\x00\x00(@\x00\x00\x00\x00\x00\x00(@\x00\x00\x00\x00\x00\x00(@\x00\x00\x00\x00\x00\x00(@'
tbsS'yield_stress'
p110
F345000000
sS'main_wall_thickness'
p111
g3
(g4
(I0
tS'b'
tRp112
(I1
(I4
tg17
I00
S'\x15\xd3^\xda\xc9\x80\xb2?\x15\xd3^\xda\xc9\x80\xb2?\x15\xd3^\xda\xc9\x80\xb2?\x15\xd3^\xda\xc9\x80\xb2?'
tbsS'connection_ratio_max'
p113
F0.25
sS'ring_mass_factor'
p114
F1
sS'upper_ring_pontoons_int'
p115
I1
sS'main_stiffener_web_thickness'
p116
g3
(g4
(I0
tS'b'
tRp117
(I1
(I4
tg17
I00
S'\x13\xad\x0e\xa4\xa2\xdf\xdc?\x13\xad\x0e\xa4\xa2\xdf\xdc?\x13\xad\x0e\xa4\xa2\xdf\xdc?\x13\xad\x0e\xa4\xa2\xdf\xdc?'
tbsS'lower_attachment_pontoons_int'
p118
I1
sS'water_density'
p119
F1025
sS'main_buoyancy_tank_height'
p120
g39
(g17
S'\xcb\xa2\xc2\x91\x1f\xe8#@'
tRp121
sS'cd_usr'
p122
Finf
sS'min_diameter_thickness_ratio'
p123
F120
sS'offset_wall_thickness'
p124
g3
(g4
(I0
tS'b'
tRp125
(I1
(I4
tg17
I00
S'\xb8\x1e\x85\xebQ\xb8\xae?\xb8\x1e\x85\xebQ\xb8\xae?\xb8\x1e\x85\xebQ\xb8\xae?\xb8\x1e\x85\xebQ\xb8\xae?'
tbsS'offset_buoyancy_tank_height'
p126
F5
sS'main_section_height'
p127
g3
(g4
(I0
tS'b'
tRp128
(I1
(I4
tg34
I00
S'\nY\xa9\xac>\xc4\xc0?v\xac\x87g\x95o\xc0?\xd0\xf1\xc0\x8d\x8f\xf7A@\x9f+\xa5\x05\xb4\xb1\x0b@'
tbsS'Uref'
p129
F11
sS'anchor_radius'
p130
g39
(g17
S'W\x18\xfa!\xb9$?@'
tRp131
sS'rna_cg'
p132
g3
(g4
(I0
tS'b'
tRp133
(I1
(I3
tg7
I00
S'\x1e\x01\x16\xd8\xe7Z\xe3\xbf\x00\x00\x00\x00\x00\x00\x00\x00\x0e\xb4L\xd0p$\x04@'
tbsS'pontoon_outer_diameter'
p134
F3.2000000000000002
sS'fairlead_support_wall_thickness'
p135
g39
(g17
S'\x02F\xaa1\xa2a\xb5?'
tRp136
sS'fairlead_offset_from_shell'
p137
g39
(g17
S'\xf4\xa1\x83\x9a#\xbd=@'
tRp138
sS'tower_wall_thickness'
p139
g3
(g4
(I0
tS'b'
tRp140
(I1
(I3
tg17
I00
S'\x90\xebQ\xb8\x1e\x85\xd3?\x90\xebQ\xb8\x1e\x85\xd3?\x90\xebQ\xb8\x1e\x85\xd3?'
tbsS'mooring_cost_rate'
p141
F1.1000000000000001
sS'painting_cost_rate'
p142
F14.4
sS'nu'
p143
F0.26000000000000001
sS'E'
F200000000000
sS'wave_period_range_low'
p144
F2
sS'main_pontoon_attach_lower'
p145
F0.10000000000000001
sS'offset_stiffener_flange_thickness'
p146
g3
(g4
(I0
tS'b'
tRp147
(I1
(I4
tg17
I00
S'{\x14\xaeG\xe1z\x94?{\x14\xaeG\xe1z\x94?{\x14\xaeG\xe1z\x94?{\x14\xaeG\xe1z\x94?'
tbsS'main.windLoads.rho'
p148
F1.198
sS'beta'
p149
F0
sS'shearExp'
p150
F0.11
sS'mooring_lines_per_connection'
p151
g39
(g17
S'\x00\x00\x00\x00\x00\x00\xf0?'
tRp152
sS'main_permanent_ballast_height'
p153
g39
(g17
S'\xd4=\xa0\x9b\x8f\x13\xf7?'
tRp154
sS'offset_stiffener_flange_width'
p155
g3
(g4
(I0
tS'b'
tRp156
(I1
(I4
tg17
I00
S'\x9a\x99\x99\x99\x99\x99\xb9?\x9a\x99\x99\x99\x99\x99\xb9?\x9a\x99\x99\x99\x99\x99\xb9?\x9a\x99\x99\x99\x99\x99\xb9?'
tbsS'offset_stiffener_spacing'
p157
g3
(g4
(I0
tS'b'
tRp158
(I1
(I4
tg17
I00
S'\x9a\x99\x99\x99\x99\x99\xd9?\x9a\x99\x99\x99\x99\x99\xd9?\x9a\x99\x99\x99\x99\x99\xd9?\x9a\x99\x99\x99\x99\x99\xd9?'
tbsS'mooring_type'
p159
S'nylon'
p160
sS'hub_height'
p161
F149
sS'upper_attachment_pontoons_int'
p162
I1
sS'labor_cost_rate'
p163
F1
sS'offset_stiffener_web_height'
p164
g3
(g4
(I0
tS'b'
tRp165
(I1
(I4
tg17
I00
S'\x9a\x99\x99\x99\x99\x99\xb9?\x9a\x99\x99\x99\x99\x99\xb9?\x9a\x99\x99\x99\x99\x99\xb9?\x9a\x99\x99\x99\x99\x99\xb9?'
tbs(lp166
(lp167
S'fairlead_location'
p168
aF0
aF1
aa(lp169
S'fairlead_offset_from_shell'
p170
aF5
aF30
aa(lp171
S'fairlead_support_wall_thickness'
p172
aF0.001
aF1
aa(lp173
S'fairlead_support_outer_diameter'
p174
aF0.10000000000000001
aF10
aa(lp175
S'main_freeboard'
p176
aF0
aF50
aa(lp177
S'main_section_height'
p178
aF0.10000000000000001
aF50
aa(lp179
S'main_outer_diameter'
p180
aF2.1000000000000001
aF20
aa(lp181
S'main_wall_thickness'
p182
aF0.001
aF0.5
aa(lp183
S'main_buoyancy_tank_diameter'
p184
aF0
aF50
aa(lp185
S'main_buoyancy_tank_height'
p186
aF0
aF20
aa(lp187
S'main_buoyancy_tank_location'
p188
aF0
aF1
aa(lp189
S'mooring_line_length'
p190
aF10
aF300
aa(lp191
S'anchor_radius'
p192
aF20
aF100
aa(lp193
S'mooring_diameter'
p194
aF0.050000000000000003
aF5
aa(lp195
S'main_permanent_ballast_height'
p196
aF0.10000000000000001
aF50
aa(lp197
S'main_stiffener_web_height'
p198
aF0.01
aF1
aa(lp199
S'main_stiffener_web_thickness'
p200
aF0.001
aF0.5
aa(lp201
S'main_stiffener_flange_width'
p202
aF0.01
aF5
aa(lp203
S'main_stiffener_flange_thickness'
p204
aF0.001
aF0.5
aa(lp205
S'main_stiffener_spacing'
p206
aF0.10000000000000001
aF100
aa(lp207
(lp208
S'tow.height_constraint'
p209
aF-0.01
aF0.01
aNaa(lp210
S'main.draft'
p211
aF0
aF35
aNaa(lp212
S'main.draft_margin'
p213
aF0
aF1
aNaa(lp214
S'main.wave_height_freeboard_ratio'
p215
aNaF1
aNaa(lp216
S'main.manufacturability'
p217
aF0
aNaNaa(lp218
S'main.weldability'
p219
aNaF0
aNaa(lp220
S'tower_transition_buffer'
p221
aF-1
aF1
aNaa(lp222
S'nacelle_transition_buffer'
p223
aF0
aNaNaa(lp224
S'axial_unity'
p225
aF0
aF1
aNaa(lp226
S'mooring_length_max'
p227
aNaF1
aNaa(lp228
S'main.flange_spacing_ratio'
p229
aNaF1
aNaa(lp230
S'main.stiffener_radius_ratio'
p231
aNaF0.5
aNaa(lp232
S'main.flange_compactness'
p233
aF1
aNaNaa(lp234
S'main.web_compactness'
p235
aF1
aNaNaa(lp236
S'main.axial_local_api'
p237
aNaF1
aNaa(lp238
S'main.axial_general_api'
p239
aNaF1
aNaa(lp240
S'main.external_local_api'
p241
aNaF1
aNaa(lp242
S'main.external_general_api'
p243
aNaF1
aNaa(lp244
S'tower_stress'
p245
aNaF1
aNaa(lp246
S'tower_shell_buckling'
p247
aNaF1
aNaa(lp248
S'tower_global_buckling'
p249
aNaF1
aNaa(lp250
S'main_stress'
p251
aNaF1
aNaa(lp252
S'main_shell_buckling'
p253
aNaF1
aNaa(lp254
S'main_global_buckling'
p255
aNaF1
aNaa(lp256
S'variable_ballast_height_ratio'
p257
aF0
aF1
aNaa(lp258
S'variable_ballast_mass'
p259
aF0
aNaNaa(lp260
S'offset_force_ratio'
p261
aNaF1
aNaa(lp262
S'heel_moment_ratio'
p263
aNaF1
aNaa(lp264
S'period_margin_low'
p265
aNaF1
aNaa(lp266
S'period_margin_high'
p267
aF1
aNaNaa(S'total_cost'
F1.0000000000000001e-09
tp268
S'NM'
p269
t.